 SO Server

 Timestamp is 422bf055 (Mon Mar 07 15:10:29 2005)

 Preferred load address is 00400000

 Start         Length     Name                   Class
 0001:00000000 00164da3H .text                   CODE
 0001:00164db0 00004387H .text$x                 CODE
 0001:00169137 000b8109H .textbss                CODE
 0002:00000000 0000ccafH .rdata                  DATA
 0002:0000ccb0 00000c01H .rdata$r                DATA
 0002:0000d8b8 000040d9H .xdata$x                DATA
 0002:00011991 00000000H .edata                  DATA
 0003:00000000 00000104H .CRT$XCA                DATA
 0003:00000104 00000113H .CRT$XCC                DATA
 0003:00000218 000008a4H .CRT$XCU                DATA
 0003:00000abc 00000104H .CRT$XCZ                DATA
 0003:00000bc0 00000104H .CRT$XIA                DATA
 0003:00000cc4 0000010eH .CRT$XIC                DATA
 0003:00000dd4 00000104H .CRT$XIY                DATA
 0003:00000ed8 00000104H .CRT$XIZ                DATA
 0003:00000fdc 00000104H .CRT$XPA                DATA
 0003:000010e0 00000109H .CRT$XPX                DATA
 0003:000011ec 00000104H .CRT$XPZ                DATA
 0003:000012f0 00000104H .CRT$XTA                DATA
 0003:000013f4 00000104H .CRT$XTB                DATA
 0003:000014f8 00000104H .CRT$XTZ                DATA
 0003:00001600 00009b56H .data                   DATA
 0003:0000b158 0002eca0H .bss                    DATA
 0004:00000000 0000008cH .idata$2                DATA
 0004:0000008c 00000014H .idata$3                DATA
 0004:000000a0 000004a0H .idata$4                DATA
 0004:00000540 000004a0H .idata$5                DATA
 0004:000009e0 00000c95H .idata$6                DATA

  Address         Publics by Value              Rva+Base     Lib:Object

 0001:00009c80       ??0JXAcceptSocketList@@QAE@XZ 0040ac80 f   JXAcceptSocketList.obj
 0001:00009ce0       ??_EJXAcceptSocketList@@UAEPAXI@Z 0040ace0 f i JXAcceptSocketList.obj
 0001:00009ce0       ??_GJXAcceptSocketList@@UAEPAXI@Z 0040ace0 f i JXAcceptSocketList.obj
 0001:00009d50       ??1JXAcceptSocketList@@UAE@XZ 0040ad50 f   JXAcceptSocketList.obj
 0001:00009e50       ?Create@JXAcceptSocketList@@QAEXHHHH@Z 0040ae50 f   JXAcceptSocketList.obj
 0001:0000a010       ??_EJXSocket@@UAEPAXI@Z    0040b010 f i JXAcceptSocketList.obj
 0001:0000a0d0       ?AddSocket@JXAcceptSocketList@@QAEXIUsockaddr_in@@PAVJXPacket@@@Z 0040b0d0 f   JXAcceptSocketList.obj
 0001:0000a1b0       ?AddSocket@JXAcceptSocketList@@QAEXIUsockaddr_in@@@Z 0040b1b0 f   JXAcceptSocketList.obj
 0001:0000a2a0       ?JXConnectSocket_ThreadFunc@@YGIPAX@Z 0040b2a0 f   JXConnectSocket.obj
 0001:0000a380       ?JXConnectSocket_Recv_ThreadFunc@@YGIPAX@Z 0040b380 f   JXConnectSocket.obj
 0001:0000a430       ?JXConnectSocket_Send_ThreadFunc@@YGIPAX@Z 0040b430 f   JXConnectSocket.obj
 0001:0000a4e0       ??0JXConnectSocket@@QAE@XZ 0040b4e0 f   JXConnectSocket.obj
 0001:0000a5f0       ??_GJXConnectSocket@@UAEPAXI@Z 0040b5f0 f i JXConnectSocket.obj
 0001:0000a660       ??1JXConnectSocket@@UAE@XZ 0040b660 f   JXConnectSocket.obj
 0001:0000a770       ?Create@JXConnectSocket@@QAEXPADGHHHH@Z 0040b770 f   JXConnectSocket.obj
 0001:0000a8a0       ?StartThread@JXConnectSocket@@QAEXXZ 0040b8a0 f   JXConnectSocket.obj
 0001:0000a990       ?StopThread@JXConnectSocket@@QAEXXZ 0040b990 f   JXConnectSocket.obj
 0001:0000aa10       ?TryConnect@JXConnectSocket@@QAEXXZ 0040ba10 f   JXConnectSocket.obj
 0001:0000aa70       ?Connect@JXConnectSocket@@QAEHXZ 0040ba70 f   JXConnectSocket.obj
 0001:0000aba0       ?Connect@JXConnectSocket@@QAEHPBDG@Z 0040bba0 f   JXConnectSocket.obj
 0001:0000ad40       ?CreateSocket@JXSocket@@QAEXHHH@Z 0040bd40 f i JXConnectSocket.obj
 0001:0000ada0       ??0JXConnectSocketMgr@@QAE@XZ 0040bda0 f   JXConnectSocketMgr.obj
 0001:0000ae00       ??_EJXConnectSocketMgr@@UAEPAXI@Z 0040be00 f i JXConnectSocketMgr.obj
 0001:0000ae00       ??_GJXConnectSocketMgr@@UAEPAXI@Z 0040be00 f i JXConnectSocketMgr.obj
 0001:0000ae70       ??1JXConnectSocketMgr@@UAE@XZ 0040be70 f   JXConnectSocketMgr.obj
 0001:0000af50       ?Create@JXConnectSocketMgr@@QAEXH@Z 0040bf50 f   JXConnectSocketMgr.obj
 0001:0000b130       ??_EJXConnectSocket@@UAEPAXI@Z 0040c130 f i JXConnectSocketMgr.obj
 0001:0000b1f0       ?AddSocket@JXConnectSocketMgr@@QAEPAVJXConnectSocket@@PADGHHH@Z 0040c1f0 f   JXConnectSocketMgr.obj
 0001:0000b270       ??0JXDBController@@QAE@XZ  0040c270 f   JXDBController.obj
 0001:0000b320       ??1JXDBController@@QAE@XZ  0040c320 f   JXDBController.obj
 0001:0000b390       ?Create@JXDBController@@QAEXPAD000@Z 0040c390 f   JXDBController.obj
 0001:0000b4f0       ?Connect@JXDBController@@QAEHXZ 0040c4f0 f   JXDBController.obj
 0001:0000b5c0       ?DBClose@JXDBController@@QAEXXZ 0040c5c0 f   JXDBController.obj
 0001:0000b630       ?SQLExec@JXDBController@@QAAHPADZZ 0040c630 f   JXDBController.obj
 0001:0000b740       ?DBResults@JXDBController@@QAEHXZ 0040c740 f   JXDBController.obj
 0001:0000b7d0       ?DBFreeCmdBuf@JXDBController@@QAEXXZ 0040c7d0 f   JXDBController.obj
 0001:0000b830       ?DBBind@JXDBController@@QAEHHHJPAE@Z 0040c830 f   JXDBController.obj
 0001:0000b8b0       ?DBNextRow@JXDBController@@QAEHXZ 0040c8b0 f   JXDBController.obj
 0001:0000b910       ?ClearRows@JXDBController@@QAEXXZ 0040c910 f   JXDBController.obj
 0001:0000b980       ?JXGateSocket_ThreadFunc@@YGIPAX@Z 0040c980 f   JXGateSocket.obj
 0001:0000ba40       ??0JXGateSocket@@QAE@XZ    0040ca40 f   JXGateSocket.obj
 0001:0000bb50       ??1JXGateSocket@@QAE@XZ    0040cb50 f   JXGateSocket.obj
 0001:0000bbe0       ?Create@JXGateSocket@@QAEHGPAVJXAcceptSocketList@@HHK@Z 0040cbe0 f   JXGateSocket.obj
 0001:0000be90       ?StartThread@JXGateSocket@@QAEXXZ 0040ce90 f   JXGateSocket.obj
 0001:0000bf30       ?StopThread@JXGateSocket@@QAEXXZ 0040cf30 f   JXGateSocket.obj
 0001:0000bfc0       ?Accept@JXGateSocket@@QAEXXZ 0040cfc0 f   JXGateSocket.obj
 0001:0000c140       ??0JXList@@QAE@XZ          0040d140 f   JXList.obj
 0001:0000c3e0       ??_GJXList@@UAEPAXI@Z      0040d3e0 f i JXList.obj
 0001:0000c3e0       ??_EJXList@@UAEPAXI@Z      0040d3e0 f i JXList.obj
 0001:0000c450       ??1JXList@@UAE@XZ          0040d450 f   JXList.obj
 0001:0000c610       ?PushFront@JXList@@QAEPAVJXObject@@XZ 0040d610 f   JXList.obj
 0001:0000c740       ??0JXObject@@QAE@XZ        0040d740 f i JXList.obj
 0001:0000c7b0       ?PushBack@JXList@@QAEPAVJXObject@@XZ 0040d7b0 f   JXList.obj
 0001:0000c8e0       ??1JXObject@@UAE@XZ        0040d8e0 f i JXList.obj
 0001:0000c920       ?RemoveFront@JXList@@QAEPAVJXObject@@XZ 0040d920 f   JXList.obj
 0001:0000ca60       ??_EJXObject@@UAEPAXI@Z    0040da60 f i JXList.obj
 0001:0000ca60       ??_GJXObject@@UAEPAXI@Z    0040da60 f i JXList.obj
 0001:0000cad0       ?RemoveBack@JXList@@QAEPAVJXObject@@XZ 0040dad0 f   JXList.obj
 0001:0000cc10       ?Remove@JXList@@QAEXPAVJXObject@@@Z 0040dc10 f   JXList.obj
 0001:0000cd00       ?RemoveAll@JXList@@QAEXXZ  0040dd00 f   JXList.obj
 0001:0000ce20       ?AddToFree@JXList@@QAEPAVJXObject@@PAV2@@Z 0040de20 f   JXList.obj
 0001:0000cec0       ?PushFront@JXList@@QAEIPAV1@@Z 0040dec0 f   JXList.obj
 0001:0000cfd0       ?Wait@JXList@@QAEIXZ       0040dfd0 f   JXList.obj
 0001:0000d030       ?Wait@JXList@@QAEII@Z      0040e030 f   JXList.obj
 0001:0000d090       ?Release@JXList@@QAEHXZ    0040e090 f   JXList.obj
 0001:0000d0f0       ??0JXPacket@@QAE@XZ        0040e0f0 f   JXPacket.obj
 0001:0000d120       ??1JXPacket@@QAE@XZ        0040e120 f   JXPacket.obj
 0001:0000d150       ?SetPacket@JXPacket@@QAEXPAD@Z 0040e150 f   JXPacket.obj
 0001:0000d200       ?ClearPacket@JXPacket@@QAEXXZ 0040e200 f   JXPacket.obj
 0001:0000d270       ?ClearZeroPacket@JXPacket@@QAEXXZ 0040e270 f   JXPacket.obj
 0001:0000d2f0       ?CompletePacket@JXPacket@@QAEXXZ 0040e2f0 f   JXPacket.obj
 0001:0000d360       ?WriteValue@JXPacket@@QAEXPAXH@Z 0040e360 f   JXPacket.obj
 0001:0000d3e0       ?WriteString@JXPacket@@QAEXPADH@Z 0040e3e0 f   JXPacket.obj
 0001:0000d520       ?WriteString2@JXPacket@@QAEXPADHH@Z 0040e520 f   JXPacket.obj
 0001:0000d650       ?ReadValue@JXPacket@@QAEHPAXH@Z 0040e650 f   JXPacket.obj
 0001:0000d700       ?ReadString@JXPacket@@QAEHPADH@Z 0040e700 f   JXPacket.obj
 0001:0000d860       ?ReadString2@JXPacket@@QAEHPADH@Z 0040e860 f   JXPacket.obj
 0001:0000d9d0       ??0JXPacketList@@QAE@XZ    0040e9d0 f   JXPacketList.obj
 0001:0000da30       ??_GJXPacketList@@UAEPAXI@Z 0040ea30 f i JXPacketList.obj
 0001:0000da30       ??_EJXPacketList@@UAEPAXI@Z 0040ea30 f i JXPacketList.obj
 0001:0000daa0       ??1JXPacketList@@UAE@XZ    0040eaa0 f   JXPacketList.obj
 0001:0000db70       ??_EJXPacket@@QAEPAXI@Z    0040eb70 f i JXPacketList.obj
 0001:0000dc30       ?Create@JXPacketList@@QAEXH@Z 0040ec30 f   JXPacketList.obj
 0001:0000ddb0       ??0JXPacketQueue@@QAE@XZ   0040edb0 f   JXPacketQueue.obj
 0001:0000de60       ??1JXPacketQueue@@QAE@XZ   0040ee60 f   JXPacketQueue.obj
 0001:0000dee0       ?Create@JXPacketQueue@@QAEXH@Z 0040eee0 f   JXPacketQueue.obj
 0001:0000dfd0       ?Clear@JXPacketQueue@@QAEXXZ 0040efd0 f   JXPacketQueue.obj
 0001:0000e080       ?Enqueue@JXPacketQueue@@QAEHPAVJXPacket@@@Z 0040f080 f   JXPacketQueue.obj
 0001:0000e0e0       ?Enqueue@JXPacketQueue@@QAEHPAD@Z 0040f0e0 f   JXPacketQueue.obj
 0001:0000e2f0       ?Dequeue@JXPacketQueue@@QAEHPAVJXPacket@@@Z 0040f2f0 f   JXPacketQueue.obj
 0001:0000e3b0       ?Dequeue@JXPacketQueue@@QAEHPAD@Z 0040f3b0 f   JXPacketQueue.obj
 0001:0000e440       ?GetPacket@JXPacket@@QAEPADXZ 0040f440 f i JXPacketQueue.obj
 0001:0000e470       ?__dequeue@JXPacketQueue@@AAEHPAD@Z 0040f470 f   JXPacketQueue.obj
 0001:0000e670       ??0JXSocket@@QAE@XZ        0040f670 f   JXSocket.obj
 0001:0000e730       ??_GJXSocket@@UAEPAXI@Z    0040f730 f i JXSocket.obj
 0001:0000e7a0       ??1JXSocket@@UAE@XZ        0040f7a0 f   JXSocket.obj
 0001:0000e910       ??_GJXPacketQueue@@QAEPAXI@Z 0040f910 f i JXSocket.obj
 0001:0000e980       ?Create@JXSocket@@QAEXHHH@Z 0040f980 f   JXSocket.obj
 0001:0000eb80       ?IsConnect@JXSocket@@QAEXPAH@Z 0040fb80 f   JXSocket.obj
 0001:0000ec00       ?Disconnect@JXSocket@@QAEXXZ 0040fc00 f   JXSocket.obj
 0001:0000ec80       ?__disconnect@JXSocket@@IAEXXZ 0040fc80 f   JXSocket.obj
 0001:0000ed30       ?SetSocket@JXSocket@@QAEXIUsockaddr_in@@@Z 0040fd30 f   JXSocket.obj
 0001:0000ee20       ?__clearRecvBuffer@JXSocket@@IAEXXZ 0040fe20 f   JXSocket.obj
 0001:0000ee80       ?__clearSendBuffer@JXSocket@@IAEXXZ 0040fe80 f   JXSocket.obj
 0001:0000eed0       ?__recv@JXSocket@@IAEXXZ   0040fed0 f   JXSocket.obj
 0001:0000f1f0       ?__send@JXSocket@@IAEXXZ   004101f0 f   JXSocket.obj
 0001:0000f580       ?Send@JXSocket@@QAEXXZ     00410580 f   JXSocket.obj
 0001:0000f600       ?Recv@JXSocket@@QAEXXZ     00410600 f   JXSocket.obj
 0001:0000f680       ?SendPacket@JXSocket@@QAEXPAVJXPacket@@@Z 00410680 f   JXSocket.obj
 0001:0000f6e0       ?GetPacketSize@JXPacket@@QAEHXZ 004106e0 f i JXSocket.obj
 0001:0000f720       ?SendPacket@JXSocket@@QAEXPADH@Z 00410720 f   JXSocket.obj
 0001:0000f940       ?NBRecv@JXSocket@@QAEXXZ   00410940 f   JXSocket.obj
 0001:0000fb20       ?NBSend@JXSocket@@QAEXXZ   00410b20 f   JXSocket.obj
 0001:0000fd20       ?JXSocketMgr_Recv_ThreadFunc@@YGIPAX@Z 00410d20 f   JXSocketMgr.obj
 0001:0000fde0       ?JXSocketMgr_Send_ThreadFunc@@YGIPAX@Z 00410de0 f   JXSocketMgr.obj
 0001:0000fea0       ??0JXSocketMgr@@QAE@XZ     00410ea0 f   JXSocketMgr.obj
 0001:0000ffa0       ??_EJXSocketMgr@@UAEPAXI@Z 00410fa0 f i JXSocketMgr.obj
 0001:0000ffa0       ??_GJXSocketMgr@@UAEPAXI@Z 00410fa0 f i JXSocketMgr.obj
 0001:00010010       ??1JXSocketMgr@@UAE@XZ     00411010 f   JXSocketMgr.obj
 0001:000101d0       ?Create@JXSocketMgr@@QAEXHHHH@Z 004111d0 f   JXSocketMgr.obj
 0001:000103c0       ?StartThread@JXSocketMgr@@QAEXXZ 004113c0 f   JXSocketMgr.obj
 0001:000104f0       ?StopThread@JXSocketMgr@@QAEXXZ 004114f0 f   JXSocketMgr.obj
 0001:000105b0       ?AddSocket@JXSocketMgr@@QAEXIUsockaddr_in@@PAVJXPacket@@@Z 004115b0 f   JXSocketMgr.obj
 0001:000106f0       ?AddSocket@JXSocketMgr@@QAEXIUsockaddr_in@@@Z 004116f0 f   JXSocketMgr.obj
 0001:00010800       ?DelSocket@JXSocketMgr@@QAEXPAVJXSocket@@@Z 00411800 f   JXSocketMgr.obj
 0001:00010900       ?Send@JXSocketMgr@@QAEXXZ  00411900 f   JXSocketMgr.obj
 0001:00010960       ?Recv@JXSocketMgr@@QAEXXZ  00411960 f   JXSocketMgr.obj
 0001:000109c0       ?__recv@JXSocketMgr@@AAEXXZ 004119c0 f i JXSocketMgr.obj
 0001:00010c50       ?GetNext@JXObject@@QAEPAV1@XZ 00411c50 f i JXSocketMgr.obj
 0001:00010c90       ?GetFirstNode@JXList@@QAEPAVJXObject@@XZ 00411c90 f i JXSocketMgr.obj
 0001:00010cd0       ?GetNumberNodes@JXList@@QAEIXZ 00411cd0 f i JXSocketMgr.obj
 0001:00010d10       ?__send@JXSocketMgr@@AAEXXZ 00411d10 f i JXSocketMgr.obj
 0001:00010fa0       ?SendPacket@JXSocketMgr@@QAEXPAVJXPacket@@@Z 00411fa0 f   JXSocketMgr.obj
 0001:00011050       ??0JXWorkManager@@QAE@XZ   00412050 f   JXWorkManager.obj
 0001:000110f0       ??1JXWorkManager@@QAE@XZ   004120f0 f   JXWorkManager.obj
 0001:000111c0       ?Create@JXWorkManager@@QAEXH@Z 004121c0 f   JXWorkManager.obj
 0001:000113a0       ?Clear@JXWorkManager@@QAEXXZ 004123a0 f   JXWorkManager.obj
 0001:000114f0       ?SetQuery@JXWorkManager@@QAEHGGPAVJXPacket@@@Z 004124f0 f   JXWorkManager.obj
 0001:00011680       ?GetQuery@JXWorkManager@@QAEHPAKPAVJXPacket@@@Z 00412680 f   JXWorkManager.obj
 0001:000117d0       ?SetReport@JXWorkManager@@QAEHKPAVJXPacket@@@Z 004127d0 f   JXWorkManager.obj
 0001:00011900       ?IsWorkDone@JXWorkManager@@QAEHGG@Z 00412900 f   JXWorkManager.obj
 0001:00011a10       ?DelWorkInfo@JXWorkManager@@QAEXGG@Z 00412a10 f   JXWorkManager.obj
 0001:00011b90       ??0XPlayer@@QAE@XZ         00412b90 f   XPlayer.obj
 0001:00011bf0       ??_GXPlayer@@UAEPAXI@Z     00412bf0 f i XPlayer.obj
 0001:00011c60       ??1XPlayer@@UAE@XZ         00412c60 f   XPlayer.obj
 0001:00011cb0       ?Init@XPlayer@@UAEXXZ      00412cb0 f   XPlayer.obj
 0001:00011d80       ?Close@XPlayer@@UAEXXZ     00412d80 f   XPlayer.obj
 0001:00011dd0       ?Write@XPlayer@@QAEXPAD@Z  00412dd0 f   XPlayer.obj
 0001:00011eb0       ??0JWObject@@QAE@XZ        00412eb0 f i XPlayer.obj
 0001:00011f30       ??1JWObject@@UAE@XZ        00412f30 f i XPlayer.obj
 0001:00011f70       ?Init@JWObject@@UAEXXZ     00412f70 f i XPlayer.obj
 0001:00011fa0       ?Close@JWObject@@UAEXXZ    00412fa0 f i XPlayer.obj
 0001:00011fd0       ?ResetAction@JWObject@@QAEXXZ 00412fd0 f i XPlayer.obj
 0001:00012030       ??_EJWObject@@UAEPAXI@Z    00413030 f i XPlayer.obj
 0001:00012030       ??_GJWObject@@UAEPAXI@Z    00413030 f i XPlayer.obj
 0001:000120a0       ?GetSendBuffer@JWSocket@@QAEPAVJWSendBuffer@@XZ 004130a0 f i XPlayer.obj
 0001:000120e0       ?GetSocket@JWSocket@@QAEIXZ 004130e0 f i XPlayer.obj
 0001:00012380       ?id@?$ctype@G@std@@$D      00413380 f i XPlayer.obj
 0001:00012420       ?id@?$ctype@G@std@@$E      00413420 f i XPlayer.obj
 0001:00012450       ??0XPlayerMgr@@QAE@XZ      00413450 f   XPlayerMgr.obj
 0001:000124b0       ??_EXPlayerMgr@@UAEPAXI@Z  004134b0 f i XPlayerMgr.obj
 0001:000124b0       ??_GXPlayerMgr@@UAEPAXI@Z  004134b0 f i XPlayerMgr.obj
 0001:00012520       ??1XPlayerMgr@@UAE@XZ      00413520 f   XPlayerMgr.obj
 0001:00012600       ?Create@XPlayerMgr@@QAEXH@Z 00413600 f   XPlayerMgr.obj
 0001:000127e0       ??_EXPlayer@@UAEPAXI@Z     004137e0 f i XPlayerMgr.obj
 0001:000128a0       ??0SOPlayer@@QAE@XZ        004138a0 f   SOPlayer.obj
 0001:00012a90       ??_GSOPlayer@@UAEPAXI@Z    00413a90 f i SOPlayer.obj
 0001:00012a90       ??_ESOPlayer@@UAEPAXI@Z    00413a90 f i SOPlayer.obj
 0001:00012b00       ??1SOPlayer@@UAE@XZ        00413b00 f   SOPlayer.obj
 0001:00012c30       ??_GCAuctionMarketProc@@QAEPAXI@Z 00413c30 f i SOPlayer.obj
 0001:00012ca0       ?InitEnv@SOPlayer@@QAEXXZ  00413ca0 f   SOPlayer.obj
 0001:000130c0       ?Init@SOPlayer@@UAEXXZ     004140c0 f   SOPlayer.obj
 0001:00013130       ?Write@SOPlayer@@QAEHPBXH@Z 00414130 f   SOPlayer.obj
 0001:00013220       ?Create@SOPlayer@@QAEXPAVSOServer@@@Z 00414220 f   SOPlayer.obj
 0001:00013390       ?Poll@SOPlayer@@QAEXXZ     00414390 f   SOPlayer.obj
 0001:000135c0       ?GetInfo@SOPlayer@@QAEKPAUOnCharPlayerInfo@@@Z 004145c0 f   SOPlayer.obj
 0001:00013860       ?GetDetailInfo@SOPlayer@@QAEKPAUOnCharPlayerDetailInfo@@IHK@Z 00414860 f   SOPlayer.obj
 0001:00013a80       ?SendHeartbeat@SOPlayer@@QAEXXZ 00414a80 f   SOPlayer.obj
 0001:00013ae0       ?ChangeIPStr@SOPlayer@@QAEKPAD@Z 00414ae0 f   SOPlayer.obj
 0001:00013b80       ?EnoughMoney@SOPlayer@@QAEH_J@Z 00414b80 f   SOPlayer.obj
 0001:00013bf0       ?ChangeMoney@SOPlayer@@QAEX_JH@Z 00414bf0 f   SOPlayer.obj
 0001:00013c90       ?IncreaseMoney@SOPlayer@@QAE_J_JH@Z 00414c90 f   SOPlayer.obj
 0001:00013e00       ?DecreaseMoney@SOPlayer@@QAEH_JH@Z 00414e00 f   SOPlayer.obj
 0001:00013f20       ?DecreaseMoneyReturnMoney@SOPlayer@@QAE_J_J@Z 00414f20 f   SOPlayer.obj
 0001:00013ff0       ?SaveMoneyAtBank@SOPlayer@@QAEH_J@Z 00414ff0 f   SOPlayer.obj
 0001:00014160       ?WithdrawMoneyAtBank@SOPlayer@@QAEH_J@Z 00415160 f   SOPlayer.obj
 0001:000142d0       ?ModifySaving@SOPlayer@@QAE_J_J@Z 004152d0 f   SOPlayer.obj
 0001:000143e0       ?SendDeadPlayerToVillageHospital@SOPlayer@@QAEXXZ 004153e0 f   SOPlayer.obj
 0001:000145d0       ?BoardShip@SOPlayer@@QAEXH@Z 004155d0 f   SOPlayer.obj
 0001:00014610       ?ArriveVillageByShip@SOPlayer@@QAEXPAVSOVillage@@@Z 00415610 f   SOPlayer.obj
 0001:000146e0       ?Init@SOPlayer@@UAEXGGFFGPAD@Z 004156e0 f   SOPlayer.obj
 0001:00014760       ?ChangeMap@SOPlayer@@QAEHGFF@Z 00415760 f   SOPlayer.obj
 0001:00014930       ?SendReloadWearItem@SOPlayer@@QAEXXZ 00415930 f   SOPlayer.obj
 0001:000149d0       ?SendMoney@SOPlayer@@QAEXK@Z 004159d0 f   SOPlayer.obj
 0001:00014a40       ?GiveBonusMoney@SOPlayer@@QAEX_JKH@Z 00415a40 f   SOPlayer.obj
 0001:00014ab0       ?IncreaseBonus@SOPlayer@@QAEHEH@Z 00415ab0 f   SOPlayer.obj
 0001:00014b30       ?IncreaseCredit@SOPlayer@@QAEHH@Z 00415b30 f   SOPlayer.obj
 0001:00014b90       ?GetGiveCredit@SOPlayer@@QAEH_J@Z 00415b90 f   SOPlayer.obj
 0001:00014d10       ?CheckForbiddenName@SOPlayer@@QAEHPAD@Z 00415d10 f   SOPlayer.obj
 0001:00014e10       ?ChangeSatiety@SOPlayer@@QAEXH@Z 00415e10 f   SOPlayer.obj
 0001:00015030       ?RecvHeartBeat@SOPlayer@@QAEXXZ 00416030 f   SOPlayer.obj
 0001:00015140       ?IsEvent@@YA_NXZ           00416140 f i SOPlayer.obj
 0001:00015170       ?ChangeGuildFlag@SOPlayer@@QAEXH@Z 00416170 f   SOPlayer.obj
 0001:000151f0       ?SetNearestHospitalVillageIndexInDungeon@SOPlayer@@QAEXH@Z 004161f0 f   SOPlayer.obj
 0001:000152b0       ?AllCharacterDeleteLifePoint@SOPlayer@@QAEXH@Z 004162b0 f   SOPlayer.obj
 0001:00015300       ?GetTradeGrade@SOPlayer@@QAEHXZ 00416300 f   SOPlayer.obj
 0001:00015380       ?CanTrade@SOPlayer@@QAEHXZ 00416380 f   SOPlayer.obj
 0001:00015430       ?IsTrading@SOPlayer@@QAEHXZ 00416430 f   SOPlayer.obj
 0001:00015480       ?GetIPInNumeric@SOPlayer@@QAEKXZ 00416480 f   SOPlayer.obj
 0001:000154c0       ?IsChoseTradeItem@SOPlayer@@QAEHG@Z 004164c0 f   SOPlayer.obj
 0001:00015520       ?CancelChooseTradeItem@SOPlayer@@QAEHXZ 00416520 f   SOPlayer.obj
 0001:00015570       ?DecideTrade@SOPlayer@@QAEHXZ 00416570 f   SOPlayer.obj
 0001:000155c0       ?PrepareBattle@SOPlayer@@UAEXXZ 004165c0 f   SOPlayer.obj
 0001:00015620       ?EndBattle@SOPlayer@@UAEXXZ 00416620 f   SOPlayer.obj
 0001:00015670       ?HaveGeneral@SOPlayer@@QAEHXZ 00416670 f   SOPlayer.obj
 0001:000156f0       ?IsGeneral@SOPlayer@@QAEHE@Z 004166f0 f   SOPlayer.obj
 0001:000157b0       ?IsFieldAttackUnit@SOPlayer@@QAEHXZ 004167b0 f   SOPlayer.obj
 0001:00015810       ?IsMonster@SOPlayer@@QAEHE@Z 00416810 f   SOPlayer.obj
 0001:000158b0       ?GetMonsterNum@SOPlayer@@QAEHXZ 004168b0 f   SOPlayer.obj
 0001:00015940       ?GetMaxFollowerNum@SOPlayer@@QAEFXZ 00416940 f   SOPlayer.obj
 0001:000159b0       ?IsAdminPlayer@SOPlayer@@QAEHXZ 004169b0 f   SOPlayer.obj
 0001:00015a00       ?CanAddFollower@SOPlayer@@QAEHG@Z 00416a00 f   SOPlayer.obj
 0001:00015aa0       ?expUp@SOPlayer@@QAE_NHH@Z 00416aa0 f   SOPlayer.obj
 0001:00015bd0       ?GiveMoney@SOPlayer@@QAEHPA_JPAV1@@Z 00416bd0 f   SOPlayer.obj
 0001:00015c90       ?GetMaxMoneyToGet@SOPlayer@@QAE_JXZ 00416c90 f   SOPlayer.obj
 0001:00015ce0       ?IsInVillage@SOPlayer@@QAEHXZ 00416ce0 f   SOPlayer.obj
 0001:00015d30       ?IsEnteredStructure@SOPlayer@@QAEHXZ 00416d30 f   SOPlayer.obj
 0001:00015d60       ?GetMoney@SOPlayer@@QAE_JXZ 00416d60 f   SOPlayer.obj
 0001:00015da0       ?GetSaving@SOPlayer@@QAE_JXZ 00416da0 f   SOPlayer.obj
 0001:00015de0       ?isCycleSaveToDB@_ImportantParameta@@QAE_NXZ 00416de0 f i SOPlayer.obj
 0001:00015e20       ?getTempBiddingPrice@SOPlayer@@QAEKXZ 00416e20 f   SOPlayer.obj
 0001:00015e60       ?setTempBiddingPrice@SOPlayer@@QAEXK@Z 00416e60 f   SOPlayer.obj
 0001:00015ea0       ?savePosToDB@SOPlayer@@AAEXXZ 00416ea0 f   SOPlayer.obj
 0001:00016010       ?saveAllFollowerDataToDB@SOPlayer@@QAEXXZ 00417010 f   SOPlayer.obj
 0001:00016080       ?saveFollowerDataToDB@SOPlayer@@AAEXKE@Z 00417080 f   SOPlayer.obj
 0001:00016310       ?setCycleSaveToDB@_ImportantParameta@@QAEX_N@Z 00417310 f i SOPlayer.obj
 0001:00016350       ?setSaveToDB@_ImportantParameta@@QAEX_N@Z 00417350 f i SOPlayer.obj
 0001:00016390       ?GetCurExp@_ImportantParameta@@QBEHXZ 00417390 f i SOPlayer.obj
 0001:000163e0       ?GetStr@_ImportantParameta@@QBEHXZ 004173e0 f i SOPlayer.obj
 0001:00016430       ?GetDex@_ImportantParameta@@QBEHXZ 00417430 f i SOPlayer.obj
 0001:00016480       ?GetVit@_ImportantParameta@@QBEHXZ 00417480 f i SOPlayer.obj
 0001:000164d0       ?GetInt@_ImportantParameta@@QBEHXZ 004174d0 f i SOPlayer.obj
 0001:00016520       ?GetAC@_ImportantParameta@@QBEHXZ 00417520 f i SOPlayer.obj
 0001:00016570       ?GetBonus@_ImportantParameta@@QBEHXZ 00417570 f i SOPlayer.obj
 0001:000165c0       ?SetBonus@_ImportantParameta@@QAEXH@Z 004175c0 f i SOPlayer.obj
 0001:00016630       ?GetLevel@_ImportantParameta@@QBEHXZ 00417630 f i SOPlayer.obj
 0001:00016680       ?SetLevel@_ImportantParameta@@QAEXH@Z 00417680 f i SOPlayer.obj
 0001:000166f0       ?GetLife@_ImportantParameta@@QBEHXZ 004176f0 f i SOPlayer.obj
 0001:00016740       ?SetLife@_ImportantParameta@@QAEXH@Z 00417740 f i SOPlayer.obj
 0001:000167b0       ?saveLogoutInfoToDB@SOPlayer@@QAEXXZ 004177b0 f   SOPlayer.obj
 0001:000168a0       ?GetMana@_ImportantParameta@@QBEHXZ 004178a0 f i SOPlayer.obj
 0001:000168f0       ?SetMana@_ImportantParameta@@QAEXHH@Z 004178f0 f i SOPlayer.obj
 0001:00016960       ?GetMaxLifeByIP@_ImportantParameta@@QBEHXZ 00417960 f i SOPlayer.obj
 0001:000169b0       ?GetMaxManaByIP@_ImportantParameta@@QBEHXZ 004179b0 f i SOPlayer.obj
 0001:00016a00       ?saveLogountWarInfoToDB@SOPlayer@@QAEXXZ 00417a00 f   SOPlayer.obj
 0001:00016bf0       ?saveLogoutStartToDB@SOPlayer@@QAEXXZ 00417bf0 f   SOPlayer.obj
 0001:00016cd0       ?saveSatietyToDB@SOPlayer@@QAEXXZ 00417cd0 f   SOPlayer.obj
 0001:00016d90       ?getAuctionMarket@SOPlayer@@QAEPAVCAuctionMarket@@XZ 00417d90 f   SOPlayer.obj
 0001:00016dd0       ?removeSelfInBattle@SOPlayer@@AAEXXZ 00417dd0 f   SOPlayer.obj
 0001:00016e70       ?removeSelfInAuctionMarket@SOPlayer@@AAEXXZ 00417e70 f   SOPlayer.obj
 0001:00016ef0       ?removeSelfInGame@SOPlayer@@QAEXXZ 00417ef0 f   SOPlayer.obj
 0001:00017140       ?isValidGUID@SOPlayer@@AAE_NPAD@Z 00418140 f   SOPlayer.obj
 0001:00017210       ?MoveItem@SOPlayer@@QAEHEGGEF@Z 00418210 f   SOPlayer.obj
 0001:00017360       ?SendItemCount@SOPlayer@@QAEXXZ 00418360 f   SOPlayer.obj
 0001:00017400       ?RecvRunProgramList@SOPlayer@@QAEXXZ 00418400 f   SOPlayer.obj
 0001:00017590       ?RecvSetAttackMode@SOPlayer@@QAEXXZ 00418590 f   SOPlayer.obj
 0001:00017630       ?RecvGetAuditGuildInfo@SOPlayer@@QAEXXZ 00418630 f   SOPlayer.obj
 0001:00017750       ?RecvMacroUsingUserInfo@SOPlayer@@QAEXXZ 00418750 f   SOPlayer.obj
 0001:000177f0       ?SetEquipItems@SOPlayer@@QAEXPAU__EquipItemInfo@@FAAFPAUOnlineFollower@@@Z 004187f0 f   SOPlayer.obj
 0001:00017a80       ?CheckGetTimeLimitItem@SOPlayer@@QAEHXZ 00418a80 f   SOPlayer.obj
 0001:00017b20       ?GetRestTime@SOPlayer@@QAEFHH@Z 00418b20 f   SOPlayer.obj
 0001:00017c80       ?IsDeleteTimerItem@SOPlayer@@QAEHFF@Z 00418c80 f   SOPlayer.obj
 0001:00017d00       ?GetClientSendDeleteTimerItem@SOPlayer@@QAEFPAUOnTimerItemInfo@@@Z 00418d00 f   SOPlayer.obj
 0001:00017e70       ?GetComPareDate@SOPlayer@@QAEFFFFFFF@Z 00418e70 f   SOPlayer.obj
 0001:00017fd0       ?GetEndDate@SOPlayer@@QAEXFFFFAAF00@Z 00418fd0 f   SOPlayer.obj
 0001:000180f0       ?GetMDay@SOPlayer@@QAEFF@Z 004190f0 f   SOPlayer.obj
 0001:000181c0       ?DeleteTimerItem@SOPlayer@@QAEXXZ 004191c0 f   SOPlayer.obj
 0001:00018500       ?DeleteFiledUnit@SOPlayer@@QAEXXZ 00419500 f   SOPlayer.obj
 0001:00018c00       ?GetBattleMgr@BaseChar@@IAEPAVCBattleMgr@@XZ 00419c00 f i SOPlayer.obj
 0001:00018c40       ?GetBattleKey@BaseChar@@IAEHXZ 00419c40 f i SOPlayer.obj
 0001:00018c80       ?GetBattle@BaseChar@@QAEPAVCBattle@@XZ 00419c80 f i SOPlayer.obj
 0001:00018ce0       ?Init@party_state_t@@QAEXXZ 00419ce0 f i SOPlayer.obj
 0001:00018d40       ?SetState@party_state_t@@QAEXW4PLAYERS_PARTY_STATE@@G@Z 00419d40 f i SOPlayer.obj
 0001:00018dd0       ?set@CMainState@@QAEXJ@Z   00419dd0 f i SOPlayer.obj
 0001:00018e30       ?get@CMainState@@QAEHXZ    00419e30 f i SOPlayer.obj
 0001:00018e70       ?match@CMainState@@QAE_NJ@Z 00419e70 f i SOPlayer.obj
 0001:00018ec0       ?UnSetGuildInfoChanged@SOPlayer@@QAEXXZ 00419ec0 f i SOPlayer.obj
 0001:00018f00       ?getGateQueueSize@SODatabase@@QAEHXZ 00419f00 f i SOPlayer.obj
 0001:00018f50       ?GetHeader@OnlineTradeParser@@QAEPBUTradeHeader@@I@Z 00419f50 f i SOPlayer.obj
 0001:00018fc0       ?CheckTradeGrade@OnlineTradeParser@@QAEPAUTradeHeader@@I@Z 00419fc0 f i SOPlayer.obj
 0001:000190c0       ?size@?$vector@UTradeHeader@@V?$allocator@UTradeHeader@@@std@@@std@@QBEIXZ 0041a0c0 f i SOPlayer.obj
 0001:00019120       ??A?$vector@UTradeHeader@@V?$allocator@UTradeHeader@@@std@@@std@@QAEAAUTradeHeader@@I@Z 0041a120 f i SOPlayer.obj
 0001:00019170       ?begin@?$vector@UTradeHeader@@V?$allocator@UTradeHeader@@@std@@@std@@QAEPAUTradeHeader@@XZ 0041a170 f i SOPlayer.obj
 0001:000191b0       ?GetWarUpdate@CWarTimeParser@@QAEFXZ 0041a1b0 f i SOPlayer.obj
 0001:000191f0       ?GetAddCredit@CreditIndex@@QAEI_J@Z 0041a1f0 f i SOPlayer.obj
 0001:00019250       ?GetMaxCredit@CreditIndex@@QAEIH@Z 0041a250 f i SOPlayer.obj
 0001:000192a0       ?GetRank@ExpoRank@@QAEHH@Z 0041a2a0 f i SOPlayer.obj
 0001:00019300       ?GetRank@User@@QAEHXZ      0041a300 f i SOPlayer.obj
 0001:00019340       ?GetScore@ExpoRank@@QAEHH@Z 0041a340 f i SOPlayer.obj
 0001:000193a0       ?GetScore@User@@QAEHXZ     0041a3a0 f i SOPlayer.obj
 0001:000193e0       ?GetFriend@JWObject@@QAEPAV1@XZ 0041a3e0 f i SOPlayer.obj
 0001:000194b0       ?CalculateItemValue@SOPlayer@@QAE_JAA_J@Z 0041a4b0 f   SOPlayer_AuditBook.obj
 0001:000195f0       ?RecvAuditTotalInfo@SOPlayer@@QAEXXZ 0041a5f0 f   SOPlayer_AuditBook.obj
 0001:000196c0       ?GetTotalProperty@SOPlayer@@QAEHAAUPROPERTY_INFO@@@Z 0041a6c0 f   SOPlayer_AuditBook.obj
 0001:000197d0       ?RecvAuditAccountList@SOPlayer@@QAEXXZ 0041a7d0 f   SOPlayer_AuditBook.obj
 0001:000198e0       ?GetAuditAccountList@SOPlayer@@QAEHXZ 0041a8e0 f   SOPlayer_AuditBook.obj
 0001:00019920       ?RecvAuditOwnList@SOPlayer@@QAEXXZ 0041a920 f   SOPlayer_AuditBook.obj
 0001:00019a10       ?GetAuditOwnList@SOPlayer@@QAEHXZ 0041aa10 f   SOPlayer_AuditBook.obj
 0001:00019a50       ?RecvAuditVillageList@SOPlayer@@QAEXXZ 0041aa50 f   SOPlayer_AuditBook.obj
 0001:00019c30       ?RecvAuditVillageInfo@SOPlayer@@QAEXXZ 0041ac30 f   SOPlayer_AuditBook.obj
 0001:00019c60       ?GetAuditVillageInfo@SOPlayer@@QAEHXZ 0041ac60 f   SOPlayer_AuditBook.obj
 0001:00019ca0       ?RecvAuditFriendList@SOPlayer@@QAEXXZ 0041aca0 f   SOPlayer_AuditBook.obj
 0001:00019de0       ?RecvAuditFriendSetDenial@SOPlayer@@QAEXXZ 0041ade0 f   SOPlayer_AuditBook.obj
 0001:00019f40       ?RecvAuditFriendAddOne@SOPlayer@@QAEXXZ 0041af40 f   SOPlayer_AuditBook.obj
 0001:0001a0f0       ?RecvAuditFriendRemoveSome@SOPlayer@@QAEXXZ 0041b0f0 f   SOPlayer_AuditBook.obj
 0001:0001a2b0       ?RecvAuditFriendRemoveAll@SOPlayer@@QAEXXZ 0041b2b0 f   SOPlayer_AuditBook.obj
 0001:0001a370       ?RecvAuditStatus@SOPlayer@@QAEXXZ 0041b370 f   SOPlayer_AuditBook.obj
 0001:0001a400       ?GetAuditStatus@SOPlayer@@QAEHXZ 0041b400 f   SOPlayer_AuditBook.obj
 0001:0001a440       ?RecvAuditFollowerStatus@SOPlayer@@QAEXXZ 0041b440 f   SOPlayer_AuditBook.obj
 0001:0001a470       ?RecvAuditSetName@SOPlayer@@QAEXXZ 0041b470 f   SOPlayer_AuditBook.obj
 0001:0001a5b0       ?RecvAuditProfitStatistics@SOPlayer@@QAEXXZ 0041b5b0 f   SOPlayer_AuditBook.obj
 0001:0001a970       ?RecvBattle@SOPlayer@@QAEXXZ 0041b970 f   SOPlayer_Battle.obj
 0001:0001aa10       ?RecvReturnOnline@SOPlayer@@QAEXXZ 0041ba10 f   SOPlayer_Battle.obj
 0001:0001afa0       ?RecvShareItem@SOPlayer@@QAEXXZ 0041bfa0 f   SOPlayer_CommonlyMsg.obj
 0001:0001b0a0       ?RecvCommand@SOPlayer@@QAEXXZ 0041c0a0 f   SOPlayer_CommonlyMsg.obj
 0001:0001b200       ?RecvIncAbilityByBonus@SOPlayer@@QAEXXZ 0041c200 f   SOPlayer_CommonlyMsg.obj
 0001:0001b2f0       ?RecvReqPIInMinimap@SOPlayer@@QAEXXZ 0041c2f0 f   SOPlayer_CommonlyMsg.obj
 0001:0001b4a0       ?RecvRequestVillageInfo@SOPlayer@@QAEXXZ 0041c4a0 f   SOPlayer_CommonlyMsg.obj
 0001:0001b580       ?RecvVMercenaryChange@SOPlayer@@QAEXC@Z 0041c580 f   SOPlayer_CommonlyMsg.obj
 0001:0001b610       ?UpdateVMercenary@SOPlayer@@QAEXXZ 0041c610 f   SOPlayer_CommonlyMsg.obj
 0001:0001b710       ?RecvRefineItem@SOPlayer@@QAEXXZ 0041c710 f   SOPlayer_CommonlyMsg.obj
 0001:0001ba30       ?IncreaseTradeCredit@SOPlayer@@QAEIIH@Z 0041ca30 f   SOPlayer_Credit.obj
 0001:0001bb30       ?DecreaseTradeCredit@SOPlayer@@QAEXIH@Z 0041cb30 f   SOPlayer_Credit.obj
 0001:0001bc10       ?GetTradeCredit@SOPlayer@@QAEIXZ 0041cc10 f   SOPlayer_Credit.obj
 0001:0001bf00       ?printsectorlist@@YAXPAPAUstrSector@@@Z 0041cf00 f   SOPlayer_Field.obj
 0001:0001bfa0       ?RecvPosition@SOPlayer@@QAEXXZ 0041cfa0 f   SOPlayer_Field.obj
 0001:0001c0c0       ?RecvWarp@SOPlayer@@QAEHXZ 0041d0c0 f   SOPlayer_Field.obj
 0001:0001c1f0       ?Warp@SOPlayer@@UAEHGHH@Z  0041d1f0 f   SOPlayer_Field.obj
 0001:0001c4d0       ?RecvPlayerInfo@SOPlayer@@QAEXXZ 0041d4d0 f   SOPlayer_Field.obj
 0001:0001c610       ?RecvCharDetailInfo@SOPlayer@@QAEXXZ 0041d610 f   SOPlayer_Field.obj
 0001:0001c7b0       ?RecvEnterVillage@SOPlayer@@QAEXXZ 0041d7b0 f   SOPlayer_Field.obj
 0001:0001cb80       ?EnterVillage@SOPlayer@@QAEHH@Z 0041db80 f   SOPlayer_Field.obj
 0001:0001cc60       ?LeaveVillage@SOPlayer@@QAEXH@Z 0041dc60 f   SOPlayer_Field.obj
 0001:0001ccf0       ?RecvThrowItem@SOPlayer@@QAEXXZ 0041dcf0 f   SOPlayer_Field.obj
 0001:0001d080       ?RecvPickUpItem@SOPlayer@@QAEXXZ 0041e080 f   SOPlayer_Field.obj
 0001:0001d510       ?RecvWearItem@SOPlayer@@QAEXXZ 0041e510 f   SOPlayer_Field.obj
 0001:0001d6b0       ?WearItem@SOPlayer@@QAEHEEGF@Z 0041e6b0 f   SOPlayer_Field.obj
 0001:0001dae0       ?RecvStripItem@SOPlayer@@QAEXXZ 0041eae0 f   SOPlayer_Field.obj
 0001:0001dc40       ?StripItem@SOPlayer@@QAEHEEGF@Z 0041ec40 f   SOPlayer_Field.obj
 0001:0001dec0       ?DisAppearItem@SOPlayer@@QAEHEEGF@Z 0041eec0 f   SOPlayer_Field.obj
 0001:0001dfd0       ?RecvVillageNation@SOPlayer@@QAEXXZ 0041efd0 f   SOPlayer_Field.obj
 0001:0001e0b0       ?RecvReadDescript@SOPlayer@@QAEXXZ 0041f0b0 f   SOPlayer_Field.obj
 0001:0001e170       ?RecvImoticon@SOPlayer@@QAEXXZ 0041f170 f   SOPlayer_Field.obj
 0001:0001e200       ?RecvSpendItem@SOPlayer@@QAEXXZ 0041f200 f   SOPlayer_Field.obj
 0001:0001e2f0       ?recvProbeArea@SOPlayer@@QAEXXZ 0041f2f0 f   SOPlayer_Field.obj
 0001:0001e470       ?RecvReqQuestSelectNPC@SOPlayer@@QAEXXZ 0041f470 f   SOPlayer_Field.obj
 0001:0001e790       ?RecvReqQuestAcceptQuest@SOPlayer@@QAEXXZ 0041f790 f   SOPlayer_Field.obj
 0001:0001ea70       ?RecvReqQuestCancelQuest@SOPlayer@@QAEXXZ 0041fa70 f   SOPlayer_Field.obj
 0001:0001ebe0       ?RecvReqQuestGetPlayQuest@SOPlayer@@QAEXXZ 0041fbe0 f   SOPlayer_Field.obj
 0001:0001ec60       ?Quest_FindPlayQuestNPC@SOPlayer@@QAEFF@Z 0041fc60 f   SOPlayer_Field.obj
 0001:0001ed00       ?Quest_CheckCompleteQuest@SOPlayer@@QAEHF@Z 0041fd00 f   SOPlayer_Field.obj
 0001:0001f250       ?Quest_CheckEventItem@SOPlayer@@QAEXF@Z 00420250 f   SOPlayer_Field.obj
 0001:0001f4c0       ?Quest_SetEventItem@SOPlayer@@QAEXFF@Z 004204c0 f   SOPlayer_Field.obj
 0001:0001f6f0       ?Quest_EndQuest@SOPlayer@@QAEXF@Z 004206f0 f   SOPlayer_Field.obj
 0001:00020c80       ?Quest_FindNextQuest@SOPlayer@@QAEFF@Z 00421c80 f   SOPlayer_Field.obj
 0001:00020e90       ?Quest_CheckPlayQuestAbility@SOPlayer@@QAEHF@Z 00421e90 f   SOPlayer_Field.obj
 0001:00021150       ?Quest_CheckSkipQuestAbility@SOPlayer@@QAEHF@Z 00422150 f   SOPlayer_Field.obj
 0001:00021370       ?Quest_FindLastPlayQuest@SOPlayer@@QAEFF@Z 00422370 f   SOPlayer_Field.obj
 0001:00021450       ?Quest_FindCompletedQuest@SOPlayer@@QAEHF@Z 00422450 f   SOPlayer_Field.obj
 0001:000214d0       ?Quest_FindEmptyQuest@SOPlayer@@QAEFXZ 004224d0 f   SOPlayer_Field.obj
 0001:00021550       ?Quest_FindQuest@SOPlayer@@QAEFF@Z 00422550 f   SOPlayer_Field.obj
 0001:000215f0       ?Quest_AllClear@SOPlayer@@QAEXXZ 004225f0 f   SOPlayer_Field.obj
 0001:000216d0       ?Quest_AddQuestObject_KillMonster@SOPlayer@@QAEXHH@Z 004226d0 f   SOPlayer_Field.obj
 0001:000218c0       ?Quest_AddQuestObject_PortalUse@SOPlayer@@QAEXH@Z 004228c0 f   SOPlayer_Field.obj
 0001:00021aa0       ?Quest_AddQuestObject_Npc@SOPlayer@@QAEXH@Z 00422aa0 f   SOPlayer_Field.obj
 0001:00021c80       ?Quest_AddQuestObject_Work@SOPlayer@@QAEXH@Z 00422c80 f   SOPlayer_Field.obj
 0001:00022100       ??0ItemBankList@@QAE@XZ    00423100 f   SOPlayer_ItemBankList.obj
 0001:00022140       ??1ItemBankList@@QAE@XZ    00423140 f   SOPlayer_ItemBankList.obj
 0001:00022170       ?SetList@ItemBankList@@QAEXIPAD@Z 00423170 f   SOPlayer_ItemBankList.obj
 0001:000221e0       ?FindItem@ItemBankList@@QAEHGG@Z 004231e0 f   SOPlayer_ItemBankList.obj
 0001:000222a0       ?TakeOutItem@ItemBankList@@QAEHGG@Z 004232a0 f   SOPlayer_ItemBankList.obj
 0001:00022400       ?PutInItem@ItemBankList@@QAEHGG@Z 00423400 f   SOPlayer_ItemBankList.obj
 0001:000224a0       ?PrintList@ItemBankList@@QAEXXZ 004234a0 f   SOPlayer_ItemBankList.obj
 0001:000224d0       ?clearCharsInfo@SOPlayer@@QAEXXZ 004234d0 f   SOPlayer_Login.obj
 0001:00022540       ?setSlot@SOPlayer@@QAEXH@Z 00423540 f   SOPlayer_Login.obj
 0001:000225a0       ?delSlot@SOPlayer@@QAEXH@Z 004235a0 f   SOPlayer_Login.obj
 0001:00022600       ?getEmptySlot@SOPlayer@@QAEHXZ 00423600 f   SOPlayer_Login.obj
 0001:00022690       ?sendCharsInfo@SOPlayer@@QAEXXZ 00423690 f   SOPlayer_Login.obj
 0001:00022780       ?ProcessLogin@SOPlayer@@QAEXXZ 00423780 f   SOPlayer_Login.obj
 0001:00023910       ?RecvLogIn@SOPlayer@@QAEXPAD@Z 00424910 f   SOPlayer_Login.obj
 0001:00023c60       ?SendLogIn@SOPlayer@@QAEXH@Z 00424c60 f   SOPlayer_Login.obj
 0001:00024460       ?LogOut@SOPlayer@@QAEXXZ   00425460 f   SOPlayer_Login.obj
 0001:000244d0       ?NotifyFriendsOfLoginState@SOPlayer@@QAEXH@Z 004254d0 f   SOPlayer_Login.obj
 0001:000248c0       ?GetgiveUpVillageCode@cltGuild@@QAEHXZ 004258c0 f i SOPlayer_Login.obj
 0001:00024900       ?SetAction@JWObject@@QAEXXZ 00425900 f i SOPlayer_Login.obj
 0001:00024960       ?RecvMoveMap@SOPlayer@@QAEXXZ 00425960 f   SOPlayer_MoveMap.obj
 0001:000252c0       ?CanJoinParty@SOPlayer@@QAEHXZ 004262c0 f   SOPlayer_Party.obj
 0001:00025380       ?CreateParty@SOPlayer@@QAEHXZ 00426380 f   SOPlayer_Party.obj
 0001:00025490       ?LeaveParty@SOPlayer@@QAEHXZ 00426490 f   SOPlayer_Party.obj
 0001:000256f0       ?GetPartyId@SOPlayer@@QAEGXZ 004266f0 f   SOPlayer_Party.obj
 0001:00025730       ?IsPartyLeader@SOPlayer@@QAEHXZ 00426730 f   SOPlayer_Party.obj
 0001:00025770       ?CanRequestJoinParty@SOPlayer@@QAEHXZ 00426770 f   SOPlayer_Party.obj
 0001:000258c0       ?CanReceiveRequestJoinParty@SOPlayer@@QAEHXZ 004268c0 f   SOPlayer_Party.obj
 0001:000259a0       ?RequestJoinParty@SOPlayer@@QAEXG@Z 004269a0 f   SOPlayer_Party.obj
 0001:00025a00       ?ReceiveRequestJoinParty@SOPlayer@@QAEXG@Z 00426a00 f   SOPlayer_Party.obj
 0001:00025a60       ?JoinParty@SOPlayer@@QAEHG@Z 00426a60 f   SOPlayer_Party.obj
 0001:00025b30       ?SetPartyLeader@SOPlayer@@QAEXXZ 00426b30 f   SOPlayer_Party.obj
 0001:00025b80       ?IsPartyMember@SOPlayer@@QAEHXZ 00426b80 f   SOPlayer_Party.obj
 0001:00025be0       ?IsRequestingJoinParty@SOPlayer@@QAEHG@Z 00426be0 f   SOPlayer_Party.obj
 0001:00025c80       ?IsReceivedRequestJoinParty@SOPlayer@@QAEHXZ 00426c80 f   SOPlayer_Party.obj
 0001:00025ce0       ?PartyDeleted@SOPlayer@@QAEXXZ 00426ce0 f   SOPlayer_Party.obj
 0001:00025d90       ?AcceptRequestingJoinParty@SOPlayer@@QAEHXZ 00426d90 f   SOPlayer_Party.obj
 0001:00025f80       ?CancelRequestingParty@SOPlayer@@QAEHH@Z 00426f80 f   SOPlayer_Party.obj
 0001:000260c0       ?RejectRequestingJoinParty@SOPlayer@@QAEHXZ 004270c0 f   SOPlayer_Party.obj
 0001:00026200       ?CloseRequestingJoinParty@SOPlayer@@QAEXXZ 00427200 f   SOPlayer_Party.obj
 0001:00026280       ?PartyChat@SOPlayer@@QAEHPAD@Z 00427280 f   SOPlayer_Party.obj
 0001:00026740       ?GetState@party_state_t@@QAE?AW4PLAYERS_PARTY_STATE@@XZ 00427740 f i SOPlayer_Party.obj
 0001:00026780       ?JoinParty@party_state_t@@QAEXGH@Z 00427780 f i SOPlayer_Party.obj
 0001:000267f0       ?SetPartyLeader@party_state_t@@QAEXXZ 004277f0 f i SOPlayer_Party.obj
 0001:00026830       ?CanJoin@CParty@@QAEHXZ    00427830 f i SOPlayer_Party.obj
 0001:00026880       ?GetLeaderId@CParty@@QAEGXZ 00427880 f i SOPlayer_Party.obj
 0001:000268c0       ?IsUsing@CParty@@QAEHXZ    004278c0 f i SOPlayer_Party.obj
 0001:00026900       ?GetInstacne@IPartyMgr@@SAPAV1@XZ 00427900 f i SOPlayer_Party.obj
 0001:00026930       ?RecvPMOpen@SOPlayer@@QAEXXZ 00427930 f   SOPlayer_PrivateMarket.obj
 0001:00026f10       ?RecvPMClose@SOPlayer@@QAEXXZ 00427f10 f   SOPlayer_PrivateMarket.obj
 0001:00027010       ?RecvPMBuyItem@SOPlayer@@QAEXXZ 00428010 f   SOPlayer_PrivateMarket.obj
 0001:00027a50       ?RecvPMReqItemInfo@SOPlayer@@QAEXXZ 00428a50 f   SOPlayer_PrivateMarket.obj
 0001:00027b80       ?RecvPMChangeItem@SOPlayer@@QAEXXZ 00428b80 f   SOPlayer_PrivateMarket.obj
 0001:00028190       ?CanBuyPMItem@SOPlayer@@QAEHEG_J@Z 00429190 f   SOPlayer_PrivateMarket.obj
 0001:00028200       ?BuyPMItem@SOPlayer@@QAEHEG_JPAGPA_JPAF@Z 00429200 f   SOPlayer_PrivateMarket.obj
 0001:00028550       ?ProcessMessage@SOPlayer@@QAEXXZ 00429550 f   SOPlayer_ProcessMessage.obj
 0001:00028900       ?ProcessMessageInField@SOPlayer@@QAEHXZ 00429900 f   SOPlayer_ProcessMessage.obj
 0001:00029230       ?ProcessMessageInVillage@SOPlayer@@QAEHXZ 0042a230 f   SOPlayer_ProcessMessage.obj
 0001:0002a200       ?ProcessMessageInBattle@SOPlayer@@QAEHXZ 0042b200 f   SOPlayer_ProcessMessage.obj
 0001:0002a4e0       ?ProcessMessageCommonly@SOPlayer@@QAEHXZ 0042b4e0 f   SOPlayer_ProcessMessage.obj
 0001:0002aab0       ?RecvRequestParty@SOPlayer@@QAEXXZ 0042bab0 f   SOPlayer_ProcessMessage.obj
 0001:0002ac80       ?RecvRequestAcceptParty@SOPlayer@@QAEXXZ 0042bc80 f   SOPlayer_ProcessMessage.obj
 0001:0002ad00       ?RecvRequestLeaveParty@SOPlayer@@QAEXXZ 0042bd00 f   SOPlayer_ProcessMessage.obj
 0001:0002ade0       ?ProcessPartyMessage@SOPlayer@@QAEHXZ 0042bde0 f   SOPlayer_ProcessMessage.obj
 0001:0002aed0       ?RecvCancelRequestParty@SOPlayer@@QAEXXZ 0042bed0 f   SOPlayer_ProcessMessage.obj
 0001:0002afa0       ?CheckGameGuard@SOPlayer@@QAEXXZ 0042bfa0 f   SOPlayer_ProcessMessage.obj
 0001:0002afd0       ?RecvRequestCheckGameGuard@SOPlayer@@QAEXXZ 0042bfd0 f   SOPlayer_ProcessMessage.obj
 0001:0002b020       ?RecvUserInfoGameGuard@SOPlayer@@QAEXXZ 0042c020 f   SOPlayer_ProcessMessage.obj
 0001:0002b3b0       ?GetSocket@XPlayer@@QAEPAVJWSocket@@XZ 0042c3b0 f i SOPlayer_ProcessMessage.obj
 0001:0002b3f0       ?SetKey@CBlackPig@@QAEXEE@Z 0042c3f0 f i SOPlayer_ProcessMessage.obj
 0001:0002b450       ?GetKey@CBlackPig@@QAEXAAE0@Z 0042c450 f i SOPlayer_ProcessMessage.obj
 0001:0002b4a0       ?GetRecvBuffer@JWSocket@@QAEPAVJWRecvBuffer@@XZ 0042c4a0 f i SOPlayer_ProcessMessage.obj
 0001:0002b4e0       ?SendFieldMsg@SOPlayer@@UAEHHHPAX00000@Z 0042c4e0 f   SOPlayer_SendFiledMsg.obj
 0001:00035170       ?RecvAskTrade@SOPlayer@@QAEXXZ 00436170 f   SOPlayer_Trade.obj
 0001:00035330       ?RecvAcceptTrade@SOPlayer@@QAEXXZ 00436330 f   SOPlayer_Trade.obj
 0001:000354c0       ?RecvCancelTrade@SOPlayer@@QAEXXZ 004364c0 f   SOPlayer_Trade.obj
 0001:000355d0       ?RecvFinishChooseTradeItem@SOPlayer@@QAEXXZ 004365d0 f   SOPlayer_Trade.obj
 0001:000357d0       ?RecvDecideTrade@SOPlayer@@QAEXXZ 004367d0 f   SOPlayer_Trade.obj
 0001:00035b50       ?RecvChangeTradeGoods@SOPlayer@@QAEXXZ 00436b50 f   SOPlayer_Trade.obj
 0001:00035d50       ?RecvCompleteTradeBook@SOPlayer@@QAEXXZ 00436d50 f   SOPlayer_Trade.obj
 0001:00035f30       ?AcceptedTrade@SOPlayer@@QAEHIHH@Z 00436f30 f   SOPlayer_Trade.obj
 0001:00036020       ?NotAcceptedTrade@SOPlayer@@QAEHXZ 00437020 f   SOPlayer_Trade.obj
 0001:000360b0       ?CancelTrade@SOPlayer@@QAEHXZ 004370b0 f   SOPlayer_Trade.obj
 0001:00036140       ?IsAcceptedTrading@SOPlayer@@QAEHG@Z 00437140 f   SOPlayer_Trade.obj
 0001:000361a0       ?IsWaitingAcceptTrade@SOPlayer@@QAEHG@Z 004371a0 f   SOPlayer_Trade.obj
 0001:00036200       ?ChooseTradeItem@SOPlayer@@QAEHXZ 00437200 f   SOPlayer_Trade.obj
 0001:00036250       ?CancelDecideTrading@SOPlayer@@QAEHXZ 00437250 f   SOPlayer_Trade.obj
 0001:000362a0       ?IsDecideTrading@SOPlayer@@QAEHG@Z 004372a0 f   SOPlayer_Trade.obj
 0001:000362f0       ?AddTradeGoods@SOPlayer@@QAEHEW4TradeGoodsKind@@JJPAUOnFollowerInfo@@PAKPAUOnIndustrialComplexTradeInfo@@@Z 004372f0 f   SOPlayer_Trade.obj
 0001:000364f0       ?CanReceiveGoods@SOPlayer@@QAEHW4TradeGoodsKind@@JJ@Z 004374f0 f   SOPlayer_Trade.obj
 0001:00036950       ?TradeGoods@SOPlayer@@QAEXPAV1@PAKPAUOnFollowerInfo@@PAG1QAG3PAD@Z 00437950 f   SOPlayer_Trade.obj
 0001:00036e40       ?TradeFollower@SOPlayer@@QAEKPAV1@GPAUOnFollowerInfo@@PAE@Z 00437e40 f   SOPlayer_Trade.obj
 0001:00036fa0       ?CloseTrade@SOPlayer@@QAEXXZ 00437fa0 f   SOPlayer_Trade.obj
 0001:000370e0       ?IsValidTradeGoods@SOPlayer@@QAEHXZ 004380e0 f   SOPlayer_Trade.obj
 0001:000372d0       ?Trade@SOPlayer@@IAEHPAV1@@Z 004382d0 f   SOPlayer_Trade.obj
 0001:00037620       ?SpendItem@SOPlayer@@QAEHEGGG@Z 00438620 f   SOPlayer_Trade.obj
 0001:00038ee0       ?GetMaxLife@_ParametaBox@@QBEHXZ 00439ee0 f i SOPlayer_Trade.obj
 0001:00038f20       ?GetMaxMana@_ParametaBox@@QBEHXZ 00439f20 f i SOPlayer_Trade.obj
 0001:00039210       ?RecvLeaveVillage@SOPlayer@@QAEXXZ 0043a210 f   SOPlayer_Village.obj
 0001:000394e0       ?RecvListItem@SOPlayer@@QAEXXZ 0043a4e0 f   SOPlayer_Village.obj
 0001:00039590       ?RecvBuyItem@SOPlayer@@QAEXXZ 0043a590 f   SOPlayer_Village.obj
 0001:00039730       ?RecvSellItem@SOPlayer@@QAEXXZ 0043a730 f   SOPlayer_Village.obj
 0001:000398a0       ?CheckWeight@SOPlayer@@QAEHEGG@Z 0043a8a0 f   SOPlayer_Village.obj
 0001:00039940       ?IsOverWeight@SOPlayer@@QAEHXZ 0043a940 f   SOPlayer_Village.obj
 0001:00039990       ?RecvBankInfo@SOPlayer@@QAEXXZ 0043a990 f   SOPlayer_Village.obj
 0001:00039a00       ?RecvBankDeposit@SOPlayer@@QAEXXZ 0043aa00 f   SOPlayer_Village.obj
 0001:00039b10       ?RecvBankDrawing@SOPlayer@@QAEXXZ 0043ab10 f   SOPlayer_Village.obj
 0001:00039c40       ?RecvEnterMarket@SOPlayer@@QAEXXZ 0043ac40 f   SOPlayer_Village.obj
 0001:00039d50       ?RecvLeaveMarket@SOPlayer@@QAEXXZ 0043ad50 f   SOPlayer_Village.obj
 0001:00039e60       ?RecvOpenSavingAccount@SOPlayer@@QAEXXZ 0043ae60 f   SOPlayer_Village.obj
 0001:0003a070       ?RecvBankbookList@SOPlayer@@QAEXXZ 0043b070 f   SOPlayer_Village.obj
 0001:0003a1f0       ?RecvBankbookListCount@SOPlayer@@QAEXXZ 0043b1f0 f   SOPlayer_Village.obj
 0001:0003a280       ?RecvBankCollateral@SOPlayer@@QAEXXZ 0043b280 f   SOPlayer_Village.obj
 0001:0003a840       ?RecvBankCollateralList@SOPlayer@@QAEXXZ 0043b840 f   SOPlayer_Village.obj
 0001:0003a980       ?RecvBankTakeCollateral@SOPlayer@@QAEXXZ 0043b980 f   SOPlayer_Village.obj
 0001:0003abe0       ?RecvBarrackGetSolderList@SOPlayer@@QAEXXZ 0043bbe0 f   SOPlayer_Village.obj
 0001:0003acd0       ?RecvBarrackBuySolder@SOPlayer@@QAEXXZ 0043bcd0 f   SOPlayer_Village.obj
 0001:0003ae10       ?RecvBarrackGetDismissalSolderList@SOPlayer@@QAEXXZ 0043be10 f   SOPlayer_Village.obj
 0001:0003af00       ?RecvBarrackDismissalSolder@SOPlayer@@QAEXXZ 0043bf00 f   SOPlayer_Village.obj
 0001:0003b040       ?RecvGBarrackGetSolderList@SOPlayer@@QAEXXZ 0043c040 f   SOPlayer_Village.obj
 0001:0003b130       ?RecvGBarrackBuySolder@SOPlayer@@QAEXXZ 0043c130 f   SOPlayer_Village.obj
 0001:0003b270       ?RecvGBarrackGetChangeJobSolderList@SOPlayer@@QAEXXZ 0043c270 f   SOPlayer_Village.obj
 0001:0003b360       ?RecvGBarrackChangeJobSolder@SOPlayer@@QAEXXZ 0043c360 f   SOPlayer_Village.obj
 0001:0003b4a0       ?RecvGBarrackGetDismissalSolderList@SOPlayer@@QAEXXZ 0043c4a0 f   SOPlayer_Village.obj
 0001:0003b590       ?RecvGBarrackDismissalSolder@SOPlayer@@QAEXXZ 0043c590 f   SOPlayer_Village.obj
 0001:0003b6d0       ?RecvGBarrackGetGeneralExList@SOPlayer@@QAEXXZ 0043c6d0 f   SOPlayer_Village.obj
 0001:0003b7c0       ?RecvGBarrackBuyGeneralEx@SOPlayer@@QAEXXZ 0043c7c0 f   SOPlayer_Village.obj
 0001:0003b900       ?RecvGBarrackGetChangeGeneralExList@SOPlayer@@QAEXXZ 0043c900 f   SOPlayer_Village.obj
 0001:0003b9f0       ?RecvGBarrackChangeGeneralEx@SOPlayer@@QAEXXZ 0043c9f0 f   SOPlayer_Village.obj
 0001:0003bb30       ?RecvGBarrackGetDismissalGeneralExList@SOPlayer@@QAEXXZ 0043cb30 f   SOPlayer_Village.obj
 0001:0003bc20       ?RecvGBarrackDismissalGeneralEx@SOPlayer@@QAEXXZ 0043cc20 f   SOPlayer_Village.obj
 0001:0003bd60       ?RecvMBarrackGetMonsterList@SOPlayer@@QAEXXZ 0043cd60 f   SOPlayer_Village.obj
 0001:0003be50       ?RecvMBarrackBuyMonster@SOPlayer@@QAEXXZ 0043ce50 f   SOPlayer_Village.obj
 0001:0003bf90       ?RecvMBarrackGetDismissMonsterList@SOPlayer@@QAEXXZ 0043cf90 f   SOPlayer_Village.obj
 0001:0003c080       ?RecvMBarrackDismissMonster@SOPlayer@@QAEXXZ 0043d080 f   SOPlayer_Village.obj
 0001:0003c1c0       ?GetBankBootNum@SOPlayer@@QAEHXZ 0043d1c0 f   SOPlayer_Village.obj
 0001:0003c230       ?RecvMaxCreditLoan@SOPlayer@@QAEXXZ 0043d230 f   SOPlayer_Village.obj
 0001:0003c360       ?RecvHospitalGetCureList@SOPlayer@@QAEXXZ 0043d360 f   SOPlayer_Village.obj
 0001:0003c400       ?RecvHospitalCureSolder@SOPlayer@@QAEXXZ 0043d400 f   SOPlayer_Village.obj
 0001:0003c4f0       ?RecvHospitalCureAllSolder@SOPlayer@@QAEXXZ 0043d4f0 f   SOPlayer_Village.obj
 0001:0003c5d0       ?RecvWharfEnter@SOPlayer@@QAEXXZ 0043d5d0 f   SOPlayer_Village.obj
 0001:0003c670       ?RecvWharfBuyTicket@SOPlayer@@QAEXXZ 0043d670 f   SOPlayer_Village.obj
 0001:0003c730       ?RecvWharfExit@SOPlayer@@QAEXXZ 0043d730 f   SOPlayer_Village.obj
 0001:0003c7d0       ?RecvWharfWaitRoomEnter@SOPlayer@@QAEXXZ 0043d7d0 f   SOPlayer_Village.obj
 0001:0003c870       ?RecvWharfWaitRoomExit@SOPlayer@@QAEXXZ 0043d870 f   SOPlayer_Village.obj
 0001:0003c910       ?WharfGetDB@SOPlayer@@QAEXXZ 0043d910 f   SOPlayer_Village.obj
 0001:0003c9a0       ?RecvGovernmentEnter@SOPlayer@@QAEXXZ 0043d9a0 f   SOPlayer_Village.obj
 0001:0003ca10       ?RecvGovernmentLeave@SOPlayer@@QAEXXZ 0043da10 f   SOPlayer_Village.obj
 0001:0003ca80       ?RecvGovernmentInvestmentEnter@SOPlayer@@QAEXXZ 0043da80 f   SOPlayer_Village.obj
 0001:0003cb30       ?RecvGovernmentInvestmentLeave@SOPlayer@@QAEXXZ 0043db30 f   SOPlayer_Village.obj
 0001:0003cbd0       ?RecvGovernmentInvestmentGetList@SOPlayer@@QAEXXZ 0043dbd0 f   SOPlayer_Village.obj
 0001:0003cd20       ?RecvGovernmentInvestmentSetInvestment@SOPlayer@@QAEXXZ 0043dd20 f   SOPlayer_Village.obj
 0001:0003ce20       ?RecvWriteDescript@SOPlayer@@QAEXXZ 0043de20 f   SOPlayer_Village.obj
 0001:0003cf70       ?RecvGovernmentVillageInfo@SOPlayer@@QAEXXZ 0043df70 f   SOPlayer_Village.obj
 0001:0003cfd0       ?RecvGovernmentInvestmentGetOut@SOPlayer@@QAEXXZ 0043dfd0 f   SOPlayer_Village.obj
 0001:0003d060       ?RecvProfitStatistics@SOPlayer@@QAEXXZ 0043e060 f   SOPlayer_Village.obj
 0001:0003d100       ?RecvReqMaxVillageDefenceInvestment@SOPlayer@@QAEXXZ 0043e100 f   SOPlayer_Village.obj
 0001:0003d170       ?RecvReqSetVillageDefenceInvestment@SOPlayer@@QAEXXZ 0043e170 f   SOPlayer_Village.obj
 0001:0003d200       ?RecvReqGuildCreateCost@SOPlayer@@QAEXXZ 0043e200 f   SOPlayer_Village.obj
 0001:0003d290       ?RecvCreateGuild@SOPlayer@@QAEXXZ 0043e290 f   SOPlayer_Village.obj
 0001:0003d560       ?RecvDeleteGuild@SOPlayer@@QAEXXZ 0043e560 f   SOPlayer_Village.obj
 0001:0003d750       ?RecvJoinLeaveGuild@SOPlayer@@QAEXXZ 0043e750 f   SOPlayer_Village.obj
 0001:0003daf0       ?RecvReqGuildWaitingJoinMembersList@SOPlayer@@QAEXXZ 0043eaf0 f   SOPlayer_Village.obj
 0001:0003dc10       ?RecvJoinGuildOkNo@SOPlayer@@QAEXXZ 0043ec10 f   SOPlayer_Village.obj
 0001:0003de80       ?RecvGuildDetailInfo@SOPlayer@@QAEXXZ 0043ee80 f   SOPlayer_Village.obj
 0001:0003df90       ?RecvReqGuildMembersList@SOPlayer@@QAEXXZ 0043ef90 f   SOPlayer_Village.obj
 0001:0003e0a0       ?RecvGuildDismissal@SOPlayer@@QAEXXZ 0043f0a0 f   SOPlayer_Village.obj
 0001:0003e2b0       ?RecvReqGuildPromotion@SOPlayer@@QAEXXZ 0043f2b0 f   SOPlayer_Village.obj
 0001:0003e580       ?RecvReqGuildDemotion@SOPlayer@@QAEXXZ 0043f580 f   SOPlayer_Village.obj
 0001:0003e7f0       ?RecvGuildList@SOPlayer@@QAEXXZ 0043f7f0 f   SOPlayer_Village.obj
 0001:0003e860       ?SetGuild@SOPlayer@@QAEXI@Z 0043f860 f   SOPlayer_Village.obj
 0001:0003e910       ?SetClassInGuild@SOPlayer@@QAEXH@Z 0043f910 f   SOPlayer_Village.obj
 0001:0003e950       ?GetClassInGuild@SOPlayer@@QAEHXZ 0043f950 f   SOPlayer_Village.obj
 0001:0003e990       ?RecvGuildChangeFlag@SOPlayer@@QAEXXZ 0043f990 f   SOPlayer_Village.obj
 0001:0003eb50       ?RecvReqUsedFlagList@SOPlayer@@QAEXXZ 0043fb50 f   SOPlayer_Village.obj
 0001:0003ebe0       ?RecvEnterStructure@SOPlayer@@QAEXXZ 0043fbe0 f   SOPlayer_Village.obj
 0001:0003ed20       ?RecvLeaveStructure@SOPlayer@@QAEXXZ 0043fd20 f   SOPlayer_Village.obj
 0001:0003ee30       ?RecvEnterFactory@SOPlayer@@QAEXXZ 0043fe30 f   SOPlayer_Village.obj
 0001:0003ef00       ?RecvLeaveFactory@SOPlayer@@QAEXXZ 0043ff00 f   SOPlayer_Village.obj
 0001:0003efb0       ?RecvBankSave@SOPlayer@@QAEXXZ 0043ffb0 f   SOPlayer_Village.obj
 0001:0003f0e0       ?RecvBankWithdraw@SOPlayer@@QAEXXZ 004400e0 f   SOPlayer_Village.obj
 0001:0003f210       ?RecvItemList@SOPlayer@@QAEXXZ 00440210 f   SOPlayer_Village.obj
 0001:0003f330       ?RecvTakeOutItem@SOPlayer@@QAEXXZ 00440330 f   SOPlayer_Village.obj
 0001:0003f520       ?RecvSaveItemIntoItemBank@SOPlayer@@QAEXXZ 00440520 f   SOPlayer_Village.obj
 0001:0003f720       ?RecvRequestPersonalInfo@SOPlayer@@QAEXXZ 00440720 f   SOPlayer_Village.obj
 0001:0003f880       ?OnUseDonkeyItem@SOPlayer@@QAEHEG@Z 00440880 f   SOPlayer_Village.obj
 0001:0003fe70       ?GetCharHeader@OnlineCharParser@@QAEPAUCharHead@@F@Z 00440e70 f i SOPlayer_Village.obj
 0001:0003fec0       ??A?$vector@UCharHead@@V?$allocator@UCharHead@@@std@@@std@@QAEAAUCharHead@@I@Z 00440ec0 f i SOPlayer_Village.obj
 0001:0003ff10       ?GetCharTotalNum@OnlineCharParser@@QAEFXZ 00440f10 f i SOPlayer_Village.obj
 0001:0003ff60       ?size@?$vector@UCharHead@@V?$allocator@UCharHead@@@std@@@std@@QBEIXZ 00440f60 f i SOPlayer_Village.obj
 0001:0003ffd0       ?begin@?$vector@UCharHead@@V?$allocator@UCharHead@@@std@@@std@@QAEPAUCharHead@@XZ 00440fd0 f i SOPlayer_Village.obj
 0001:00040010       ?GetList@ItemBankList@@QAEPADXZ 00441010 f i SOPlayer_Village.obj
 0001:00040050       ?GetItemCount@ItemBankList@@QAEIXZ 00441050 f i SOPlayer_Village.obj
 0001:00040120       ?RecvFieldAttackReady@SOPlayer@@QAEXXZ 00441120 f   SOPlayer_War.obj
 0001:00040370       ?RecvFieldAttackAction@SOPlayer@@QAEXXZ 00441370 f   SOPlayer_War.obj
 0001:00040a20       ?RecvFieldAttackDead@SOPlayer@@QAEXXZ 00441a20 f   SOPlayer_War.obj
 0001:00040cc0       ?RecvLongDistanceAttackVillageReady@SOPlayer@@QAEXXZ 00441cc0 f   SOPlayer_War.obj
 0001:00040ec0       ?RecvLongDistanceAttackVillageAction@SOPlayer@@QAEXXZ 00441ec0 f   SOPlayer_War.obj
 0001:00041070       ?RecvAttackVillage@SOPlayer@@QAEXXZ 00442070 f   SOPlayer_War.obj
 0001:00041220       ?RecvReqWarVillageDefence@SOPlayer@@QAEXXZ 00442220 f   SOPlayer_War.obj
 0001:00041790       ?RecvReqWarVillageIn@SOPlayer@@QAEXXZ 00442790 f   SOPlayer_War.obj
 0001:000418b0       ?RecvReqWarVillageDefenceStop@SOPlayer@@QAEXXZ 004428b0 f   SOPlayer_War.obj
 0001:00041a60       ?RecvPlayerVillageDefenceUp@SOPlayer@@QAEXXZ 00442a60 f   SOPlayer_War.obj
 0001:00041db0       ?RecvIncreaseGuildUnit@SOPlayer@@QAEXXZ 00442db0 f   SOPlayer_War.obj
 0001:000421c0       ?RecvDecreaseGuildUnit@SOPlayer@@QAEXXZ 004431c0 f   SOPlayer_War.obj
 0001:000425d0       ?RecvGetGuildUnitList@SOPlayer@@QAEXXZ 004435d0 f   SOPlayer_War.obj
 0001:00042710       ?RecvHeal@SOPlayer@@QAEXXZ 00443710 f   SOPlayer_War.obj
 0001:00042970       ?RecvChargeMP@SOPlayer@@QAEXXZ 00443970 f   SOPlayer_War.obj
 0001:00042a90       ?RecvGuildSetRelation@SOPlayer@@QAEXXZ 00443a90 f   SOPlayer_War.obj
 0001:00042c10       ?RecvFriendlyMessageOffer@SOPlayer@@QAEXXZ 00443c10 f   SOPlayer_War.obj
 0001:00042d20       ?RecvFriendlyMessageAccept@SOPlayer@@QAEXXZ 00443d20 f   SOPlayer_War.obj
 0001:00042dd0       ?RecvFreidnlyMessageCancel@SOPlayer@@QAEXXZ 00443dd0 f   SOPlayer_War.obj
 0001:00042e80       ?RecvVillageAttackResult@SOPlayer@@QAEXXZ 00443e80 f   SOPlayer_War.obj
 0001:00042fd0       ?RecvChoicePlayer@SOPlayer@@QAEXXZ 00443fd0 f   SOPlayer_War.obj
 0001:000432c0       ?RecvInvestmentPower@SOPlayer@@QAEXXZ 004442c0 f   SOPlayer_War.obj
 0001:00043450       ?RecvWarWarp@SOPlayer@@QAEXXZ 00444450 f   SOPlayer_War.obj
 0001:00043560       ?RecvNormalChar@SOPlayer@@QAEXXZ 00444560 f   SOPlayer_War.obj
 0001:000435d0       ?RecvChangeUnit@SOPlayer@@QAEXXZ 004445d0 f   SOPlayer_War.obj
 0001:00043680       ?GetFieldHp@SOPlayer@@QAEFXZ 00444680 f   SOPlayer_War.obj
 0001:000436c0       ?SetFieldHp@SOPlayer@@QAEXF@Z 004446c0 f   SOPlayer_War.obj
 0001:00043710       ?GetFieldMaxHP@SOPlayer@@QAEFXZ 00444710 f   SOPlayer_War.obj
 0001:00043750       ?SetFieldMaxHP@SOPlayer@@QAEXF@Z 00444750 f   SOPlayer_War.obj
 0001:000437a0       ?IncreaseFieldHp@SOPlayer@@QAEXF@Z 004447a0 f   SOPlayer_War.obj
 0001:000437f0       ?DecreaseFieldHp@SOPlayer@@QAEXF@Z 004447f0 f   SOPlayer_War.obj
 0001:00043870       ?IsFieldAlive@SOPlayer@@QAEHXZ 00444870 f   SOPlayer_War.obj
 0001:000438c0       ?GetFieldMP@SOPlayer@@QAEHXZ 004448c0 f   SOPlayer_War.obj
 0001:00043900       ?SetFieldMP@SOPlayer@@QAEXH@Z 00444900 f   SOPlayer_War.obj
 0001:00043950       ?GetFieldMaxMP@SOPlayer@@QAEFXZ 00444950 f   SOPlayer_War.obj
 0001:00043990       ?SetFieldMaxMP@SOPlayer@@QAEXH@Z 00444990 f   SOPlayer_War.obj
 0001:000439e0       ?IncreaseFieldMP@SOPlayer@@QAEXF@Z 004449e0 f   SOPlayer_War.obj
 0001:00043a70       ?DecreaseFieldMP@SOPlayer@@QAEXF@Z 00444a70 f   SOPlayer_War.obj
 0001:00043b00       ?SetPrevKind@SOPlayer@@QAEXG@Z 00444b00 f   SOPlayer_War.obj
 0001:00043b50       ?GetPrevKind@SOPlayer@@QAEGXZ 00444b50 f   SOPlayer_War.obj
 0001:00043b90       ?SetCaptainUnit@SOPlayer@@QAEXH@Z 00444b90 f   SOPlayer_War.obj
 0001:00043bd0       ?GetCaptainUnit@SOPlayer@@QAEHXZ 00444bd0 f   SOPlayer_War.obj
 0001:00043c10       ?IsFieldAliveWarUnit@SOPlayer@@QAEHXZ 00444c10 f   SOPlayer_War.obj
 0001:00043c50       ?SendGuildItemDeleteMessage@SOPlayer@@QAEXXZ 00444c50 f   SOPlayer_War.obj
 0001:00043f30       ?ChangeUnit@SOPlayer@@QAEGGG@Z 00444f30 f   SOPlayer_War.obj
 0001:00044570       ?GetDir@SOPlayer@@QAEGHHHH@Z 00445570 f   SOPlayer_War.obj
 0001:00044670       ?GetSpTargetIDOFSpear@SOPlayer@@QAEGGHHPAG@Z 00445670 f   SOPlayer_War.obj
 0001:00044af0       ?GetSpTargetIDOFSiege@SOPlayer@@QAEHHHHHPAG@Z 00445af0 f   SOPlayer_War.obj
 0001:00044b70       ?ChangeNormalChar@SOPlayer@@QAEXXZ 00445b70 f   SOPlayer_War.obj
 0001:00044d50       ?FieldAttackDead@SOPlayer@@QAEHXZ 00445d50 f   SOPlayer_War.obj
 0001:00044f90       ?RecvGiveUp@SOPlayer@@QAEXXZ 00445f90 f   SOPlayer_War.obj
 0001:00045420       ?IsWar@cltGuild@@QAEHXZ    00446420 f i SOPlayer_War.obj
 0001:000454f0       ??0IMonster@@QAE@XZ        004464f0 f   ISOMonster.obj
 0001:00045570       ??1IMonster@@QAE@XZ        00446570 f   ISOMonster.obj
 0001:00045610       ?Init@IMonster@@QAEXPAVSOWorld@@@Z 00446610 f   ISOMonster.obj
 0001:00045650       ?CreateMonster@IMonster@@QAEHHGPAUtagRECT@@GQAGQAH@Z 00446650 f   ISOMonster.obj
 0001:000457d0       ?CreateMonster@IMonster@@QAEHGHHGQAGQAH@Z 004467d0 f   ISOMonster.obj
 0001:000458e0       ?Free@IMonster@@QAEXXZ     004468e0 f   ISOMonster.obj
 0001:00045990       ?Free@IMonster@@QAEXGH@Z   00446990 f   ISOMonster.obj
 0001:00045a10       ?Action@IMonster@@QAEXG@Z  00446a10 f   ISOMonster.obj
 0001:00045ab0       ?FindAccount@IMonster@@AAEGXZ 00446ab0 f   ISOMonster.obj
 0001:00045ba0       ?GetInfo@IMonster@@QAEXGPAUOnCharMonsterInfo@@@Z 00446ba0 f   ISOMonster.obj
 0001:00045c20       ?IsValidID@IMonster@@QAEHG@Z 00446c20 f   ISOMonster.obj
 0001:00045cd0       ?DeadChar@IMonster@@QAEXGH@Z 00446cd0 f   ISOMonster.obj
 0001:00045d30       ?GetStatus@IMonster@@QAEFG@Z 00446d30 f   ISOMonster.obj
 0001:00045dc0       ?GetFightPower@IMonster@@QAEHG@Z 00446dc0 f   ISOMonster.obj
 0001:00045e40       ?Warp@IMonster@@QAEHGGHH@Z 00446e40 f   ISOMonster.obj
 0001:00045f00       ?GetKind@IMonster@@QAEGG@Z 00446f00 f   ISOMonster.obj
 0001:00045f90       ?GetPos@IMonster@@QAEXGPAGPAUtagPOINT@@@Z 00446f90 f   ISOMonster.obj
 0001:00046020       ?GetMonster@IMonster@@QAEPAVMonster@@G@Z 00447020 f   ISOMonster.obj
 0001:000460a0       ?GetFieldID@IMonster@@QAEHG@Z 004470a0 f   ISOMonster.obj
 0001:00046120       ?DidSendMoveInfo@IMonster@@QAEEG@Z 00447120 f   ISOMonster.obj
 0001:000461a0       ?CheckInvalidChar@IMonster@@QAEHPAD@Z 004471a0 f   ISOMonster.obj
 0001:000462d0       ?GetTotalMonsterNum@IMonster@@QAEKXZ 004472d0 f   ISOMonster.obj
 0001:00046620       ??0Monster@@QAE@XZ         00447620 f   SOMonster.obj
 0001:00046780       ??_GMonster@@UAEPAXI@Z     00447780 f i SOMonster.obj
 0001:00046780       ??_EMonster@@UAEPAXI@Z     00447780 f i SOMonster.obj
 0001:000467f0       ??1Monster@@UAE@XZ         004477f0 f   SOMonster.obj
 0001:000468b0       ?Init@Monster@@UAEXXZ      004478b0 f   SOMonster.obj
 0001:00046910       ?Init@Monster@@QAEXHGGFFPAUtagRECT@@GQAGQAH@Z 00447910 f   SOMonster.obj
 0001:00047030       ?Free@Monster@@QAEXH@Z     00448030 f   SOMonster.obj
 0001:000470f0       ?IsValidCharID@Monster@@QAEHE@Z 004480f0 f   SOMonster.obj
 0001:00047150       ?GetInfo@Monster@@QAEXPAUOnCharMonsterInfo@@@Z 00448150 f   SOMonster.obj
 0001:000471b0       ?Warp@Monster@@UAEHGHH@Z   004481b0 f   SOMonster.obj
 0001:00047280       ?PrepareBattle@Monster@@UAEXXZ 00448280 f   SOMonster.obj
 0001:00047350       ?EndBattle@Monster@@UAEXXZ 00448350 f   SOMonster.obj
 0001:00047510       ?GetFieldID@Monster@@QAEHXZ 00448510 f   SOMonster.obj
 0001:00047550       ?isMonsterInField@Monster@@AAE_NXZ 00448550 f   SOMonster.obj
 0001:000475a0       ?isPosInMyArea@Monster@@AAE_NHH@Z 004485a0 f   SOMonster.obj
 0001:00047640       ?getTargetNextPos@Monster@@AAE?AUtagPOINT@@XZ 00448640 f   SOMonster.obj
 0001:000477e0       ?getAvoidNextPos@Monster@@AAE?AUtagPOINT@@XZ 004487e0 f   SOMonster.obj
 0001:00047980       ?getEmptyNextPos@Monster@@AAE?AUtagPOINT@@XZ 00448980 f   SOMonster.obj
 0001:00047ce0       ?getRandomNextPos@Monster@@AAE?AUtagPOINT@@XZ 00448ce0 f   SOMonster.obj
 0001:00047f70       ?checkEnemyToArround@Monster@@AAEPAVSOPlayer@@XZ 00448f70 f   SOMonster.obj
 0001:00048080       ?checkActionDelay@Monster@@AAE_NXZ 00449080 f   SOMonster.obj
 0001:00048100       ?normalState@Monster@@AAEXXZ 00449100 f   SOMonster.obj
 0001:00048160       ?Attack@Monster@@AAEXXZ    00449160 f   SOMonster.obj
 0001:000482f0       ?Move@Monster@@AAEXUtagPOINT@@@Z 004492f0 f   SOMonster.obj
 0001:00048380       ?lostEnemy@Monster@@AAEXXZ 00449380 f   SOMonster.obj
 0001:00048420       ?seenEnemy@Monster@@AAEXPAVSOPlayer@@@Z 00449420 f   SOMonster.obj
 0001:00048510       ?Action@Monster@@QAEXXZ    00449510 f   SOMonster.obj
 0001:000486f0       ?SetCurExp@_ImportantParameta@@QAEXH@Z 004496f0 f i SOMonster.obj
 0001:00048770       ?SetStr@_ImportantParameta@@QAEXH@Z 00449770 f i SOMonster.obj
 0001:000487e0       ?SetDex@_ImportantParameta@@QAEXH@Z 004497e0 f i SOMonster.obj
 0001:00048850       ?SetVit@_ImportantParameta@@QAEXH@Z 00449850 f i SOMonster.obj
 0001:000488c0       ?SetInt@_ImportantParameta@@QAEXH@Z 004498c0 f i SOMonster.obj
 0001:00048be0       ??0CState@@QAE@XZ          00449be0 f   State.obj
 0001:00048c60       ??1CState@@QAE@XZ          00449c60 f   State.obj
 0001:00048c90       ?addTransitionState@CState@@QAEXKK@Z 00449c90 f   State.obj
 0001:00048d10       ?delTransitionState@CState@@QAEXKK@Z 00449d10 f   State.obj
 0001:00048e00       ?getTransitionState@CState@@QAEKK@Z 00449e00 f   State.obj
 0001:00048e80       ?getState@CState@@QAEKXZ   00449e80 f   State.obj
 0001:00048ec0       ?setState@CState@@QAEXK@Z  00449ec0 f   State.obj
 0001:00048f00       ??0CStateMgr@@QAE@XZ       00449f00 f   StateMgr.obj
 0001:00048f70       ??1CStateMgr@@QAE@XZ       00449f70 f   StateMgr.obj
 0001:00048fc0       ?addState@CStateMgr@@QAEXAAVCState@@@Z 00449fc0 f   StateMgr.obj
 0001:00049040       ?delState@CStateMgr@@QAEXK@Z 0044a040 f   StateMgr.obj
 0001:00049120       ?getCurState@CStateMgr@@QAEKXZ 0044a120 f   StateMgr.obj
 0001:00049160       ?setCurState@CStateMgr@@QAEXK@Z 0044a160 f   StateMgr.obj
 0001:000491a0       ?transitionState@CStateMgr@@QAEXK@Z 0044a1a0 f   StateMgr.obj
 0001:00049250       ??0BaseChar@@QAE@XZ        0044a250 f   SOBaseChar.obj
 0001:00049300       ??_EBaseChar@@UAEPAXI@Z    0044a300 f i SOBaseChar.obj
 0001:00049300       ??_GBaseChar@@UAEPAXI@Z    0044a300 f i SOBaseChar.obj
 0001:00049370       ??1BaseChar@@UAE@XZ        0044a370 f   SOBaseChar.obj
 0001:00049410       ?InitStaticVariable@BaseChar@@SAXPAVSOWorld@@@Z 0044a410 f   SOBaseChar.obj
 0001:00049460       ?IsValidID@BaseChar@@SAHG@Z 0044a460 f   SOBaseChar.obj
 0001:000495e0       ?SetIDOnMap@BaseChar@@QAEHH@Z 0044a5e0 f   SOBaseChar.obj
 0001:00049690       ?DelIDOnMap@BaseChar@@QAEHH@Z 0044a690 f   SOBaseChar.obj
 0001:00049720       ?GetID@BaseChar@@QAEPADXZ  0044a720 f   SOBaseChar.obj
 0001:00049760       ?MakeOnReceivedPlayerInfoPacket@BaseChar@@QAEHPADHPAG1H@Z 0044a760 f   SOBaseChar.obj
 0001:00049a70       ?GetInfo@BaseChar@@QAEXPAUOnCharBaseInfo@@@Z 0044aa70 f   SOBaseChar.obj
 0001:00049af0       ?Init@BaseChar@@UAEXGGFFGPAD@Z 0044aaf0 f   SOBaseChar.obj
 0001:00049cd0       ?Init@BaseChar@@UAEXXZ     0044acd0 f   SOBaseChar.obj
 0001:00049d90       ?Warp@BaseChar@@UAEHGHH@Z  0044ad90 f   SOBaseChar.obj
 0001:00049ee0       ?GetKind@BaseChar@@QAEGXZ  0044aee0 f   SOBaseChar.obj
 0001:00049f20       ?GetPos@BaseChar@@QAEXPAGPAUtagPOINT@@@Z 0044af20 f   SOBaseChar.obj
 0001:00049f80       ?GetStatus@BaseChar@@QAEFXZ 0044af80 f   SOBaseChar.obj
 0001:00049fc0       ?GetFightingPower@BaseChar@@QAEHXZ 0044afc0 f   SOBaseChar.obj
 0001:0004a070       ?IsValid@BaseChar@@QAEHXZ  0044b070 f   SOBaseChar.obj
 0001:0004a0c0       ?GetItemList@BaseChar@@QAEPAUMyItemData@@E@Z 0044b0c0 f   SOBaseChar.obj
 0001:0004a130       ?AddItem@BaseChar@@QAEPAUMyItemData@@EGGFH@Z 0044b130 f   SOBaseChar.obj
 0001:0004a300       ?AddItemNoQuery@BaseChar@@QAEPAUMyItemData@@EGGF@Z 0044b300 f   SOBaseChar.obj
 0001:0004a410       ?AddItem@BaseChar@@QAEPAUMyItemData@@EGG@Z 0044b410 f   SOBaseChar.obj
 0001:0004a5c0       ?AddItemNoQuery@BaseChar@@QAEPAUMyItemData@@EGG@Z 0044b5c0 f   SOBaseChar.obj
 0001:0004a6c0       ?DelItem@BaseChar@@QAEPAUMyItemData@@EGGF@Z 0044b6c0 f   SOBaseChar.obj
 0001:0004a8a0       ?DelItemNoQuery@BaseChar@@QAEPAUMyItemData@@EGGF@Z 0044b8a0 f   SOBaseChar.obj
 0001:0004a9c0       ?DelItemNoQuery@BaseChar@@QAEPAUMyItemData@@EGG@Z 0044b9c0 f   SOBaseChar.obj
 0001:0004aad0       ?FindDeleteItem@BaseChar@@QAEXGHPAFPAUMercenaryItemData@@@Z 0044bad0 f   SOBaseChar.obj
 0001:0004ace0       ?FindDeleteItemNoQuery@BaseChar@@QAEXGHPAFPAUMercenaryItemData@@@Z 0044bce0 f   SOBaseChar.obj
 0001:0004aef0       ?GetItem@BaseChar@@QAEPAUMyItemData@@EG@Z 0044bef0 f   SOBaseChar.obj
 0001:0004af50       ?CanAddItem@BaseChar@@QAEHEPAG0G@Z 0044bf50 f   SOBaseChar.obj
 0001:0004afb0       ?GetAllFollowerInfo@BaseChar@@QAEKPAUOnFollowerInfo@@PAG@Z 0044bfb0 f   SOBaseChar.obj
 0001:0004b080       ?GetFollowerInfo@BaseChar@@QAEKEPAUOnFollowerInfo@@@Z 0044c080 f   SOBaseChar.obj
 0001:0004b440       ?DeleteFollower@BaseChar@@QAEHE@Z 0044c440 f   SOBaseChar.obj
 0001:0004b4c0       ?SetMoved@BaseChar@@QAEXXZ 0044c4c0 f   SOBaseChar.obj
 0001:0004b500       ?DidSendMoveInfo@BaseChar@@QAEEXZ 0044c500 f   SOBaseChar.obj
 0001:0004b550       ?GiveItem@BaseChar@@QAEHEGGPAV1@EPAF1@Z 0044c550 f   SOBaseChar.obj
 0001:0004b620       ?HasItem@BaseChar@@QAEHEGGF@Z 0044c620 f   SOBaseChar.obj
 0001:0004b6e0       ?SetAttackMode@BaseChar@@QAEXH@Z 0044c6e0 f   SOBaseChar.obj
 0001:0004b720       ?GetAttackMode@BaseChar@@QAEHXZ 0044c720 f   SOBaseChar.obj
 0001:0004ba10       ?PrepareBattle@BaseChar@@UAEXXZ 0044ca10 f   SOBaseChar_Battle.obj
 0001:0004bb70       ?EndBattle@BaseChar@@UAEXXZ 0044cb70 f   SOBaseChar_Battle.obj
 0001:0004bbd0       ?CancelBattle@BaseChar@@QAEXXZ 0044cbd0 f   SOBaseChar_Battle.obj
 0001:0004bc50       ?GetBaseCharFromID@BaseChar@@AAEPAV1@H@Z 0044cc50 f   SOBaseChar_Battle.obj
 0001:0004bd40       ?IsAdminPlayer@BaseChar@@AAE_NH@Z 0044cd40 f   SOBaseChar_Battle.obj
 0001:0004bdd0       ?AddToBattle@BaseChar@@AAE_NH@Z 0044cdd0 f   SOBaseChar_Battle.obj
 0001:0004be80       ?CheckJustBattle@BaseChar@@AAEXH@Z 0044ce80 f   SOBaseChar_Battle.obj
 0001:0004c0c0       ?IsInShip@BaseChar@@AAE_NH@Z 0044d0c0 f   SOBaseChar_Battle.obj
 0001:0004c160       ?PickBattleWithEnemy@BaseChar@@IAE_NH@Z 0044d160 f   SOBaseChar_Battle.obj
 0001:0004c7f0       ?SetBattleKey@BaseChar@@AAEXH@Z 0044d7f0 f i SOBaseChar_Battle.obj
 0001:0004c830       ?SendFieldMsg@BaseChar@@UAEHHHPAX00000@Z 0044d830 f   SOBaseChar_SendFiledMsg.obj
 0001:0004d060       ?SendMsg@BaseChar@@UAEXHPADFHQAGH@Z 0044e060 f   SOBaseChar_SendFiledMsg.obj
 0001:0004d670       ??0SOServer@@QAE@XZ        0044e670 f   SOServer.obj
 0001:0004e0d0       ??1SOServer@@QAE@XZ        0044f0d0 f   SOServer.obj
 0001:0004e4d0       ??_GSOGate@@QAEPAXI@Z      0044f4d0 f i SOServer.obj
 0001:0004e540       ??_GSOWorld@@QAEPAXI@Z     0044f540 f i SOServer.obj
 0001:0004e5b0       ?Init@SOServer@@QAEXXZ     0044f5b0 f   SOServer.obj
 0001:0004e680       ?OpenConsole@SOServer@@QAEXXZ 0044f680 f   SOServer.obj
 0001:0004e6f0       ?CloseConsole@SOServer@@QAEXXZ 0044f6f0 f   SOServer.obj
 0001:0004e760       ?Poll@SOServer@@QAEHXZ     0044f760 f   SOServer.obj
 0001:0004eee0       ?ProcessConsole@SOServer@@QAEHXZ 0044fee0 f   SOServer.obj
 0001:0004f210       ?WriteBinary@SOServer@@QAEXPADPBDH@Z 00450210 f   SOServer.obj
 0001:0004f2a0       ?ProcPacketPlayer@SOServer@@QAEXPAVXPlayer@@@Z 004502a0 f   SOServer.obj
 0001:0004f310       ?NewPlayer@SOServer@@QAEXPAVXPlayer@@@Z 00450310 f   SOServer.obj
 0001:0004f430       ?LogOutPlayer@SOServer@@QAEXG@Z 00450430 f   SOServer.obj
 0001:0004f4f0       ?LogOutPlayer@SOServer@@QAEXPAVXPlayer@@@Z 004504f0 f   SOServer.obj
 0001:0004f540       ?CompleteLogOut@SOServer@@QAEXPAVXPlayer@@@Z 00450540 f   SOServer.obj
 0001:0004f650       ?LogOutPlayerAll@SOServer@@QAEXXZ 00450650 f   SOServer.obj
 0001:0004f700       ?__LogOutPlayer@SOServer@@QAEXPAVXPlayer@@@Z 00450700 f   SOServer.obj
 0001:0004f840       ?ProcPacketMonitor@SOServer@@QAEXPAVXMonitor@@@Z 00450840 f   SOServer.obj
 0001:0004fa80       ?SendHeartBeat@SOServer@@QAEXXZ 00450a80 f   SOServer.obj
 0001:0004fef0       ?logout@CMainState@@QAEXXZ 00450ef0 f i SOServer.obj
 0001:0004ff80       ?getSubQueueSize@SODatabase@@QAEHXZ 00450f80 f i SOServer.obj
 0001:0004ffd0       ?ServerLoad@SOServer@@QAENXZ 00450fd0 f i SOServer.obj
 0001:00050050       ?StartMilliTimer@SOServer@@QAEXAAI0@Z 00451050 f i SOServer.obj
 0001:000500c0       ?CheckMilliTimer@SOServer@@QAEIAAI0@Z 004510c0 f i SOServer.obj
 0001:00050130       ?GetNext@JWObject@@QAEPAV1@XZ 00451130 f i SOServer.obj
 0001:00050170       ?IsOnAction@JWObject@@QAEHXZ 00451170 f i SOServer.obj
 0001:000501b0       ?GetActualFirstNode@JWList@@QAEPAVJWObject@@XZ 004511b0 f i SOServer.obj
 0001:000501f0       ?GetNumberOfNodes@JWList@@QAEIXZ 004511f0 f i SOServer.obj
 0001:00050230       ?SetSocket@XMonitor@@QAEXPAVJXSocket@@@Z 00451230 f i SOServer.obj
 0001:00050270       ?GetSocket@XMonitor@@QAEPAVJXSocket@@XZ 00451270 f i SOServer.obj
 0001:000502b0       ?GetNumPacket@JXPacketQueue@@QAEIXZ 004512b0 f i SOServer.obj
 0001:000502f0       ?GetQueue@JXSocket@@QAEPAVJXPacketQueue@@XZ 004512f0 f i SOServer.obj
 0001:00050330       ??0SOWorld@@QAE@PAVSOServer@@@Z 00451330 f   SOWorld.obj
 0001:000520f0       ??1cltSOFindPath@@QAE@XZ   004530f0 f i SOWorld.obj
 0001:00052140       ??1SOWorld@@QAE@XZ         00453140 f   SOWorld.obj
 0001:00052850       ??_GCSmith@@QAEPAXI@Z      00453850 f i SOWorld.obj
 0001:000528c0       ??_ESOVillage@@QAEPAXI@Z   004538c0 f i SOWorld.obj
 0001:00052980       ??_GOnlineTradeParser@@QAEPAXI@Z 00453980 f i SOWorld.obj
 0001:000529f0       ??_GCQuestEventItemMgr@@QAEPAXI@Z 004539f0 f i SOWorld.obj
 0001:00052a60       ?Poll@SOWorld@@QAEHXZ      00453a60 f   SOWorld.obj
 0001:00053d10       ?InitGuildAndVillage@SOWorld@@QAEHXZ 00454d10 f   SOWorld.obj
 0001:00053f90       ?GetVillageByCode@SOWorld@@QAEPAVSOVillage@@G@Z 00454f90 f   SOWorld.obj
 0001:00054060       ?GetVillage@SOWorld@@QAEPAVSOVillage@@PAD@Z 00455060 f   SOWorld.obj
 0001:00054120       ?GetNearestHospitalVillageIndex@SOWorld@@QAEHGHH@Z 00455120 f   SOWorld.obj
 0001:000542f0       ?OfficialAnnouncement@SOWorld@@QAEHKJJJJJJJ@Z 004552f0 f   SOWorld.obj
 0001:00054890       ?InitGuildFromDB@SOWorld@@QAEHXZ 00455890 f   SOWorld.obj
 0001:00054960       ?GetEventDataFromDDB@SOWorld@@QAEHXZ 00455960 f   SOWorld.obj
 0001:000549e0       ?GetPlayer@SOWorld@@QAEPAVSOPlayer@@PAD@Z 004559e0 f   SOWorld.obj
 0001:00054aa0       ?GetItemDBPrice@SOWorld@@QAEXXZ 00455aa0 f   SOWorld.obj
 0001:00054c80       ?SetItemDBPrice@SOWorld@@QAEXXZ 00455c80 f   SOWorld.obj
 0001:00054e10       ?GetHighestGuildClass@SOWorld@@QAEHPAD@Z 00455e10 f   SOWorld.obj
 0001:00054e60       ?GetHighestGuildClassInVillage@SOWorld@@QAEHPAD@Z 00455e60 f   SOWorld.obj
 0001:00054f40       ?GetOwnVillageNum@SOWorld@@QAEHPAD@Z 00455f40 f   SOWorld.obj
 0001:00055040       ?DeleteGuildClassInVillage@SOWorld@@QAEXPAD@Z 00456040 f   SOWorld.obj
 0001:00055150       ?GetRealTime@SOWorld@@QAEXPAUOnRealWorldTime@@@Z 00456150 f   SOWorld.obj
 0001:00055270       ?GetVillageIndexByCode@SOWorld@@QAEHG@Z 00456270 f   SOWorld.obj
 0001:00055310       ?SendPayingBusinessAnnoucement@SOWorld@@QAEXXZ 00456310 f   SOWorld.obj
 0001:00055610       ?GetCharHeader@SOWorld@@QAEPAUCharHead@@G@Z 00456610 f   SOWorld.obj
 0001:000556d0       ?GetOwnFactory@SOWorld@@QAEPAUstFarmData@@HE@Z 004566d0 f   SOWorld.obj
 0001:00055730       ?IncChatRoomInVillCounter@SOWorld@@QAEKXZ 00456730 f   SOWorld.obj
 0001:00055780       ?LogOutAllPlayer@SOWorld@@QAEKXZ 00456780 f   SOWorld.obj
 0001:00055810       ?GetPlayer@SOWorld@@QAEPAVSOPlayer@@G@Z 00456810 f   SOWorld.obj
 0001:000558c0       ?GetBaseChar@SOWorld@@QAEPAVBaseChar@@G@Z 004568c0 f   SOWorld.obj
 0001:00055a20       ?GetPlayerByDBAccount@SOWorld@@QAEPAVSOPlayer@@K@Z 00456a20 f   SOWorld.obj
 0001:00055ac0       ?GetPlayerByDBAccount@SOWorld@@QAEPAVSOPlayer@@KE@Z 00456ac0 f   SOWorld.obj
 0001:00055b40       ?IsIndustrialComplexOwner@SOWorld@@QAEHPAVSOPlayer@@@Z 00456b40 f   SOWorld.obj
 0001:00055be0       ?GetIndustrialComplex@SOWorld@@QAEPAVSOVillage_IndustrialComplex@@PAVSOPlayer@@@Z 00456be0 f   SOWorld.obj
 0001:00055c90       ?SellIndustrialComplex@SOWorld@@QAEHPAVSOPlayer@@0@Z 00456c90 f   SOWorld.obj
 0001:00055d40       ?EnterAttackVillageTimeZone@SOWorld@@QAEXXZ 00456d40 f   SOWorld.obj
 0001:00055dd0       ?LeaveAttackVillageTimeZone@SOWorld@@QAEXXZ 00456dd0 f   SOWorld.obj
 0001:00055e60       ?IsAttackVillageTimeZone@SOWorld@@QAEHXZ 00456e60 f   SOWorld.obj
 0001:00055ea0       ?ChangeSatietyByWeather@SOWorld@@QAEXXZ 00456ea0 f   SOWorld.obj
 0001:00055fb0       ?MakeThunder@SOWorld@@QAEXXZ 00456fb0 f   SOWorld.obj
 0001:000562e0       ??0?$basic_string@DU?$char_traits@D@std@@V?$allocator@D@2@@std@@QAE@PBDABV?$allocator@D@1@@Z 004572e0 f i SOWorld.obj
 0001:00056350       ??1?$basic_string@DU?$char_traits@D@std@@V?$allocator@D@2@@std@@QAE@XZ 00457350 f i SOWorld.obj
 0001:000565c0       ?assign@?$basic_string@DU?$char_traits@D@std@@V?$allocator@D@2@@std@@QAEAAV12@PBD@Z 004575c0 f i SOWorld.obj
 0001:00056620       ?length@?$char_traits@D@std@@SAIPBD@Z 00457620 f i SOWorld.obj
 0001:00056670       ?_Tidy@?$basic_string@DU?$char_traits@D@std@@V?$allocator@D@2@@std@@AAEX_N@Z 00457670 f i SOWorld.obj
 0001:00056780       ?GetCount@CItem@@QAEHXZ    00457780 f i SOWorld.obj
 0001:000567d0       ?size@?$map@IPAUCItemHeader@@U?$less@I@std@@V?$allocator@PAUCItemHeader@@@3@@std@@QBEIXZ 004577d0 f i SOWorld.obj
 0001:00056820       ?size@?$_Tree@IU?$pair@$$CBIPAUCItemHeader@@@std@@U_Kfn@?$map@IPAUCItemHeader@@U?$less@I@std@@V?$allocator@PAUCItemHeader@@@3@@2@U?$less@I@2@V?$allocator@PAUCItemHeader@@@2@@std@@QBEIXZ 00457820 f i SOWorld.obj
 0001:00056860       ??0OnlineCharParser@@QAE@XZ 00457860 f i SOWorld.obj
 0001:000568d0       ??0?$vector@UCharHead@@V?$allocator@UCharHead@@@std@@@std@@QAE@ABV?$allocator@UCharHead@@@1@@Z 004578d0 f i SOWorld.obj
 0001:00056940       ??1OnlineCharParser@@QAE@XZ 00457940 f i SOWorld.obj
 0001:000569e0       ??1?$vector@UCharHead@@V?$allocator@UCharHead@@@std@@@std@@QAE@XZ 004579e0 f i SOWorld.obj
 0001:00056a90       ?_Destroy@?$vector@UCharHead@@V?$allocator@UCharHead@@@std@@@std@@IAEXPAUCharHead@@0@Z 00457a90 f i SOWorld.obj
 0001:00056b00       ?deallocate@?$allocator@UCharHead@@@std@@QAEXPAXI@Z 00457b00 f i SOWorld.obj
 0001:00056b50       ?Free@OnlineCharParser@@QAEXXZ 00457b50 f i SOWorld.obj
 0001:00056ba0       ?clear@?$vector@UCharHead@@V?$allocator@UCharHead@@@std@@@std@@QAEXXZ 00457ba0 f i SOWorld.obj
 0001:00056c00       ?end@?$vector@UCharHead@@V?$allocator@UCharHead@@@std@@@std@@QAEPAUCharHead@@XZ 00457c00 f i SOWorld.obj
 0001:00056c40       ?erase@?$vector@UCharHead@@V?$allocator@UCharHead@@@std@@@std@@QAEPAUCharHead@@PAU3@0@Z 00457c40 f i SOWorld.obj
 0001:00056cd0       ?assign@?$basic_string@DU?$char_traits@D@std@@V?$allocator@D@2@@std@@QAEAAV12@PBDI@Z 00457cd0 f i SOWorld.obj
 0001:00056d60       ?copy@?$char_traits@D@std@@SAPADPADPBDI@Z 00457d60 f i SOWorld.obj
 0001:00056db0       ?_Eos@?$basic_string@DU?$char_traits@D@std@@V?$allocator@D@2@@std@@AAEXI@Z 00457db0 f i SOWorld.obj
 0001:00056e20       ?assign@?$char_traits@D@std@@SAXAADABD@Z 00457e20 f i SOWorld.obj
 0001:00056e60       ?_Grow@?$basic_string@DU?$char_traits@D@std@@V?$allocator@D@2@@std@@AAE_NI_N@Z 00457e60 f i SOWorld.obj
 0001:00057010       ?_Refcnt@?$basic_string@DU?$char_traits@D@std@@V?$allocator@D@2@@std@@AAEAAEPBD@Z 00458010 f i SOWorld.obj
 0001:00057050       ?Free@OnlineVillageParser@@QAEXXZ 00458050 f i SOWorld.obj
 0001:000570b0       ?clear@?$vector@UVillageHeader@@V?$allocator@UVillageHeader@@@std@@@std@@QAEXXZ 004580b0 f i SOWorld.obj
 0001:00057110       ?clear@?$vector@UVillageType@@V?$allocator@UVillageType@@@std@@@std@@QAEXXZ 00458110 f i SOWorld.obj
 0001:00057170       ?begin@?$vector@UVillageHeader@@V?$allocator@UVillageHeader@@@std@@@std@@QAEPAUVillageHeader@@XZ 00458170 f i SOWorld.obj
 0001:000571b0       ?end@?$vector@UVillageHeader@@V?$allocator@UVillageHeader@@@std@@@std@@QAEPAUVillageHeader@@XZ 004581b0 f i SOWorld.obj
 0001:000571f0       ?erase@?$vector@UVillageHeader@@V?$allocator@UVillageHeader@@@std@@@std@@QAEPAUVillageHeader@@PAU3@0@Z 004581f0 f i SOWorld.obj
 0001:00057280       ?begin@?$vector@UVillageType@@V?$allocator@UVillageType@@@std@@@std@@QAEPAUVillageType@@XZ 00458280 f i SOWorld.obj
 0001:000572c0       ?end@?$vector@UVillageType@@V?$allocator@UVillageType@@@std@@@std@@QAEPAUVillageType@@XZ 004582c0 f i SOWorld.obj
 0001:00057300       ?erase@?$vector@UVillageType@@V?$allocator@UVillageType@@@std@@@std@@QAEPAUVillageType@@PAU3@0@Z 00458300 f i SOWorld.obj
 0001:00057390       ?deallocate@?$allocator@D@std@@QAEXPAXI@Z 00458390 f i SOWorld.obj
 0001:000573e0       ?GetTotalVillageNum@OnlineVillageParser@@QAEHXZ 004583e0 f i SOWorld.obj
 0001:00057430       ?size@?$vector@UVillageHeader@@V?$allocator@UVillageHeader@@@std@@@std@@QBEIXZ 00458430 f i SOWorld.obj
 0001:000574a0       ?GetVillageHeaderIndex@OnlineVillageParser@@QAEPAUVillageHeader@@F@Z 004584a0 f i SOWorld.obj
 0001:000574f0       ??A?$vector@UVillageHeader@@V?$allocator@UVillageHeader@@@std@@@std@@QAEAAUVillageHeader@@I@Z 004584f0 f i SOWorld.obj
 0001:00057550       ?destroy@?$allocator@UCharHead@@@std@@QAEXPAUCharHead@@@Z 00458550 f i SOWorld.obj
 0001:000575a0       ?_Destroy@?$vector@UVillageHeader@@V?$allocator@UVillageHeader@@@std@@@std@@IAEXPAUVillageHeader@@0@Z 004585a0 f i SOWorld.obj
 0001:00057610       ?_Destroy@?$vector@UVillageType@@V?$allocator@UVillageType@@@std@@@std@@IAEXPAUVillageType@@0@Z 00458610 f i SOWorld.obj
 0001:00057680       ??0OnlineTradeParser@@QAE@XZ 00458680 f i SOWorld.obj
 0001:00057710       ??0?$vector@UTradeHeader@@V?$allocator@UTradeHeader@@@std@@@std@@QAE@ABV?$allocator@UTradeHeader@@@1@@Z 00458710 f i SOWorld.obj
 0001:00057780       ??1?$vector@UTradeHeader@@V?$allocator@UTradeHeader@@@std@@@std@@QAE@XZ 00458780 f i SOWorld.obj
 0001:00057830       ?_Destroy@?$vector@UTradeHeader@@V?$allocator@UTradeHeader@@@std@@@std@@IAEXPAUTradeHeader@@0@Z 00458830 f i SOWorld.obj
 0001:000578a0       ?deallocate@?$allocator@UTradeHeader@@@std@@QAEXPAXI@Z 004588a0 f i SOWorld.obj
 0001:000578f0       ?destroy@?$allocator@UTradeHeader@@@std@@QAEXPAUTradeHeader@@@Z 004588f0 f i SOWorld.obj
 0001:00057940       ??1OnlineTradeParser@@QAE@XZ 00458940 f i SOWorld.obj
 0001:000579d0       ?Free@OnlineTradeParser@@QAEXXZ 004589d0 f i SOWorld.obj
 0001:00057a20       ?clear@?$vector@UTradeHeader@@V?$allocator@UTradeHeader@@@std@@@std@@QAEXXZ 00458a20 f i SOWorld.obj
 0001:00057a80       ?end@?$vector@UTradeHeader@@V?$allocator@UTradeHeader@@@std@@@std@@QAEPAUTradeHeader@@XZ 00458a80 f i SOWorld.obj
 0001:00057ac0       ?erase@?$vector@UTradeHeader@@V?$allocator@UTradeHeader@@@std@@@std@@QAEPAUTradeHeader@@PAU3@0@Z 00458ac0 f i SOWorld.obj
 0001:00057b50       ??0OnlineMercenaryParser@@QAE@XZ 00458b50 f i SOWorld.obj
 0001:00057ba0       ??0?$vector@UMercenaryHeader@@V?$allocator@UMercenaryHeader@@@std@@@std@@QAE@ABV?$allocator@UMercenaryHeader@@@1@@Z 00458ba0 f i SOWorld.obj
 0001:00057c10       ??1OnlineMercenaryParser@@QAE@XZ 00458c10 f i SOWorld.obj
 0001:00057ca0       ??1?$vector@UMercenaryHeader@@V?$allocator@UMercenaryHeader@@@std@@@std@@QAE@XZ 00458ca0 f i SOWorld.obj
 0001:00057d50       ?_Destroy@?$vector@UMercenaryHeader@@V?$allocator@UMercenaryHeader@@@std@@@std@@IAEXPAUMercenaryHeader@@0@Z 00458d50 f i SOWorld.obj
 0001:00057dc0       ?deallocate@?$allocator@UMercenaryHeader@@@std@@QAEXPAXI@Z 00458dc0 f i SOWorld.obj
 0001:00057e10       ?destroy@?$allocator@UMercenaryHeader@@@std@@QAEXPAUMercenaryHeader@@@Z 00458e10 f i SOWorld.obj
 0001:00057e60       ?Free@OnlineMercenaryParser@@QAEXXZ 00458e60 f i SOWorld.obj
 0001:00057eb0       ?clear@?$vector@UMercenaryHeader@@V?$allocator@UMercenaryHeader@@@std@@@std@@QAEXXZ 00458eb0 f i SOWorld.obj
 0001:00057f10       ?begin@?$vector@UMercenaryHeader@@V?$allocator@UMercenaryHeader@@@std@@@std@@QAEPAUMercenaryHeader@@XZ 00458f10 f i SOWorld.obj
 0001:00057f50       ?end@?$vector@UMercenaryHeader@@V?$allocator@UMercenaryHeader@@@std@@@std@@QAEPAUMercenaryHeader@@XZ 00458f50 f i SOWorld.obj
 0001:00057f90       ?erase@?$vector@UMercenaryHeader@@V?$allocator@UMercenaryHeader@@@std@@@std@@QAEPAUMercenaryHeader@@PAU3@0@Z 00458f90 f i SOWorld.obj
 0001:00058020       ?GetPopulationStart@CWarTimeParser@@QAEFXZ 00459020 f i SOWorld.obj
 0001:00058060       ?GetInvestUpdateStart@CWarTimeParser@@QAEFXZ 00459060 f i SOWorld.obj
 0001:000580a0       ?GetInvestUpdateEnd@CWarTimeParser@@QAEFXZ 004590a0 f i SOWorld.obj
 0001:000580e0       ?max_size@?$basic_string@DU?$char_traits@D@std@@V?$allocator@D@2@@std@@QBEIXZ 004590e0 f i SOWorld.obj
 0001:00058150       ?_Copy@?$basic_string@DU?$char_traits@D@std@@V?$allocator@D@2@@std@@AAEXI@Z 00459150 f i SOWorld.obj
 0001:00058300       ??0ExpoRank@@QAE@XZ        00459300 f i SOWorld.obj
 0001:00058350       ??1ExpoRank@@QAE@XZ        00459350 f i SOWorld.obj
 0001:000583a0       ??1UserCatalog@@QAE@XZ     004593a0 f i SOWorld.obj
 0001:00058440       ??1?$vector@VUser@@V?$allocator@VUser@@@std@@@std@@QAE@XZ 00459440 f i SOWorld.obj
 0001:000584f0       ?_Destroy@?$vector@VUser@@V?$allocator@VUser@@@std@@@std@@IAEXPAVUser@@0@Z 004594f0 f i SOWorld.obj
 0001:00058560       ?deallocate@?$allocator@VUser@@@std@@QAEXPAXI@Z 00459560 f i SOWorld.obj
 0001:000585b0       ?destroy@?$allocator@VUser@@@std@@QAEXPAVUser@@@Z 004595b0 f i SOWorld.obj
 0001:00058600       ??1?$map@HPAVUser@@U?$less@H@std@@V?$allocator@PAVUser@@@3@@std@@QAE@XZ 00459600 f i SOWorld.obj
 0001:00058650       ??1?$_Tree@HU?$pair@$$CBHPAVUser@@@std@@U_Kfn@?$map@HPAVUser@@U?$less@H@std@@V?$allocator@PAVUser@@@3@@2@U?$less@H@2@V?$allocator@PAVUser@@@2@@std@@QAE@XZ 00459650 f i SOWorld.obj
 0001:00058750       ?begin@?$_Tree@HU?$pair@$$CBHPAVUser@@@std@@U_Kfn@?$map@HPAVUser@@U?$less@H@std@@V?$allocator@PAVUser@@@3@@2@U?$less@H@2@V?$allocator@PAVUser@@@2@@std@@QAE?AViterator@12@XZ 00459750 f i SOWorld.obj
 0001:000587b0       ?end@?$_Tree@HU?$pair@$$CBHPAVUser@@@std@@U_Kfn@?$map@HPAVUser@@U?$less@H@std@@V?$allocator@PAVUser@@@3@@2@U?$less@H@2@V?$allocator@PAVUser@@@2@@std@@QAE?AViterator@12@XZ 004597b0 f i SOWorld.obj
 0001:00058810       ?erase@?$_Tree@HU?$pair@$$CBHPAVUser@@@std@@U_Kfn@?$map@HPAVUser@@U?$less@H@std@@V?$allocator@PAVUser@@@3@@2@U?$less@H@2@V?$allocator@PAVUser@@@2@@std@@QAE?AViterator@12@V312@0@Z 00459810 f i SOWorld.obj
 0001:00058970       ?_Freenode@?$_Tree@HU?$pair@$$CBHPAVUser@@@std@@U_Kfn@?$map@HPAVUser@@U?$less@H@std@@V?$allocator@PAVUser@@@3@@2@U?$less@H@2@V?$allocator@PAVUser@@@2@@std@@IAEXPAU_Node@12@@Z 00459970 f i SOWorld.obj
 0001:000589c0       ?deallocate@?$allocator@PAVUser@@@std@@QAEXPAXI@Z 004599c0 f i SOWorld.obj
 0001:00058a10       ?size@?$_Tree@HU?$pair@$$CBHPAVUser@@@std@@U_Kfn@?$map@HPAVUser@@U?$less@H@std@@V?$allocator@PAVUser@@@3@@2@U?$less@H@2@V?$allocator@PAVUser@@@2@@std@@QBEIXZ 00459a10 f i SOWorld.obj
 0001:00058a50       ?erase@?$_Tree@HU?$pair@$$CBHPAVUser@@@std@@U_Kfn@?$map@HPAVUser@@U?$less@H@std@@V?$allocator@PAVUser@@@3@@2@U?$less@H@2@V?$allocator@PAVUser@@@2@@std@@QAE?AViterator@12@V312@@Z 00459a50 f i SOWorld.obj
 0001:000594e0       ?_Erase@?$_Tree@HU?$pair@$$CBHPAVUser@@@std@@U_Kfn@?$map@HPAVUser@@U?$less@H@std@@V?$allocator@PAVUser@@@3@@2@U?$less@H@2@V?$allocator@PAVUser@@@2@@std@@IAEXPAU_Node@12@@Z 0045a4e0 f i SOWorld.obj
 0001:000595a0       ?_Lmost@?$_Tree@HU?$pair@$$CBHPAVUser@@@std@@U_Kfn@?$map@HPAVUser@@U?$less@H@std@@V?$allocator@PAVUser@@@3@@2@U?$less@H@2@V?$allocator@PAVUser@@@2@@std@@IAEAAPAU_Node@12@XZ 0045a5a0 f i SOWorld.obj
 0001:000595f0       ?_Rmost@?$_Tree@HU?$pair@$$CBHPAVUser@@@std@@U_Kfn@?$map@HPAVUser@@U?$less@H@std@@V?$allocator@PAVUser@@@3@@2@U?$less@H@2@V?$allocator@PAVUser@@@2@@std@@IAEAAPAU_Node@12@XZ 0045a5f0 f i SOWorld.obj
 0001:00059640       ?_Root@?$_Tree@HU?$pair@$$CBHPAVUser@@@std@@U_Kfn@?$map@HPAVUser@@U?$less@H@std@@V?$allocator@PAVUser@@@3@@2@U?$less@H@2@V?$allocator@PAVUser@@@2@@std@@IAEAAPAU_Node@12@XZ 0045a640 f i SOWorld.obj
 0001:00059690       ??0iterator@?$_Tree@HU?$pair@$$CBHPAVUser@@@std@@U_Kfn@?$map@HPAVUser@@U?$less@H@std@@V?$allocator@PAVUser@@@3@@2@U?$less@H@2@V?$allocator@PAVUser@@@2@@std@@QAE@PAU_Node@12@@Z 0045a690 f i SOWorld.obj
 0001:000596e0       ??Eiterator@?$_Tree@HU?$pair@$$CBHPAVUser@@@std@@U_Kfn@?$map@HPAVUser@@U?$less@H@std@@V?$allocator@PAVUser@@@3@@2@U?$less@H@2@V?$allocator@PAVUser@@@2@@std@@QAE?AV012@H@Z 0045a6e0 f i SOWorld.obj
 0001:00059740       ??9iterator@?$_Tree@HU?$pair@$$CBHPAVUser@@@std@@U_Kfn@?$map@HPAVUser@@U?$less@H@std@@V?$allocator@PAVUser@@@3@@2@U?$less@H@2@V?$allocator@PAVUser@@@2@@std@@QBE_NABV012@@Z 0045a740 f i SOWorld.obj
 0001:000597a0       ?destroy@?$allocator@UVillageHeader@@@std@@QAEXPAUVillageHeader@@@Z 0045a7a0 f i SOWorld.obj
 0001:000597f0       ?destroy@?$allocator@UVillageType@@@std@@QAEXPAUVillageType@@@Z 0045a7f0 f i SOWorld.obj
 0001:00059840       ?sortData@ExpoRank@@QAEXXZ 0045a840 f i SOWorld.obj
 0001:00059890       ?_Color@?$_Tree@HU?$pair@$$CBHPAVUser@@@std@@U_Kfn@?$map@HPAVUser@@U?$less@H@std@@V?$allocator@PAVUser@@@3@@2@U?$less@H@2@V?$allocator@PAVUser@@@2@@std@@KAAAW4_Redbl@12@PAU_Node@12@@Z 0045a890 f i SOWorld.obj
 0001:000598c0       ?_Left@?$_Tree@HU?$pair@$$CBHPAVUser@@@std@@U_Kfn@?$map@HPAVUser@@U?$less@H@std@@V?$allocator@PAVUser@@@3@@2@U?$less@H@2@V?$allocator@PAVUser@@@2@@std@@KAAAPAU_Node@12@PAU312@@Z 0045a8c0 f i SOWorld.obj
 0001:000598f0       ?_Parent@?$_Tree@HU?$pair@$$CBHPAVUser@@@std@@U_Kfn@?$map@HPAVUser@@U?$less@H@std@@V?$allocator@PAVUser@@@3@@2@U?$less@H@2@V?$allocator@PAVUser@@@2@@std@@KAAAPAU_Node@12@PAU312@@Z 0045a8f0 f i SOWorld.obj
 0001:00059920       ?_Right@?$_Tree@HU?$pair@$$CBHPAVUser@@@std@@U_Kfn@?$map@HPAVUser@@U?$less@H@std@@V?$allocator@PAVUser@@@3@@2@U?$less@H@2@V?$allocator@PAVUser@@@2@@std@@KAAAPAU_Node@12@PAU312@@Z 0045a920 f i SOWorld.obj
 0001:00059950       ?_Value@?$_Tree@HU?$pair@$$CBHPAVUser@@@std@@U_Kfn@?$map@HPAVUser@@U?$less@H@std@@V?$allocator@PAVUser@@@3@@2@U?$less@H@2@V?$allocator@PAVUser@@@2@@std@@KAAAU?$pair@$$CBHPAVUser@@@2@PAU_Node@12@@Z 0045a950 f i SOWorld.obj
 0001:00059980       ?_Lrotate@?$_Tree@HU?$pair@$$CBHPAVUser@@@std@@U_Kfn@?$map@HPAVUser@@U?$less@H@std@@V?$allocator@PAVUser@@@3@@2@U?$less@H@2@V?$allocator@PAVUser@@@2@@std@@IAEXPAU_Node@12@@Z 0045a980 f i SOWorld.obj
 0001:00059b20       ?_Max@?$_Tree@HU?$pair@$$CBHPAVUser@@@std@@U_Kfn@?$map@HPAVUser@@U?$less@H@std@@V?$allocator@PAVUser@@@3@@2@U?$less@H@2@V?$allocator@PAVUser@@@2@@std@@KAPAU_Node@12@PAU312@@Z 0045ab20 f i SOWorld.obj
 0001:00059b90       ?_Min@?$_Tree@HU?$pair@$$CBHPAVUser@@@std@@U_Kfn@?$map@HPAVUser@@U?$less@H@std@@V?$allocator@PAVUser@@@3@@2@U?$less@H@2@V?$allocator@PAVUser@@@2@@std@@KAPAU_Node@12@PAU312@@Z 0045ab90 f i SOWorld.obj
 0001:00059c00       ?_Rrotate@?$_Tree@HU?$pair@$$CBHPAVUser@@@std@@U_Kfn@?$map@HPAVUser@@U?$less@H@std@@V?$allocator@PAVUser@@@3@@2@U?$less@H@2@V?$allocator@PAVUser@@@2@@std@@IAEXPAU_Node@12@@Z 0045ac00 f i SOWorld.obj
 0001:00059da0       ?_Destval@?$_Tree@HU?$pair@$$CBHPAVUser@@@std@@U_Kfn@?$map@HPAVUser@@U?$less@H@std@@V?$allocator@PAVUser@@@3@@2@U?$less@H@2@V?$allocator@PAVUser@@@2@@std@@IAEXPAU?$pair@$$CBHPAVUser@@@2@@Z 0045ada0 f i SOWorld.obj
 0001:00059df0       ??0const_iterator@?$_Tree@HU?$pair@$$CBHPAVUser@@@std@@U_Kfn@?$map@HPAVUser@@U?$less@H@std@@V?$allocator@PAVUser@@@3@@2@U?$less@H@2@V?$allocator@PAVUser@@@2@@std@@QAE@PAU_Node@12@@Z 0045adf0 f i SOWorld.obj
 0001:00059e30       ?_Mynode@const_iterator@?$_Tree@HU?$pair@$$CBHPAVUser@@@std@@U_Kfn@?$map@HPAVUser@@U?$less@H@std@@V?$allocator@PAVUser@@@3@@2@U?$less@H@2@V?$allocator@PAVUser@@@2@@std@@QBEPAU_Node@23@XZ 0045ae30 f i SOWorld.obj
 0001:00059e70       ??Eiterator@?$_Tree@HU?$pair@$$CBHPAVUser@@@std@@U_Kfn@?$map@HPAVUser@@U?$less@H@std@@V?$allocator@PAVUser@@@3@@2@U?$less@H@2@V?$allocator@PAVUser@@@2@@std@@QAEAAV012@XZ 0045ae70 f i SOWorld.obj
 0001:00059ec0       ??8iterator@?$_Tree@HU?$pair@$$CBHPAVUser@@@std@@U_Kfn@?$map@HPAVUser@@U?$less@H@std@@V?$allocator@PAVUser@@@3@@2@U?$less@H@2@V?$allocator@PAVUser@@@2@@std@@QBE_NABV012@@Z 0045aec0 f i SOWorld.obj
 0001:00059f10       ?allocate@?$allocator@D@std@@QAEPADIPBX@Z 0045af10 f i SOWorld.obj
 0001:00059f60       ?max_size@?$allocator@D@std@@QBEIXZ 0045af60 f i SOWorld.obj
 0001:00059fc0       ?_Inc@const_iterator@?$_Tree@HU?$pair@$$CBHPAVUser@@@std@@U_Kfn@?$map@HPAVUser@@U?$less@H@std@@V?$allocator@PAVUser@@@3@@2@U?$less@H@2@V?$allocator@PAVUser@@@2@@std@@QAEXXZ 0045afc0 f i SOWorld.obj
 0001:0005a0b0       ?copy@std@@YAPAUCharHead@@PAU2@00@Z 0045b0b0 f i SOWorld.obj
 0001:0005a110       ?copy@std@@YAPAUVillageHeader@@PAU2@00@Z 0045b110 f i SOWorld.obj
 0001:0005a180       ?copy@std@@YAPAUVillageType@@PAU2@00@Z 0045b180 f i SOWorld.obj
 0001:0005a1e0       ?copy@std@@YAPAUTradeHeader@@PAU2@00@Z 0045b1e0 f i SOWorld.obj
 0001:0005a250       ?copy@std@@YAPAUMercenaryHeader@@PAU2@00@Z 0045b250 f i SOWorld.obj
 0001:0005a2c0       ?_Destroy@std@@YAXPAUCharHead@@@Z 0045b2c0 f i SOWorld.obj
 0001:0005a2f0       ?_Destroy@std@@YAXPAUTradeHeader@@@Z 0045b2f0 f i SOWorld.obj
 0001:0005a320       ?_Destroy@std@@YAXPAUMercenaryHeader@@@Z 0045b320 f i SOWorld.obj
 0001:0005a350       ?_Destroy@std@@YAXPAVUser@@@Z 0045b350 f i SOWorld.obj
 0001:0005a380       ?swap@std@@YAXAAW4_Redbl@?$_Tree@HU?$pair@$$CBHPAVUser@@@std@@U_Kfn@?$map@HPAVUser@@U?$less@H@std@@V?$allocator@PAVUser@@@3@@2@U?$less@H@2@V?$allocator@PAVUser@@@2@@1@0@Z 0045b380 f i SOWorld.obj
 0001:0005a3d0       ?_Destroy@std@@YAXPAUVillageHeader@@@Z 0045b3d0 f i SOWorld.obj
 0001:0005a400       ?_Destroy@std@@YAXPAUVillageType@@@Z 0045b400 f i SOWorld.obj
 0001:0005a430       ?_Destroy@std@@YAXPAU?$pair@$$CBHPAVUser@@@1@@Z 0045b430 f i SOWorld.obj
 0001:0005a460       ?_Allocate@std@@YAPADHPAD@Z 0045b460 f i SOWorld.obj
 0001:0005a550       ??0XMonitor@@QAE@XZ        0045b550 f   XMonitor.obj
 0001:0005a5b0       ??_GXMonitor@@UAEPAXI@Z    0045b5b0 f i XMonitor.obj
 0001:0005a5b0       ??_EXMonitor@@UAEPAXI@Z    0045b5b0 f i XMonitor.obj
 0001:0005a620       ??1XMonitor@@UAE@XZ        0045b620 f   XMonitor.obj
 0001:0005a670       ??0CDBGateQueue@@QAE@HH@Z  0045b670 f   DBGateQueue.obj
 0001:0005a6d0       ??1CDBGateQueue@@QAE@XZ    0045b6d0 f   DBGateQueue.obj
 0001:0005a720       ?isAbleQuery@CDBGateQueue@@UAE_NPAD@Z 0045b720 f   DBGateQueue.obj
 0001:0005a790       ?setDBInfo@CDBGateQueue@@MAEXKPAD@Z 0045b790 f   DBGateQueue.obj
 0001:000620b0       ??0CDBQueue@@QAE@HH@Z      004630b0 f   DBQueue.obj
 0001:000621b0       ??1CDBQueue@@QAE@XZ        004631b0 f   DBQueue.obj
 0001:00062220       ?write@CDBQueue@@IAEHPADH@Z 00463220 f   DBQueue.obj
 0001:00062380       ?read@CDBQueue@@IAEPADXZ   00463380 f   DBQueue.obj
 0001:00062580       ?getSize@CDBQueue@@QAEHXZ  00463580 f   DBQueue.obj
 0001:000625c0       ??0CDBQueueProc@@QAE@HH@Z  004635c0 f   DBQueueProc.obj
 0001:000626e0       ??1CDBQueueProc@@QAE@XZ    004636e0 f   DBQueueProc.obj
 0001:000627d0       ?setSQLProc@CDBQueueProc@@QAEXPAVHQSQLDB@@@Z 004637d0 f   DBQueueProc.obj
 0001:00062810       ?setNeighbor@CDBQueueProc@@QAEXPAV1@@Z 00463810 f   DBQueueProc.obj
 0001:00062850       ?write@CDBQueueProc@@QAEHPADH@Z 00463850 f   DBQueueProc.obj
 0001:000628f0       ?queueProc@CDBQueueProc@@QAEXXZ 004638f0 f   DBQueueProc.obj
 0001:00062a60       ?moveQueryToNeighbor@CDBQueueProc@@AAE_NPAD@Z 00463a60 f   DBQueueProc.obj
 0001:00062b20       ?Shutdown@CDBQueueProc@@QAEXXZ 00463b20 f   DBQueueProc.obj
 0001:00062b60       ?isShutdown@CDBQueueProc@@QAE_NXZ 00463b60 f   DBQueueProc.obj
 0001:00062dc0       ??0CDBSubQueue@@QAE@HH@Z   00463dc0 f   DBSubQueue.obj
 0001:00062eb0       ??1CDBSubQueue@@QAE@XZ     00463eb0 f   DBSubQueue.obj
 0001:00062f90       ?isAbleQuery@CDBSubQueue@@UAE_NPAD@Z 00463f90 f   DBSubQueue.obj
 0001:00063000       ?setDBInfo@CDBSubQueue@@MAEXKPAD@Z 00464000 f   DBSubQueue.obj
 0001:000636b0       ??0CDBQueryMgr@@QAE@XZ     004646b0 f   DBQueryMgr.obj
 0001:00063750       ??_GCDBQueryMgr@@UAEPAXI@Z 00464750 f i DBQueryMgr.obj
 0001:00063750       ??_ECDBQueryMgr@@UAEPAXI@Z 00464750 f i DBQueryMgr.obj
 0001:000637c0       ??1CDBQueryMgr@@UAE@XZ     004647c0 f   DBQueryMgr.obj
 0001:000638a0       ??_GCDBGateQueue@@QAEPAXI@Z 004648a0 f i DBQueryMgr.obj
 0001:00063910       ??_GCDBSubQueue@@QAEPAXI@Z 00464910 f i DBQueryMgr.obj
 0001:00063980       ?createQueue@CDBQueryMgr@@QAEXXZ 00464980 f   DBQueryMgr.obj
 0001:00063ad0       ?emptiedDepository@CDBQueryMgr@@QAEXXZ 00464ad0 f   DBQueryMgr.obj
 0001:00063be0       ?writeToDepository@CDBQueryMgr@@IAEXPADH0H@Z 00464be0 f   DBQueryMgr.obj
 0001:00063d10       ?createQueueThread@CDBQueryMgr@@QAEXXZ 00464d10 f   DBQueryMgr.obj
 0001:00063da0       ?_DBQueueProcThread@CDBQueueProc@@SGIPAX@Z 00464da0 f i DBQueryMgr.obj
 0001:00063f10       ??0HQSQLDB@@QAE@XZ         00464f10 f   MSSQLDB.obj
 0001:00063f40       ??1HQSQLDB@@QAE@XZ         00464f40 f   MSSQLDB.obj
 0001:00063f70       ?DBConnect@HQSQLDB@@QAE_NPAD000@Z 00464f70 f   MSSQLDB.obj
 0001:00064060       ?SQLRun@HQSQLDB@@QAA_NPADZZ 00465060 f   MSSQLDB.obj
 0001:00064270       ?GetCMD@HQSQLDB@@QAEPADXZ  00465270 f   MSSQLDB.obj
 0001:000642b0       ?DBResults@HQSQLDB@@QAEHXZ 004652b0 f   MSSQLDB.obj
 0001:00064300       ?DBBind@HQSQLDB@@QAEHHHJPAE@Z 00465300 f   MSSQLDB.obj
 0001:000643a0       ?DBNextRow@HQSQLDB@@QAEHXZ 004653a0 f   MSSQLDB.obj
 0001:00064420       ?ClearCMDBuf@HQSQLDB@@QAEXXZ 00465420 f   MSSQLDB.obj
 0001:00064470       ?ClearRows@HQSQLDB@@QAEXXZ 00465470 f   MSSQLDB.obj
 0001:000644d0       ?DBClose@HQSQLDB@@QAEXXZ   004654d0 f   MSSQLDB.obj
 0001:00064530       ??0SODatabase@@QAE@XZ      00465530 f   SODatabase.obj
 0001:00064660       ??_ESODatabase@@UAEPAXI@Z  00465660 f i SODatabase.obj
 0001:00064660       ??_GSODatabase@@UAEPAXI@Z  00465660 f i SODatabase.obj
 0001:000646d0       ??1SODatabase@@UAE@XZ      004656d0 f   SODatabase.obj
 0001:000647d0       ?writeDBQuery@SODatabase@@QAEXHPAXH@Z 004657d0 f   SODatabase.obj
 0001:00064870       ?ConnectDatabase@SODatabase@@QAEHXZ 00465870 f   SODatabase.obj
 0001:00064970       ?ConnectDatabase2@SODatabase@@QAEHXZ 00465970 f   SODatabase.obj
 0001:00064a70       ?GetDBInfo3@SODatabase@@QAEHHPAX0G@Z 00465a70 f   SODatabase.obj
 0001:00064fb0       ?GetDBInfo2@SODatabase@@QAEHHPAX0G@Z 00465fb0 f   SODatabase.obj
 0001:00065280       ?GetDBInfo@SODatabase@@QAEHHPAX0G@Z 00466280 f   SODatabase.obj
 0001:0006b1b0       ?GetLoginInfo@SODatabase@@QAE_NKDPADPAX@Z 0046c1b0 f   SODatabase.obj
 0001:0006c620       ?GetItemAuctions@SODatabase@@QAE_NPAX@Z 0046d620 f   SODatabase.obj
 0001:0006cb60       ?Init@stFarmSlot@@QAEXXZ   0046db60 f i SODatabase.obj
 0001:0006cc10       ?Init@stFarmStructure@@QAEXXZ 0046dc10 f i SODatabase.obj
 0001:0006cc90       ?Init@stStorage@@QAEXXZ    0046dc90 f i SODatabase.obj
 0001:0006cce0       ?setData@sBaseInfo@AUCTION@@QAE_NPADG@Z 0046dce0 f i SODatabase.obj
 0001:0006cd90       ?AddUser@ExpoRank@@QAEXKHHHHPADPAH1@Z 0046dd90 f i SODatabase.obj
 0001:0006ce90       ??0CAuthServerProc@@QAE@H@Z 0046de90 f   AuthServerProc.obj
 0001:0006cfe0       ??_GCAuthServerProc@@UAEPAXI@Z 0046dfe0 f i AuthServerProc.obj
 0001:0006cfe0       ??_ECAuthServerProc@@UAEPAXI@Z 0046dfe0 f i AuthServerProc.obj
 0001:0006d050       ??1CAuthServerProc@@UAE@XZ 0046e050 f   AuthServerProc.obj
 0001:0006d140       ??_GCMSSQL@@QAEPAXI@Z      0046e140 f i AuthServerProc.obj
 0001:0006d1b0       ?getPacketSize@CAuthServerProc@@EAEHPAD@Z 0046e1b0 f   AuthServerProc.obj
 0001:0006d1f0       ?getChecksum@CAuthServerProc@@EAEHPAD@Z 0046e1f0 f   AuthServerProc.obj
 0001:0006d230       ?calcChecksum@CAuthServerProc@@EAEHPADH@Z 0046e230 f   AuthServerProc.obj
 0001:0006d2a0       ?Connect@CAuthServerProc@@AAE_NXZ 0046e2a0 f   AuthServerProc.obj
 0001:0006d300       ?Send@CAuthServerProc@@AAE_NUsUniqueID@AUTH@@PADH@Z 0046e300 f   AuthServerProc.obj
 0001:0006d3a0       ?Send@CAuthServerProc@@AAE_NPADH@Z 0046e3a0 f   AuthServerProc.obj
 0001:0006d440       ?RequestLogin@CAuthServerProc@@QAE_NUsUniqueID@AUTH@@PAD111PAK@Z 0046e440 f   AuthServerProc.obj
 0001:0006d620       ??8sUniqueID@AUTH@@QBE_NABU01@@Z 0046e620 f i AuthServerProc.obj
 0001:0006d690       ?RequestLogout@CAuthServerProc@@QAE_NPAD00K@Z 0046e690 f   AuthServerProc.obj
 0001:0006d7e0       ?RequestReset@CAuthServerProc@@QAE_NHPAD@Z 0046e7e0 f   AuthServerProc.obj
 0001:0006d910       ?ReportHeartbeat@CAuthServerProc@@QAE_NXZ 0046e910 f   AuthServerProc.obj
 0001:0006d9b0       ?RequestLoginEnd@CAuthServerProc@@QAE_NUsUniqueID@AUTH@@KPAD@Z 0046e9b0 f   AuthServerProc.obj
 0001:0006db10       ??0CMSSQL@@QAE@XZ          0046eb10 f   MSSQL.obj
 0001:0006dbc0       ??1CMSSQL@@QAE@XZ          0046ebc0 f   MSSQL.obj
 0001:0006dbf0       ?Dissconnect@CMSSQL@@QAEXXZ 0046ebf0 f   MSSQL.obj
 0001:0006dc60       ?Connect@CMSSQL@@QAE_NPAD000@Z 0046ec60 f   MSSQL.obj
 0001:0006ddd0       ?Reconnect@CMSSQL@@AAE_NXZ 0046edd0 f   MSSQL.obj
 0001:0006de50       ?SQLRun@CMSSQL@@QAA_NPADZZ 0046ee50 f   MSSQL.obj
 0001:0006e010       ?DBResults@CMSSQL@@QAEHXZ  0046f010 f   MSSQL.obj
 0001:0006e060       ?DBBind@CMSSQL@@QAEHHHJPAE@Z 0046f060 f   MSSQL.obj
 0001:0006e0d0       ?DBNextRow@CMSSQL@@QAEHXZ  0046f0d0 f   MSSQL.obj
 0001:0006e120       ?clearCMDBuf@CMSSQL@@QAEXXZ 0046f120 f   MSSQL.obj
 0001:0006e170       ?clearRows@CMSSQL@@QAEXXZ  0046f170 f   MSSQL.obj
 0001:0006e1d0       ??0CFrontServerProc@@QAE@XZ 0046f1d0 f   FrontServerProc.obj
 0001:0006e240       ??_GCFrontServerProc@@UAEPAXI@Z 0046f240 f i FrontServerProc.obj
 0001:0006e240       ??_ECFrontServerProc@@UAEPAXI@Z 0046f240 f i FrontServerProc.obj
 0001:0006e2b0       ??1CFrontServerProc@@UAE@XZ 0046f2b0 f   FrontServerProc.obj
 0001:0006e300       ?getPacketSize@CFrontServerProc@@EAEHPAD@Z 0046f300 f   FrontServerProc.obj
 0001:0006e340       ?getChecksum@CFrontServerProc@@EAEHPAD@Z 0046f340 f   FrontServerProc.obj
 0001:0006e380       ?calcChecksum@CFrontServerProc@@EAEHPADH@Z 0046f380 f   FrontServerProc.obj
 0001:0006e3f0       ?Connect@CFrontServerProc@@AAE_NXZ 0046f3f0 f   FrontServerProc.obj
 0001:0006e450       ?Send@CFrontServerProc@@AAE_NPADH@Z 0046f450 f   FrontServerProc.obj
 0001:0006e4e0       ?ReportConcurrent@CFrontServerProc@@QAE_NHH@Z 0046f4e0 f   FrontServerProc.obj
 0001:0006e5a0       ??0CWinsock@@QAE@HHHH@Z    0046f5a0 f   Winsock.obj
 0001:0006e670       ??_ECWinsock@@UAEPAXI@Z    0046f670 f i Winsock.obj
 0001:0006e670       ??_GCWinsock@@UAEPAXI@Z    0046f670 f i Winsock.obj
 0001:0006e6e0       ??1CWinsock@@UAE@XZ        0046f6e0 f   Winsock.obj
 0001:0006e790       ?initialize@CWinsock@@AAEXXZ 0046f790 f   Winsock.obj
 0001:0006e850       ?setLastError@CWinsock@@IAEXH@Z 0046f850 f   Winsock.obj
 0001:0006e890       ?getLastError@CWinsock@@IAEHXZ 0046f890 f   Winsock.obj
 0001:0006e8d0       ?Send@CWinsock@@AAE_NXZ    0046f8d0 f   Winsock.obj
 0001:0006ea10       ?Recv@CWinsock@@AAE_NXZ    0046fa10 f   Winsock.obj
 0001:0006eb70       ?setSendPacket@CWinsock@@IAE_NPAD0H@Z 0046fb70 f   Winsock.obj
 0001:0006ecb0       ?getRecvPacket@CWinsock@@IAE_NPAD0H@Z 0046fcb0 f   Winsock.obj
 0001:0006ee90       ?Recv@CWinsock@@IAE_NPAD0H@Z 0046fe90 f   Winsock.obj
 0001:0006efb0       ?Send@CWinsock@@IAE_NPAD0H@Z 0046ffb0 f   Winsock.obj
 0001:0006f0c0       ?clearFD_SET@CWinsock@@AAEXXZ 004700c0 f   Winsock.obj
 0001:0006f240       ?isSendable@CWinsock@@IAE_NXZ 00470240 f   Winsock.obj
 0001:0006f320       ?isRecvable@CWinsock@@IAE_NXZ 00470320 f   Winsock.obj
 0001:0006f400       ?startupWinsock@CWinsock@@QAEXXZ 00470400 f   Winsock.obj
 0001:0006f470       ?Connect@CWinsock@@IAE_NPADH@Z 00470470 f   Winsock.obj
 0001:0006f570       ?Dissconnect@CWinsock@@IAEXXZ 00470570 f   Winsock.obj
 0001:0006f5d0       ?cleanupWinsock@CWinsock@@QAEXXZ 004705d0 f   Winsock.obj
 0001:0006f620       ?auth_worker@@YGIPAX@Z     00470620 f   AuthProc.obj
 0001:0006f800       ??0cAuthProc@@QAE@XZ       00470800 f   AuthProc.obj
 0001:0006f8c0       ??1cAuthProc@@QAE@XZ       004708c0 f   AuthProc.obj
 0001:0006f920       ?Start@cAuthProc@@QAEXXZ   00470920 f   AuthProc.obj
 0001:0006f990       ?Stop@cAuthProc@@QAEXXZ    00470990 f   AuthProc.obj
 0001:0006fa00       ?Run@cAuthProc@@QAEXXZ     00470a00 f   AuthProc.obj
 0001:0006fd60       ?recvRequestLogin@cAuthProc@@QAEHPAVSOPlayer@@PAUsRequestLogin@LOGIN@@@Z 00470d60 f   AuthProc.obj
 0001:0006ffe0       ?sendResponseLogin@cAuthProc@@QAEXPAVSOPlayer@@H@Z 00470fe0 f   AuthProc.obj
 0001:00070040       ?setAuthServerProc@cAuthProc@@QAEXPAVCAuthServerProc@@@Z 00471040 f i AuthProc.obj
 0001:00070330       ?set@sUniqueID@AUTH@@QAEXKK@Z 00471330 f i AuthProc.obj
 0001:00070380       ?login_worker@@YGIPAX@Z    00471380 f   LoginProc.obj
 0001:00070460       ??0cLoginProc@@QAE@XZ      00471460 f   LoginProc.obj
 0001:00070520       ??1cLoginProc@@QAE@XZ      00471520 f   LoginProc.obj
 0001:00070580       ?Start@cLoginProc@@QAEXXZ  00471580 f   LoginProc.obj
 0001:000705f0       ?Stop@cLoginProc@@QAEXXZ   004715f0 f   LoginProc.obj
 0001:00070660       ?Run@cLoginProc@@QAEXXZ    00471660 f   LoginProc.obj
 0001:00071030       ??0CFieldBattleParser@@QAE@XZ 00472030 f   FieldBattleParseer.obj
 0001:00071060       ??1CFieldBattleParser@@QAE@XZ 00472060 f   FieldBattleParseer.obj
 0001:00071090       ?Init@CFieldBattleParser@@QAEXXZ 00472090 f   FieldBattleParseer.obj
 0001:000710c0       ?Load@CFieldBattleParser@@QAEXPAD@Z 004720c0 f   FieldBattleParseer.obj
 0001:000713d0       ?GetCalcDamage@CFieldBattleParser@@QAEFFFF@Z 004723d0 f   FieldBattleParseer.obj
 0001:00071540       ?GetUnitKind@CFieldBattleParser@@QAEFG@Z 00472540 f   FieldBattleParseer.obj
 0001:000715d0       ?IsFieldAttackUnit@CFieldBattleParser@@QAEHG@Z 004725d0 f   FieldBattleParseer.obj
 0001:00071670       ?GetItemID@CFieldBattleParser@@QAEGF@Z 00472670 f   FieldBattleParseer.obj
 0001:000716f0       ??0CAttackPowerParser@@QAE@XZ 004726f0 f   FieldBattleParseer.obj
 0001:00071720       ??1CAttackPowerParser@@QAE@XZ 00472720 f   FieldBattleParseer.obj
 0001:00071750       ?Load@CAttackPowerParser@@QAEXPAD@Z 00472750 f   FieldBattleParseer.obj
 0001:000719c0       ?GetAttackPercent@CAttackPowerParser@@QAEFH@Z 004729c0 f   FieldBattleParseer.obj
 0001:00071a60       ?GetDefencePercent@CAttackPowerParser@@QAEFH@Z 00472a60 f   FieldBattleParseer.obj
 0001:00071b00       ??0CQuestEventItemParser@@QAE@XZ 00472b00 f   QuestEventItemParser.obj
 0001:00071b30       ??1CQuestEventItemParser@@QAE@XZ 00472b30 f   QuestEventItemParser.obj
 0001:00071b60       ?Load@CQuestEventItemParser@@QAEHPADH@Z 00472b60 f   QuestEventItemParser.obj
 0001:00071e90       ?GetItemName@CQuestEventItemParser@@QAEPAUstQuestEventItem@@H@Z 00472e90 f   QuestEventItemParser.obj
 0001:00071f10       ?IsLogUseItem@CQuestEventItemParser@@QAEHH@Z 00472f10 f   QuestEventItemParser.obj
 0001:00071f70       ?GetNextItemID@CQuestEventItemParser@@QAEHH@Z 00472f70 f   QuestEventItemParser.obj
 0001:00071fc0       ??0CQuestEventItemMgr@@QAE@XZ 00472fc0 f   QuestEventItemParser.obj
 0001:00072010       ??1CQuestEventItemMgr@@QAE@XZ 00473010 f   QuestEventItemParser.obj
 0001:000720a0       ??_ECQuestEventItemParser@@QAEPAXI@Z 004730a0 f i QuestEventItemParser.obj
 0001:00072160       ?Init@CQuestEventItemMgr@@QAEXF@Z 00473160 f   QuestEventItemParser.obj
 0001:00072260       ?Load@CQuestEventItemMgr@@QAEXPADH@Z 00473260 f   QuestEventItemParser.obj
 0001:000722e0       ?GetEventQuest@CQuestEventItemMgr@@QAEPAVCQuestEventItemParser@@H@Z 004732e0 f   QuestEventItemParser.obj
 0001:00072370       ?GetHostIP@@YAXPAD@Z       00473370 f   SOGameServerParser.obj
 0001:00072490       ??0SOGameServerParser@@QAE@XZ 00473490 f   SOGameServerParser.obj
 0001:000725e0       ??_GSOGameServerParser@@UAEPAXI@Z 004735e0 f i SOGameServerParser.obj
 0001:000725e0       ??_ESOGameServerParser@@UAEPAXI@Z 004735e0 f i SOGameServerParser.obj
 0001:00072650       ??1SOGameServerParser@@UAE@XZ 00473650 f   SOGameServerParser.obj
 0001:000726a0       ?Load@SOGameServerParser@@QAEHXZ 004736a0 f   SOGameServerParser.obj
 0001:00072b20       ?Load@SOGameServerParser@@QAEHPAD@Z 00473b20 f   SOGameServerParser.obj
 0001:00073310       ?GetConcurrent@SOGameServerParser@@QAEGXZ 00474310 f   SOGameServerParser.obj
 0001:00073350       ?SetConcurrent@SOGameServerParser@@QAEXG@Z 00474350 f   SOGameServerParser.obj
 0001:000733a0       ?GetWorldID@SOGameServerParser@@QAEGXZ 004743a0 f   SOGameServerParser.obj
 0001:000733e0       ?GetAuthServerIP@SOGameServerParser@@QAEPADXZ 004743e0 f   SOGameServerParser.obj
 0001:00073420       ?GetFrontServerIP@SOGameServerParser@@QAEPADXZ 00474420 f   SOGameServerParser.obj
 0001:00073460       ?GetDB1IPString@SOGameServerParser@@QAEPADXZ 00474460 f   SOGameServerParser.obj
 0001:000734a0       ?GetDB2IPString@SOGameServerParser@@QAEPADXZ 004744a0 f   SOGameServerParser.obj
 0001:000734e0       ?GetDBName1String@SOGameServerParser@@QAEPADXZ 004744e0 f   SOGameServerParser.obj
 0001:00073520       ?GetDBName2String@SOGameServerParser@@QAEPADXZ 00474520 f   SOGameServerParser.obj
 0001:00073560       ?GetDBUserString@SOGameServerParser@@QAEPADXZ 00474560 f   SOGameServerParser.obj
 0001:000735a0       ?GetLanguageCode@SOGameServerParser@@QAEDXZ 004745a0 f   SOGameServerParser.obj
 0001:000735e0       ?IsTestServer@SOGameServerParser@@QAEHXZ 004745e0 f   SOGameServerParser.obj
 0001:00073620       ?GetNumAllowedConcurrentUser@SOGameServerParser@@QAEGXZ 00474620 f   SOGameServerParser.obj
 0001:00073660       ?IsGameGuard@SOGameServerParser@@QAEHXZ 00474660 f   SOGameServerParser.obj
 0001:000736a0       ?IsGameEvent@SOGameServerParser@@QAEHXZ 004746a0 f   SOGameServerParser.obj
 0001:000736e0       ??0SOGate@@QAE@PAVSOWorld@@PAVSODatabase@@PAVSOServer@@@Z 004746e0 f   SOGate.obj
 0001:000737f0       ??1SOGate@@QAE@XZ          004747f0 f   SOGate.obj
 0001:00073830       ?ResetSocketSets@SOGate@@AAEXXZ 00474830 f   SOGate.obj
 0001:00073860       ?Poll@SOGate@@QAEXXZ       00474860 f   SOGate.obj
 0001:00073890       ?LogOut@SOGate@@QAEXPAVSOPlayer@@@Z 00474890 f   SOGate.obj
 0001:000738c0       ?Disconnect@SOGate@@QAEXXZ 004748c0 f   SOGate.obj
 0001:000738f0       ?InitUDP@SOGate@@QAEXXZ    004748f0 f   SOGate.obj
 0001:000739c0       ?SendLogInfo@SOGate@@QAEXI@Z 004749c0 f   SOGate.obj
 0001:00073a90       ?ConnectDBCache@SOGate@@QAEHXZ 00474a90 f   SOGate.obj
 0001:00073ad0       ?ConnectPoll@SOGate@@QAEXXZ 00474ad0 f   SOGate.obj
 0001:00073db0       ??0cltGMManager@@QAE@XZ    00474db0 f   SOGMList.obj
 0001:00073e00       ?ConveterStringIPToNumericIP@cltGMManager@@AAEKPAD@Z 00474e00 f   SOGMList.obj
 0001:00073f70       ?AddGM@cltGMManager@@QAEHPAD@Z 00474f70 f   SOGMList.obj
 0001:00074040       ?IsGM@cltGMManager@@QAEHPAD@Z 00475040 f   SOGMList.obj
 0001:00074200       ?_FrontServerThread@@YGIPAX@Z 00475200 f   SOMain.obj
 0001:00074350       ?FrontProcStart@@YAXXZ     00475350 f   SOMain.obj
 0001:000743b0       ?createSvrDir@@YAXXZ       004753b0 f   SOMain.obj
 0001:00074470       ?writeInfoToFile@@YAXPAD0ZZ 00475470 f   SOMain.obj
 0001:00074670       _main                      00475670 f   SOMain.obj
 0001:00074a80       ?SetServer@cAuthProc@@QAEXPAVSOServer@@@Z 00475a80 f i SOMain.obj
 0001:00074ac0       ?SetServer@cLoginProc@@QAEXPAVSOServer@@@Z 00475ac0 f i SOMain.obj
 0001:00074b00       ??_GSOServer@@QAEPAXI@Z    00475b00 f i SOMain.obj
 0001:00074e20       ??0CWarpParser@@QAE@XZ     00475e20 f   WarpParser.obj
 0001:00074e50       ??1CWarpParser@@QAE@XZ     00475e50 f   WarpParser.obj
 0001:00074e80       ?Load@CWarpParser@@QAEXPAD@Z 00475e80 f   WarpParser.obj
 0001:000750d0       ?GetMapPosition@CWarpParser@@QAEFG@Z 004760d0 f   WarpParser.obj
 0001:00075150       ??0CWarTimeParser@@QAE@XZ  00476150 f   WarTimeParser.obj
 0001:000751b0       ??1CWarTimeParser@@QAE@XZ  004761b0 f   WarTimeParser.obj
 0001:000751e0       ?Load@CWarTimeParser@@QAEXPAD@Z 004761e0 f   WarTimeParser.obj
 0001:00075630       ?IsWarDay@CWarTimeParser@@QAEHH@Z 00476630 f   WarTimeParser.obj
 0001:000756c0       ?IsWarTime@CWarTimeParser@@QAEHH@Z 004766c0 f   WarTimeParser.obj
 0001:00075740       ?GetWarStart@CWarTimeParser@@QAEFXZ 00476740 f i WarTimeParser.obj
 0001:00075780       ?IsWarCheck@CWarTimeParser@@QAEHHH@Z 00476780 f   WarTimeParser.obj
 0001:00075820       ?GetWarEnd@CWarTimeParser@@QAEFXZ 00476820 f i WarTimeParser.obj
 0001:00075860       ??0CBlackPig@@QAE@XZ       00476860 f   BlackPig.obj
 0001:000758a0       ??1CBlackPig@@QAE@XZ       004768a0 f   BlackPig.obj
 0001:000758d0       ?SetAutoKey@CBlackPig@@QAEXH@Z 004768d0 f   BlackPig.obj
 0001:00075910       ?Encode@CBlackPig@@QAEXPAE0PAK@Z 00476910 f   BlackPig.obj
 0001:00075a00       ?Decode@CBlackPig@@QAEHPAE0PAK@Z 00476a00 f   BlackPig.obj
 0001:00075b10       ?CheckLeadByte@@YA_NPAD@Z  00476b10 f   Common.obj
 0001:00075bb0       ?MakeDblQuote@@YAXPAD0@Z   00476bb0 f   Common.obj
 0001:00075c80       ??0cltFriendList@@QAE@XZ   00476c80 f   Friend.obj
 0001:00075d20       ??_GcltFriendList@@UAEPAXI@Z 00476d20 f i Friend.obj
 0001:00075d20       ??_EcltFriendList@@UAEPAXI@Z 00476d20 f i Friend.obj
 0001:00075d90       ??1cltFriendList@@UAE@XZ   00476d90 f   Friend.obj
 0001:00075de0       ?Init@cltFriendList@@QAEXXZ 00476de0 f   Friend.obj
 0001:00075e30       ?GetFriend@cltFriendList@@QAEPAUstrFriendInfo@@PAD@Z 00476e30 f   Friend.obj
 0001:00075ec0       ?GetFriend@cltFriendList@@QAEPAUstrFriendInfo@@H@Z 00476ec0 f   Friend.obj
 0001:00075f10       ?GetNumFriends@cltFriendList@@QAEHXZ 00476f10 f   Friend.obj
 0001:00075f60       ?IsLogin@cltFriendList@@QAEHPAD@Z 00476f60 f   Friend.obj
 0001:00075fd0       ?SetLogin@cltFriendList@@QAEXPADH@Z 00476fd0 f   Friend.obj
 0001:00076040       ?IsDenial@cltFriendList@@QAEHPAD@Z 00477040 f   Friend.obj
 0001:000760b0       ?SetDenial@cltFriendList@@QAEHPADH@Z 004770b0 f   Friend.obj
 0001:00076120       ?AddFriend@cltFriendList@@QAE?AW4FRESULT@@PAD0H@Z 00477120 f   Friend.obj
 0001:00076200       ?DeleteFriend@cltFriendList@@QAEHPAD@Z 00477200 f   Friend.obj
 0001:00076280       ?DeleteAllFriend@cltFriendList@@QAEXXZ 00477280 f   Friend.obj
 0001:000762d0       ??0?$cltList@UstrFriendInfo@@@@QAE@XZ 004772d0 f i Friend.obj
 0001:00076340       ??1?$cltList@UstrFriendInfo@@@@UAE@XZ 00477340 f i Friend.obj
 0001:00076390       ?Create@?$cltList@UstrFriendInfo@@@@QAEXH@Z 00477390 f i Friend.obj
 0001:00076430       ?MakeEmpty@?$cltList@UstrFriendInfo@@@@QAEXXZ 00477430 f i Friend.obj
 0001:00076480       ?Add@?$cltList@UstrFriendInfo@@@@QAE_NPAUstrFriendInfo@@@Z 00477480 f i Friend.obj
 0001:00076510       ?Delete@?$cltList@UstrFriendInfo@@@@QAE_NPAUstrFriendInfo@@@Z 00477510 f i Friend.obj
 0001:000765b0       ?ResetPos@?$cltList@UstrFriendInfo@@@@QAEXXZ 004775b0 f i Friend.obj
 0001:000765f0       ?GetNextData@?$cltList@UstrFriendInfo@@@@QAEPAUstrFriendInfo@@XZ 004775f0 f i Friend.obj
 0001:00076660       ?GetData@?$cltList@UstrFriendInfo@@@@QAEPAUstrFriendInfo@@H@Z 00477660 f i Friend.obj
 0001:000766c0       ?GetLength@?$cltList@UstrFriendInfo@@@@QAEHXZ 004776c0 f i Friend.obj
 0001:00076700       ??_G?$cltList@UstrFriendInfo@@@@UAEPAXI@Z 00477700 f i Friend.obj
 0001:00076700       ??_E?$cltList@UstrFriendInfo@@@@UAEPAXI@Z 00477700 f i Friend.obj
 0001:00076770       ?Release@?$cltList@UstrFriendInfo@@@@QAEXXZ 00477770 f i Friend.obj
 0001:00076810       ?Delete@?$cltList@UstrFriendInfo@@@@QAE_NH@Z 00477810 f i Friend.obj
 0001:000768d0       ??0cltGuildClassParser@@QAE@XZ 004778d0 f   GuildClassParser.obj
 0001:00076920       ??1cltGuildClassParser@@QAE@XZ 00477920 f   GuildClassParser.obj
 0001:00076970       ?Init@cltGuildClassParser@@QAEHPAD@Z 00477970 f   GuildClassParser.obj
 0001:00076e50       ?Free@cltGuildClassParser@@QAEXXZ 00477e50 f   GuildClassParser.obj
 0001:00077180       ??0HQFileManager@@QAE@XZ   00478180 f   HQFileManager.obj
 0001:000771f0       ??_GHQFileManager@@UAEPAXI@Z 004781f0 f i HQFileManager.obj
 0001:000771f0       ??_EHQFileManager@@UAEPAXI@Z 004781f0 f i HQFileManager.obj
 0001:00077260       ??1HQFileManager@@UAE@XZ   00478260 f   HQFileManager.obj
 0001:000772a0       ?GetData@HQFileManager@@QAEPAU_iobuf@@PAD@Z 004782a0 f   HQFileManager.obj
 0001:00077360       ?HqFileOpen@HQFileManager@@QAEHPAD0@Z 00478360 f   HQFileManager.obj
 0001:000775c0       ?DeCode@HQFileManager@@QAEXPAD@Z 004785c0 f   HQFileManager.obj
 0001:00077670       ?FileDeCode@HQFileManager@@QAEXPAD0@Z 00478670 f   HQFileManager.obj
 0001:00077e00       ?Createdirectory@HQFileManager@@QAEHPADIH@Z 00478e00 f   HQFileManager.obj
 0001:00078030       ?Free@HQFileManager@@QAEXXZ 00479030 f   HQFileManager.obj
 0001:000781b0       ??0cltIGuildClass@@QAE@XZ  004791b0 f   IGuildClass.obj
 0001:00078200       ??1cltIGuildClass@@QAE@XZ  00479200 f   IGuildClass.obj
 0001:00078250       ?Init@cltIGuildClass@@QAEHPAD@Z 00479250 f   IGuildClass.obj
 0001:00078340       ?Free@cltIGuildClass@@QAEXXZ 00479340 f   IGuildClass.obj
 0001:00078390       ?GetNumericClassCode@cltIGuildClass@@QAEHPAD@Z 00479390 f   IGuildClass.obj
 0001:00078440       ?GetStringClassCode@cltIGuildClass@@QAEPADH@Z 00479440 f   IGuildClass.obj
 0001:000784d0       ?GetClassNameA@cltIGuildClass@@QAEHH@Z 004794d0 f   IGuildClass.obj
 0001:00078560       ?GetHighClass@cltIGuildClass@@QAEPADPAD0@Z 00479560 f   IGuildClass.obj
 0001:000786b0       ?GetHighClass@cltIGuildClass@@QAEHHH@Z 004796b0 f   IGuildClass.obj
 0001:000787d0       ?GetJWJCode@cltIGuildClass@@QAEHXZ 004797d0 f   IGuildClass.obj
 0001:00078810       ?GetSHNCode@cltIGuildClass@@QAEHXZ 00479810 f   IGuildClass.obj
 0001:00078850       ?GetHNSCode@cltIGuildClass@@QAEHXZ 00479850 f   IGuildClass.obj
 0001:00078890       ?GetDHSCode@cltIGuildClass@@QAEHXZ 00479890 f   IGuildClass.obj
 0001:000788d0       ?GetHNDCode@cltIGuildClass@@QAEHXZ 004798d0 f   IGuildClass.obj
 0001:00078910       ?GetDAICode@cltIGuildClass@@QAEHXZ 00479910 f   IGuildClass.obj
 0001:00078950       ?ClassComp@cltIGuildClass@@QAEHHH@Z 00479950 f   IGuildClass.obj
 0001:00078a90       ??0OnlineFollower@@QAE@XZ  00479a90 f   IOnlineFollower.obj
 0001:00078ae0       ??1OnlineFollower@@QAE@XZ  00479ae0 f   IOnlineFollower.obj
 0001:00078b30       ?Init@OnlineFollower@@QAEXXZ 00479b30 f   IOnlineFollower.obj
 0001:00078c40       ?GetItem@OnlineFollower@@QAEPAUMyItemData@@G@Z 00479c40 f   IOnlineFollower.obj
 0001:00078ce0       ?GetItemIndex@OnlineFollower@@QAEHG@Z 00479ce0 f   IOnlineFollower.obj
 0001:00078d70       ?GetItemIndex@OnlineFollower@@QAEHGG@Z 00479d70 f   IOnlineFollower.obj
 0001:00078e20       ?GetEmptyItem@OnlineFollower@@QAEPAUMyItemData@@XZ 00479e20 f   IOnlineFollower.obj
 0001:00078eb0       ?CheckWeight@OnlineFollower@@QAEHI@Z 00479eb0 f   IOnlineFollower.obj
 0001:00078f20       ?AddItem@OnlineFollower@@QAEKPAUMyItemData@@H@Z 00479f20 f   IOnlineFollower.obj
 0001:00079120       ?AddItem@OnlineFollower@@QAEKGGH@Z 0047a120 f   IOnlineFollower.obj
 0001:00079240       ?AddItem@OnlineFollower@@QAEKGGPAFH@Z 0047a240 f   IOnlineFollower.obj
 0001:00079380       ?DelItem@OnlineFollower@@QAEKPAUMyItemData@@H@Z 0047a380 f   IOnlineFollower.obj
 0001:000794f0       ?DelItem@OnlineFollower@@QAEKGGPAFH@Z 0047a4f0 f   IOnlineFollower.obj
 0001:00079610       ?DelItem@OnlineFollower@@QAEKGGH@Z 0047a610 f   IOnlineFollower.obj
 0001:00079720       ?SetWearItem@OnlineFollower@@QAEHEGF@Z 0047a720 f   IOnlineFollower.obj
 0001:00079800       ?IsEmpty@OnlineFollower@@QAEHXZ 0047a800 f   IOnlineFollower.obj
 0001:00079890       ?CanAddItem@OnlineFollower@@QAEHGGFH@Z 0047a890 f   IOnlineFollower.obj
 0001:000799c0       ?CanAddItem@OnlineFollower@@QAEHGGH@Z 0047a9c0 f   IOnlineFollower.obj
 0001:00079ae0       ?GetItemByPos@OnlineFollower@@QAEHFPAPAUMyItemData@@@Z 0047aae0 f   IOnlineFollower.obj
 0001:00079b90       ?CanAddItem@OnlineFollower@@QAEHPAG0GH@Z 0047ab90 f   IOnlineFollower.obj
 0001:00079d60       ?IsOverflowItemWeight@OnlineFollower@@QAEKK@Z 0047ad60 f   IOnlineFollower.obj
 0001:00079dd0       ?IsOverWeight@OnlineFollower@@QAEHXZ 0047add0 f   IOnlineFollower.obj
 0001:00079e30       ?AddItemWeight@OnlineFollower@@QAEHGG@Z 0047ae30 f   IOnlineFollower.obj
 0001:00079ed0       ?DelItemWeight@OnlineFollower@@QAEHGG@Z 0047aed0 f   IOnlineFollower.obj
 0001:00079f70       ?InitStaticVariable@OnlineFollower@@SAXPAVCItem@@@Z 0047af70 f   IOnlineFollower.obj
 0001:00079fa0       ?GetTotalItemWeight@OnlineFollower@@QAEKXZ 0047afa0 f   IOnlineFollower.obj
 0001:00079fe0       ?GetMaxWeight@OnlineFollower@@QAEKXZ 0047afe0 f   IOnlineFollower.obj
 0001:0007a030       ?GetItemQuantityToTake@OnlineFollower@@QAEGG@Z 0047b030 f   IOnlineFollower.obj
 0001:0007a190       ?IsItemWeightOverflowed@OnlineFollower@@QAEHXZ 0047b190 f   IOnlineFollower.obj
 0001:0007a1f0       ?TakeOffItem@OnlineFollower@@QAEHEGFPAUMyItemData@@@Z 0047b1f0 f   IOnlineFollower.obj
 0001:0007a2e0       ?DisAppearItem@OnlineFollower@@QAEHEGFPAUMyItemData@@@Z 0047b2e0 f   IOnlineFollower.obj
 0001:0007a3a0       ?PutOnItem@OnlineFollower@@QAEHEGFPAUMyItemData@@@Z 0047b3a0 f   IOnlineFollower.obj
 0001:0007a4e0       ?GetWearItem@OnlineFollower@@QAEGEAAHAAF@Z 0047b4e0 f   IOnlineFollower.obj
 0001:0007a5d0       ?GetWearItems@OnlineFollower@@QAEHQAG@Z 0047b5d0 f   IOnlineFollower.obj
 0001:0007a630       ?CanPutOnItem@OnlineFollower@@QAEHEGFHAAC@Z 0047b630 f   IOnlineFollower.obj
 0001:0007a990       ?CanTakeOffItem@OnlineFollower@@QAEHEGF@Z 0047b990 f   IOnlineFollower.obj
 0001:0007aa50       ?HasItem@OnlineFollower@@QAEHGG@Z 0047ba50 f   IOnlineFollower.obj
 0001:0007aae0       ?CanMoveItem@OnlineFollower@@QAEHGGF@Z 0047bae0 f   IOnlineFollower.obj
 0001:0007ab60       ?MoveItem@OnlineFollower@@QAEHGGPAF@Z 0047bb60 f   IOnlineFollower.obj
 0001:0007ac40       ?IsEmptyItemInInventory@OnlineFollower@@QAEHF@Z 0047bc40 f   IOnlineFollower.obj
 0001:0007acc0       ?IsValidItemPosInInventory@OnlineFollower@@QAEHF@Z 0047bcc0 f   IOnlineFollower.obj
 0001:0007ad10       ?CanWeaponBeUpgraded@OnlineFollower@@QAEHXZ 0047bd10 f   IOnlineFollower.obj
 0001:0007ad80       ?UpgradeWeapon@OnlineFollower@@QAEXG@Z 0047bd80 f   IOnlineFollower.obj
 0001:0007ade0       ?BrakeWeapon@OnlineFollower@@QAEXXZ 0047bde0 f   IOnlineFollower.obj
 0001:0007ae40       ??0IOnlineFollower@@QAE@XZ 0047be40 f   IOnlineFollower.obj
 0001:0007aee0       ??1IOnlineFollower@@QAE@XZ 0047bee0 f   IOnlineFollower.obj
 0001:0007af80       ?Init@IOnlineFollower@@QAEXXZ 0047bf80 f   IOnlineFollower.obj
 0001:0007b000       ?Free@IOnlineFollower@@QAEXXZ 0047c000 f   IOnlineFollower.obj
 0001:0007b030       ?GetFollower@IOnlineFollower@@QAEPAUOnlineFollower@@E@Z 0047c030 f   IOnlineFollower.obj
 0001:0007b0c0       ?GetHero@IOnlineFollower@@QAEPAUOnlineFollower@@XZ 0047c0c0 f   IOnlineFollower.obj
 0001:0007b0f0       ?FindEmptyItemBuffer@IOnlineFollower@@QAEGE@Z 0047c0f0 f   IOnlineFollower.obj
 0001:0007b190       ?FindSameItemBuffer@IOnlineFollower@@QAEGEG@Z 0047c190 f   IOnlineFollower.obj
 0001:0007b250       ?CheckWeight@IOnlineFollower@@QAEHEI@Z 0047c250 f   IOnlineFollower.obj
 0001:0007b2c0       ?IsOverWeight@IOnlineFollower@@QAEHXZ 0047c2c0 f   IOnlineFollower.obj
 0001:0007b370       ?CheckItem@IOnlineFollower@@QAEHGH@Z 0047c370 f   IOnlineFollower.obj
 0001:0007b490       ?GetItemCount@IOnlineFollower@@QAEHG@Z 0047c490 f   IOnlineFollower.obj
 0001:0007b5d0       ?AddItem@IOnlineFollower@@QAEKEPAUMyItemData@@@Z 0047c5d0 f   IOnlineFollower.obj
 0001:0007b640       ?AddItem@IOnlineFollower@@QAEKEGG@Z 0047c640 f   IOnlineFollower.obj
 0001:0007b6c0       ?AddItem@IOnlineFollower@@QAEKEGGF@Z 0047c6c0 f   IOnlineFollower.obj
 0001:0007b730       ?AddItem@IOnlineFollower@@QAEKEGGPAF@Z 0047c730 f   IOnlineFollower.obj
 0001:0007b7b0       ?DelItem@IOnlineFollower@@QAEKEPAUMyItemData@@@Z 0047c7b0 f   IOnlineFollower.obj
 0001:0007b820       ?DelItem@IOnlineFollower@@QAEKEGG@Z 0047c820 f   IOnlineFollower.obj
 0001:0007b8a0       ?DelItem@IOnlineFollower@@QAEKEGGPAF@Z 0047c8a0 f   IOnlineFollower.obj
 0001:0007b920       ?GetItem@IOnlineFollower@@QAEHEGPAUMyItemData@@@Z 0047c920 f   IOnlineFollower.obj
 0001:0007b9e0       ?GetItem@IOnlineFollower@@QAEPAUMyItemData@@EGF@Z 0047c9e0 f   IOnlineFollower.obj
 0001:0007baa0       ?GetItemByID@IOnlineFollower@@QAEPAUMyItemData@@EG@Z 0047caa0 f   IOnlineFollower.obj
 0001:0007bb10       ?GetItemByPos@IOnlineFollower@@QAEHEFPAPAUMyItemData@@@Z 0047cb10 f   IOnlineFollower.obj
 0001:0007bb90       ?HasItem@IOnlineFollower@@QAEHEGG@Z 0047cb90 f   IOnlineFollower.obj
 0001:0007bc10       ?GetItemIndex@IOnlineFollower@@QAEHEGG@Z 0047cc10 f   IOnlineFollower.obj
 0001:0007bc90       ?GetItemIndex@IOnlineFollower@@QAEHEG@Z 0047cc90 f   IOnlineFollower.obj
 0001:0007bd00       ?IsItem@IOnlineFollower@@QAEHEF@Z 0047cd00 f   IOnlineFollower.obj
 0001:0007bd90       ?IsSameItem@IOnlineFollower@@QAEHEGF@Z 0047cd90 f   IOnlineFollower.obj
 0001:0007be30       ?GetItemList@IOnlineFollower@@QAEPAUMyItemData@@E@Z 0047ce30 f   IOnlineFollower.obj
 0001:0007be80       ?IsValidFollower@IOnlineFollower@@QAEHE@Z 0047ce80 f   IOnlineFollower.obj
 0001:0007bef0       ?GetFollowerCharID@IOnlineFollower@@QAEGE@Z 0047cef0 f   IOnlineFollower.obj
 0001:0007bf60       ?SetFollowerCharID@IOnlineFollower@@QAEXEG@Z 0047cf60 f   IOnlineFollower.obj
 0001:0007bfe0       ?InitFollower@IOnlineFollower@@QAEHEPAUOnFollowerInfo@@HPAVCItem@@@Z 0047cfe0 f   IOnlineFollower.obj
 0001:0007c220       ?InitFollower@IOnlineFollower@@QAEHPAUOnFollowerInfo@@HPAVCItem@@@Z 0047d220 f   IOnlineFollower.obj
 0001:0007c330       ?UpdataFollower@IOnlineFollower@@QAEHEPAUOnChangeJobFollowerInfo@@HPAVCItem@@@Z 0047d330 f   IOnlineFollower.obj
 0001:0007c510       ?DeleteFollower@IOnlineFollower@@QAEHE@Z 0047d510 f   IOnlineFollower.obj
 0001:0007c580       ?GetFollowerBaseParameterCurExp@IOnlineFollower@@QAEHE@Z 0047d580 f   IOnlineFollower.obj
 0001:0007c600       ?GetFollowerBaseParameterSTR@IOnlineFollower@@QAEHE@Z 0047d600 f   IOnlineFollower.obj
 0001:0007c680       ?GetFollowerBaseParameterDEX@IOnlineFollower@@QAEHE@Z 0047d680 f   IOnlineFollower.obj
 0001:0007c700       ?GetFollowerBaseParameterVIT@IOnlineFollower@@QAEHE@Z 0047d700 f   IOnlineFollower.obj
 0001:0007c780       ?GetFollowerBaseParameterINT@IOnlineFollower@@QAEHE@Z 0047d780 f   IOnlineFollower.obj
 0001:0007c800       ?GetFollowerBaseParameterAC@IOnlineFollower@@QAEHE@Z 0047d800 f   IOnlineFollower.obj
 0001:0007c880       ?GetFollowerBaseParameterBonus@IOnlineFollower@@QAEHE@Z 0047d880 f   IOnlineFollower.obj
 0001:0007c900       ?SetFollowerBaseParameterBonus@IOnlineFollower@@QAEHEH@Z 0047d900 f   IOnlineFollower.obj
 0001:0007c990       ?SetFollowerParameterBonusSubTract1@IOnlineFollower@@QAEHE@Z 0047d990 f   IOnlineFollower.obj
 0001:0007ca60       ?GetFollowerBaseParameterDamageResist@IOnlineFollower@@QAEHE@Z 0047da60 f   IOnlineFollower.obj
 0001:0007cae0       ?GetFollowerBaseParameterMagicResist@IOnlineFollower@@QAEHE@Z 0047dae0 f   IOnlineFollower.obj
 0001:0007cb60       ?GetFollowerBaseParameterEquipMinDamage@IOnlineFollower@@QAEHE@Z 0047db60 f   IOnlineFollower.obj
 0001:0007cbe0       ?GetFollowerBaseParameterEquipMaxDamage@IOnlineFollower@@QAEHE@Z 0047dbe0 f   IOnlineFollower.obj
 0001:0007cc60       ?GetFollowerBaseParameterLiftConstance@IOnlineFollower@@QAEHE@Z 0047dc60 f   IOnlineFollower.obj
 0001:0007ccd0       ?GetFollowerParameterLevel@IOnlineFollower@@QAEHE@Z 0047dcd0 f   IOnlineFollower.obj
 0001:0007cd50       ?GetFollowerParameterCurExp@IOnlineFollower@@QAEHE@Z 0047dd50 f   IOnlineFollower.obj
 0001:0007cdd0       ?GetFollowerParameterPrevExp@IOnlineFollower@@QAEHE@Z 0047ddd0 f   IOnlineFollower.obj
 0001:0007ce40       ?GetFollowerParameterNextExp@IOnlineFollower@@QAEHE@Z 0047de40 f   IOnlineFollower.obj
 0001:0007cec0       ?GetFollowerParameterNation@IOnlineFollower@@QAEHE@Z 0047dec0 f   IOnlineFollower.obj
 0001:0007cf40       ?SetFollowerParameterNation@IOnlineFollower@@QAEXEH@Z 0047df40 f   IOnlineFollower.obj
 0001:0007cfc0       ?GetFollowerParameterTotalStr@IOnlineFollower@@QAEHE@Z 0047dfc0 f   IOnlineFollower.obj
 0001:0007d040       ?GetFollowerParameterTotalDex@IOnlineFollower@@QAEHE@Z 0047e040 f   IOnlineFollower.obj
 0001:0007d0c0       ?GetFollowerParameterTotalVit@IOnlineFollower@@QAEHE@Z 0047e0c0 f   IOnlineFollower.obj
 0001:0007d140       ?GetFollowerParameterTotalInt@IOnlineFollower@@QAEHE@Z 0047e140 f   IOnlineFollower.obj
 0001:0007d1c0       ?GetFollowerParameterTotalAC@IOnlineFollower@@QAEHE@Z 0047e1c0 f   IOnlineFollower.obj
 0001:0007d240       ?GetFollowerParameterTotalDamageResist@IOnlineFollower@@QAEHE@Z 0047e240 f   IOnlineFollower.obj
 0001:0007d2c0       ?GetFollowerParameterTotalMagicResist@IOnlineFollower@@QAEHE@Z 0047e2c0 f   IOnlineFollower.obj
 0001:0007d340       ?GetFollowerParameterTotalEquipMinDamage@IOnlineFollower@@QAEHE@Z 0047e340 f   IOnlineFollower.obj
 0001:0007d3c0       ?GetFollowerParameterTotalEquipMaxDamage@IOnlineFollower@@QAEHE@Z 0047e3c0 f   IOnlineFollower.obj
 0001:0007d440       ?GetFollowerParameterLife@IOnlineFollower@@QAEHE@Z 0047e440 f   IOnlineFollower.obj
 0001:0007d4c0       ?SetFollowerParameterLife@IOnlineFollower@@QAEHEH@Z 0047e4c0 f   IOnlineFollower.obj
 0001:0007d550       ?GetFollowerParameterMana@IOnlineFollower@@QAEHE@Z 0047e550 f   IOnlineFollower.obj
 0001:0007d5d0       ?SetFollowerParameterMana@IOnlineFollower@@QAEHEH@Z 0047e5d0 f   IOnlineFollower.obj
 0001:0007d660       ?GetFollowerParameterMoveSpeed@IOnlineFollower@@QAEHE@Z 0047e660 f   IOnlineFollower.obj
 0001:0007d6e0       ?GetFollowerParameterMaxWeight@IOnlineFollower@@QAEHE@Z 0047e6e0 f   IOnlineFollower.obj
 0001:0007d760       ?GetFollowerParameterCurWeight@IOnlineFollower@@QAEHE@Z 0047e760 f   IOnlineFollower.obj
 0001:0007d7e0       ?GetFollowerParameterCredit@IOnlineFollower@@QAEHE@Z 0047e7e0 f   IOnlineFollower.obj
 0001:0007d860       ?GetFollowerParameterLiftPower@IOnlineFollower@@QAEHE@Z 0047e860 f   IOnlineFollower.obj
 0001:0007d8e0       ?GetFollowerParameterBonus@IOnlineFollower@@QAEFE@Z 0047e8e0 f   IOnlineFollower.obj
 0001:0007d960       ?GetFollowerParameterMaxLife@IOnlineFollower@@QAEHE@Z 0047e960 f   IOnlineFollower.obj
 0001:0007d9e0       ?GetFollowerParameterMaxMana@IOnlineFollower@@QAEHE@Z 0047e9e0 f   IOnlineFollower.obj
 0001:0007da60       ?GetFollowerParameterBattlePower@IOnlineFollower@@QAEHE@Z 0047ea60 f   IOnlineFollower.obj
 0001:0007dae0       ?GetFollowerParameterBattlePower@IOnlineFollower@@QAEHXZ 0047eae0 f   IOnlineFollower.obj
 0001:0007db60       ?GetFollowerParameterKind@IOnlineFollower@@QAEHE@Z 0047eb60 f   IOnlineFollower.obj
 0001:0007dbe0       ?GetFollowerName@IOnlineFollower@@QAEPADE@Z 0047ebe0 f   IOnlineFollower.obj
 0001:0007dc50       ?SetFollowerName@IOnlineFollower@@QAEHEPAD@Z 0047ec50 f   IOnlineFollower.obj
 0001:0007dcf0       ?Bonus_FollowerParameterUp@IOnlineFollower@@QAEHEW4AbilityKindType@@FPAVCItem@@@Z 0047ecf0 f   IOnlineFollower.obj
 0001:0007e180       ?AllCharacterDeleteLife@IOnlineFollower@@QAEHH@Z 0047f180 f   IOnlineFollower.obj
 0001:0007e290       ?AllCharacterDeleteLifePoint@IOnlineFollower@@QAEHH@Z 0047f290 f   IOnlineFollower.obj
 0001:0007e370       ?AllCharacterDeleteLifePercent@IOnlineFollower@@QAEHH@Z 0047f370 f   IOnlineFollower.obj
 0001:0007e470       ?GetFollowerNum@IOnlineFollower@@QAEEXZ 0047f470 f   IOnlineFollower.obj
 0001:0007e500       ?GetBattleInfo@IOnlineFollower@@QAEKEPAUOnImjinBattleFollowerInfo@@@Z 0047f500 f   IOnlineFollower.obj
 0001:0007e6b0       ?GetUseSatietyWarAfter@IOnlineFollower@@QAEHXZ 0047f6b0 f   IOnlineFollower.obj
 0001:0007e750       ?CanAddItem@IOnlineFollower@@QAEHEGGF@Z 0047f750 f   IOnlineFollower.obj
 0001:0007e7d0       ?CanAddItem@IOnlineFollower@@QAEHEPAG0G@Z 0047f7d0 f   IOnlineFollower.obj
 0001:0007e850       ?CanAddFollower@IOnlineFollower@@QAEHE@Z 0047f850 f   IOnlineFollower.obj
 0001:0007e8f0       ?FindEmptyFollowerSlot@IOnlineFollower@@QAEFXZ 0047f8f0 f   IOnlineFollower.obj
 0001:0007e970       ?GetFollowerTradeInfo@IOnlineFollower@@QAEHEPAUOnTradeFollowerInfo@@@Z 0047f970 f   IOnlineFollower.obj
 0001:0007ea60       ?InitStaticVariable@IOnlineFollower@@SAXPAVCItem@@@Z 0047fa60 f   IOnlineFollower.obj
 0001:0007eab0       ?GetTotalItemWeight@IOnlineFollower@@QAEKE@Z 0047fab0 f   IOnlineFollower.obj
 0001:0007eb20       ?GetMaxWeight@IOnlineFollower@@QAEKE@Z 0047fb20 f   IOnlineFollower.obj
 0001:0007eb90       ?GetItemQuantityToTake@IOnlineFollower@@QAEGEG@Z 0047fb90 f   IOnlineFollower.obj
 0001:0007ec00       ?CanAddItem@IOnlineFollower@@QAEHEGG@Z 0047fc00 f   IOnlineFollower.obj
 0001:0007ec80       ?IsItemWeightOverflowed@IOnlineFollower@@QAEHXZ 0047fc80 f   IOnlineFollower.obj
 0001:0007ed20       ?IsItemWeightOverflowed@IOnlineFollower@@QAEHE@Z 0047fd20 f   IOnlineFollower.obj
 0001:0007ed90       ?TakeOffItem@IOnlineFollower@@QAEHEEGFPAUMyItemData@@@Z 0047fd90 f   IOnlineFollower.obj
 0001:0007ee10       ?DisAppearItem@IOnlineFollower@@QAEHEEGFPAUMyItemData@@@Z 0047fe10 f   IOnlineFollower.obj
 0001:0007ee90       ?PutOnItem@IOnlineFollower@@QAEHEEGFPAUMyItemData@@@Z 0047fe90 f   IOnlineFollower.obj
 0001:0007ef10       ?GetWearItems@IOnlineFollower@@QAEHEQAG@Z 0047ff10 f   IOnlineFollower.obj
 0001:0007ef80       ?SetWearItem2@IOnlineFollower@@QAEHEEG@Z 0047ff80 f   IOnlineFollower.obj
 0001:0007f010       ?CanPutOnItem@IOnlineFollower@@QAEHEEGFHAAC@Z 00480010 f   IOnlineFollower.obj
 0001:0007f090       ?CanTakeOffItem@IOnlineFollower@@QAEHEEGF@Z 00480090 f   IOnlineFollower.obj
 0001:0007f110       ?CanMoveItem@IOnlineFollower@@QAEHEGGEF@Z 00480110 f   IOnlineFollower.obj
 0001:0007f220       ?MoveItem@IOnlineFollower@@QAEHEGGEPAF@Z 00480220 f   IOnlineFollower.obj
 0001:0007f360       ?ChangeFollowerParameterToBonus@IOnlineFollower@@QAEHEPAVOnlineCharParser@@GPAHPAVCItem@@@Z 00480360 f   IOnlineFollower.obj
 0001:0007f6f0       ?CanWeaponBeUpgraded@IOnlineFollower@@QAEHG@Z 004806f0 f   IOnlineFollower.obj
 0001:0007f750       ?UpgradeWeapon@IOnlineFollower@@QAEXGG@Z 00480750 f   IOnlineFollower.obj
 0001:0007f7c0       ?BrakeWeapon@IOnlineFollower@@QAEXG@Z 004807c0 f   IOnlineFollower.obj
 0001:0007f820       ?SetFullLifeOfAllChar@IOnlineFollower@@QAEXXZ 00480820 f   IOnlineFollower.obj
 0001:0007f8c0       ?SetFullManaOfAllChar@IOnlineFollower@@QAEXXZ 004808c0 f   IOnlineFollower.obj
 0001:0007fb80       ?GetCurExp@_ParametaBox@@QAEHXZ 00480b80 f i IOnlineFollower.obj
 0001:0007fbd0       ?GetNextExp@_ParametaBox@@QBEHXZ 00480bd0 f i IOnlineFollower.obj
 0001:0007fc10       ?GetTotalStr@_ParametaBox@@QBEHXZ 00480c10 f i IOnlineFollower.obj
 0001:0007fc50       ?GetTotalDex@_ParametaBox@@QBEHXZ 00480c50 f i IOnlineFollower.obj
 0001:0007fc90       ?GetTotalVit@_ParametaBox@@QBEHXZ 00480c90 f i IOnlineFollower.obj
 0001:0007fcd0       ?GetTotalInt@_ParametaBox@@QBEHXZ 00480cd0 f i IOnlineFollower.obj
 0001:0007fd10       ?GetTotalDamageResist@_ParametaBox@@QBEHXZ 00480d10 f i IOnlineFollower.obj
 0001:0007fd50       ?GetTotalMagicResist@_ParametaBox@@QBEHXZ 00480d50 f i IOnlineFollower.obj
 0001:0007fd90       ?GetMoveSpeed@_ParametaBox@@QBEHXZ 00480d90 f i IOnlineFollower.obj
 0001:0007fdd0       ?GetMaxWeight@_ParametaBox@@QBEHXZ 00480dd0 f i IOnlineFollower.obj
 0001:0007fe10       ?GetCurWeight@_ParametaBox@@QBEHXZ 00480e10 f i IOnlineFollower.obj
 0001:0007fe50       ?GetCredit@_ParametaBox@@QBEHXZ 00480e50 f i IOnlineFollower.obj
 0001:0007fe90       ?GetLiftPower@_ParametaBox@@QBEHXZ 00480e90 f i IOnlineFollower.obj
 0001:0007fee0       ?GetMinApower@_ParametaBox@@QBEHXZ 00480ee0 f i IOnlineFollower.obj
 0001:0007ff20       ?GetMaxApower@_ParametaBox@@QBEHXZ 00480f20 f i IOnlineFollower.obj
 0001:0007ff60       ?GetDpower@_ParametaBox@@QBEHXZ 00480f60 f i IOnlineFollower.obj
 0001:0007ffa0       ?SetFollowerParameterNation@OnlineFollower@@QAEXH@Z 00480fa0 f i IOnlineFollower.obj
 0001:0007ffe0       ?SetCharID@OnlineFollower@@QAEXG@Z 00480fe0 f i IOnlineFollower.obj
 0001:000800b0       ??0IOnlineShipKI@@QAE@XZ   004810b0 f   IOnlineShipKI.obj
 0001:00080100       ??1IOnlineShipKI@@QAE@XZ   00481100 f   IOnlineShipKI.obj
 0001:00080150       ?Init@IOnlineShipKI@@QAEHXZ 00481150 f   IOnlineShipKI.obj
 0001:00080340       ??_EOnlineShipKI@@QAEPAXI@Z 00481340 f i IOnlineShipKI.obj
 0001:00080400       ?Free@IOnlineShipKI@@QAEXXZ 00481400 f   IOnlineShipKI.obj
 0001:00080490       ?GetName@IOnlineShipKI@@QAEHH@Z 00481490 f   IOnlineShipKI.obj
 0001:000804f0       ?GetMaxCustomer@IOnlineShipKI@@QAEHH@Z 004814f0 f   IOnlineShipKI.obj
 0001:00080550       ?GetMoveSpeed@IOnlineShipKI@@QAEHH@Z 00481550 f   IOnlineShipKI.obj
 0001:000805b0       ?FindIndex@IOnlineShipKI@@AAEHH@Z 004815b0 f   IOnlineShipKI.obj
 0001:00080640       ?IsInit@IOnlineShipKI@@QAEHXZ 00481640 f   IOnlineShipKI.obj
 0001:00080690       ?GetTotalShipNum@IOnlineShipKI@@QAEHXZ 00481690 f   IOnlineShipKI.obj
 0001:000806d0       ?GetInfoByIndex@IOnlineShipKI@@QAEPAVOnlineShipKI@@H@Z 004816d0 f   IOnlineShipKI.obj
 0001:00080710       ??0cltIProfit@@QAE@XZ      00481710 f   IProfit.obj
 0001:00080760       ??1cltIProfit@@QAE@XZ      00481760 f   IProfit.obj
 0001:000807f0       ?Init@cltIProfit@@QAEHPAD@Z 004817f0 f   IProfit.obj
 0001:00080850       ?Free@cltIProfit@@QAEXXZ   00481850 f   IProfit.obj
 0001:000808a0       ?GetItemPrice@cltIProfit@@QAEX_JGPAUstrItemPriceInMarket@@@Z 004818a0 f   IProfit.obj
 0001:00080cf0       ??0CItemUpgrade@@QAE@XZ    00481cf0 f   ItemUpgrade.obj
 0001:00080d60       ??_ECItemUpgrade@@UAEPAXI@Z 00481d60 f i ItemUpgrade.obj
 0001:00080d60       ??_GCItemUpgrade@@UAEPAXI@Z 00481d60 f i ItemUpgrade.obj
 0001:00080dd0       ??1CItemUpgrade@@UAE@XZ    00481dd0 f   ItemUpgrade.obj
 0001:00080e20       ?Initialize@CItemUpgrade@@QAEXXZ 00481e20 f   ItemUpgrade.obj
 0001:00080e60       ?Destroy@CItemUpgrade@@QAEXXZ 00481e60 f   ItemUpgrade.obj
 0001:00080e90       ?SetNext@CItemUpgrade@@QAEXPAV1@@Z 00481e90 f   ItemUpgrade.obj
 0001:00080ed0       ?GetNext@CItemUpgrade@@QAEPAV1@XZ 00481ed0 f   ItemUpgrade.obj
 0001:00080f10       ?SetPre@CItemUpgrade@@QAEXPAV1@@Z 00481f10 f   ItemUpgrade.obj
 0001:00080f50       ?GetPre@CItemUpgrade@@QAEPAV1@XZ 00481f50 f   ItemUpgrade.obj
 0001:00080f90       ?GetItemCode@CItemUpgrade@@QAEHXZ 00481f90 f   ItemUpgrade.obj
 0001:00080fd0       ?SetItemCode@CItemUpgrade@@QAEXH@Z 00481fd0 f   ItemUpgrade.obj
 0001:00081010       ?SetItemInfo@CItemUpgrade@@QAEXHFHH@Z 00482010 f   ItemUpgrade.obj
 0001:00081090       ?GetResult@CItemUpgrade@@QAEFH@Z 00482090 f   ItemUpgrade.obj
 0001:000810f0       ??0CItemUpgradeList@@QAE@XZ 004820f0 f   ItemUpgradeList.obj
 0001:00081160       ??_GCItemUpgradeList@@UAEPAXI@Z 00482160 f i ItemUpgradeList.obj
 0001:000811d0       ??1CItemUpgradeList@@UAE@XZ 004821d0 f   ItemUpgradeList.obj
 0001:00081220       ?Initialize@CItemUpgradeList@@QAEXXZ 00482220 f   ItemUpgradeList.obj
 0001:00081320       ?Destroy@CItemUpgradeList@@QAEXXZ 00482320 f   ItemUpgradeList.obj
 0001:00081420       ?AddItemList@CItemUpgradeList@@QAEXPAVCItemUpgrade@@@Z 00482420 f   ItemUpgradeList.obj
 0001:000814c0       ?AddUpgradeItem@CItemUpgradeList@@QAEXHFHH@Z 004824c0 f   ItemUpgradeList.obj
 0001:000815b0       ?GetFirst@CItemUpgradeList@@QAEPAVCItemUpgrade@@XZ 004825b0 f   ItemUpgradeList.obj
 0001:000815f0       ?GetLast@CItemUpgradeList@@QAEPAVCItemUpgrade@@XZ 004825f0 f   ItemUpgradeList.obj
 0001:00081630       ?pFindNextItemCode@CItemUpgradeList@@QAEPAVCItemUpgrade@@H@Z 00482630 f   ItemUpgradeList.obj
 0001:000816d0       ?iFindNextItemCode@CItemUpgradeList@@QAEHH@Z 004826d0 f   ItemUpgradeList.obj
 0001:00081770       ?GetCode@CItemUpgradeList@@QAEHXZ 00482770 f   ItemUpgradeList.obj
 0001:000817b0       ?SetCode@CItemUpgradeList@@QAEXH@Z 004827b0 f   ItemUpgradeList.obj
 0001:000817f0       ?GetItemName@CItemUpgradeList@@QAEPADXZ 004827f0 f   ItemUpgradeList.obj
 0001:00081830       ?SetItemName@CItemUpgradeList@@QAEXPAD@Z 00482830 f   ItemUpgradeList.obj
 0001:00081890       ?GetResult@CItemUpgradeList@@QAEFHH@Z 00482890 f   ItemUpgradeList.obj
 0001:00081920       ??0CItemUpgradeParser@@QAE@XZ 00482920 f   ItemUpgradeParser.obj
 0001:000819a0       ??_GCItemUpgradeParser@@UAEPAXI@Z 004829a0 f i ItemUpgradeParser.obj
 0001:000819a0       ??_ECItemUpgradeParser@@UAEPAXI@Z 004829a0 f i ItemUpgradeParser.obj
 0001:00081a10       ??1CItemUpgradeParser@@UAE@XZ 00482a10 f   ItemUpgradeParser.obj
 0001:00081a60       ?Initialize@CItemUpgradeParser@@QAEXXZ 00482a60 f   ItemUpgradeParser.obj
 0001:00081b10       ?Destroy@CItemUpgradeParser@@QAEXXZ 00482b10 f   ItemUpgradeParser.obj
 0001:00081b40       ?ReadScriptFile@CItemUpgradeParser@@QAE_NXZ 00482b40 f   ItemUpgradeParser.obj
 0001:000820c0       ??_Difstream@@QAEXXZ       004830c0 f i ItemUpgradeParser.obj
 0001:00082120       ??_ECItemUpgradeList@@UAEPAXI@Z 00483120 f i ItemUpgradeParser.obj
 0001:000821e0       ?GetUpgradeResult@CItemUpgradeParser@@QAEPAUOnItemUpgradeResultInfo@@HH@Z 004831e0 f   ItemUpgradeParser.obj
 0001:000822c0       ?GetNextItemCode@CItemUpgradeParser@@QAEHH@Z 004832c0 f   ItemUpgradeParser.obj
 0001:00082340       ?GetNextItemCodeAndResult@CItemUpgradeParser@@QAE?AUOnItemUpgradeResultInfo@@H@Z 00483340 f   ItemUpgradeParser.obj
 0001:00082430       ??7ios@@QBEHXZ             00483430 f i ItemUpgradeParser.obj
 0001:00082470       ?eof@ios@@QBEHXZ           00483470 f i ItemUpgradeParser.obj
 0001:000825c0       ??0JOSA@@QAE@XZ            004835c0 f   JOSA.obj
 0001:00082600       ??_GJOSA@@UAEPAXI@Z        00483600 f i JOSA.obj
 0001:00082600       ??_EJOSA@@UAEPAXI@Z        00483600 f i JOSA.obj
 0001:00082670       ??1JOSA@@UAE@XZ            00483670 f   JOSA.obj
 0001:000826b0       ?JosaSelector@@YAXHPADHD@Z 004836b0 f   JOSA.obj
 0001:000829a0       ?ProcENIGR@@YAXHPADH@Z     004839a0 f   JOSA.obj
 0001:00082cc0       ?ProcEE@@YAHPAD@Z          00483cc0 f   JOSA.obj
 0001:00082d60       ?JosaProc@JOSA@@QAEXPAD@Z  00483d60 f   JOSA.obj
 0001:00083080       ?JosaProc@JOSA@@QAEXPAD0@Z 00484080 f   JOSA.obj
 0001:000830b0       ??0cltOnlineBaseCharKI@@QAE@XZ 004840b0 f   OnlineBaseCharKI.obj
 0001:00083110       ??_GcltOnlineBaseCharKI@@UAEPAXI@Z 00484110 f i OnlineBaseCharKI.obj
 0001:00083110       ??_EcltOnlineBaseCharKI@@UAEPAXI@Z 00484110 f i OnlineBaseCharKI.obj
 0001:00083180       ??1cltOnlineBaseCharKI@@UAE@XZ 00484180 f   OnlineBaseCharKI.obj
 0001:000831d0       ?Init@cltOnlineBaseCharKI@@QAEXPAVOnlineText@@I@Z 004841d0 f   OnlineBaseCharKI.obj
 0001:00083270       ?Free@cltOnlineBaseCharKI@@QAEXXZ 00484270 f   OnlineBaseCharKI.obj
 0001:000832e0       ?Init@cltOnlineBaseCharKI@@QAEXIGIFFPAV_ImportantParameta@@QAFQAHH@Z 004842e0 f   OnlineBaseCharKI.obj
 0001:00083420       ?GetNation@cltOnlineBaseCharKI@@QAEFG@Z 00484420 f   OnlineBaseCharKI.obj
 0001:00083490       ?GetMoveSpeed@cltOnlineBaseCharKI@@QAEFG@Z 00484490 f   OnlineBaseCharKI.obj
 0001:00083500       ?FindIndex@cltOnlineBaseCharKI@@AAEIG@Z 00484500 f   OnlineBaseCharKI.obj
 0001:00083590       ?FindIndex@cltOnlineBaseCharKI@@AAEIPAD@Z 00484590 f   OnlineBaseCharKI.obj
 0001:00083650       ?GetParameta@cltOnlineBaseCharKI@@QAEPAV_ImportantParameta@@G@Z 00484650 f   OnlineBaseCharKI.obj
 0001:000836c0       ?GetBaseCharKI@cltOnlineBaseCharKI@@QAEPAUstrOnlineBaseCharKI@@G@Z 004846c0 f   OnlineBaseCharKI.obj
 0001:00083730       ?GetBaseCharKI@cltOnlineBaseCharKI@@QAEPAUstrOnlineBaseCharKI@@PAD@Z 00484730 f   OnlineBaseCharKI.obj
 0001:000837a0       ?IsValidID@cltOnlineBaseCharKI@@QAEHG@Z 004847a0 f   OnlineBaseCharKI.obj
 0001:00083810       ?IsValidName@cltOnlineBaseCharKI@@QAEHPAD@Z 00484810 f   OnlineBaseCharKI.obj
 0001:00083880       ?GetNameByString@cltOnlineBaseCharKI@@QAEPADG@Z 00484880 f   OnlineBaseCharKI.obj
 0001:00083900       ?GetNameByNumeric@cltOnlineBaseCharKI@@QAEIG@Z 00484900 f   OnlineBaseCharKI.obj
 0001:00083970       ?GetDropItem@cltOnlineBaseCharKI@@QAEPAFG@Z 00484970 f   OnlineBaseCharKI.obj
 0001:000839e0       ?GetDropPercent@cltOnlineBaseCharKI@@QAEPAHG@Z 004849e0 f   OnlineBaseCharKI.obj
 0001:00083a50       ?GetGeneral@cltOnlineBaseCharKI@@QAEHG@Z 00484a50 f   OnlineBaseCharKI.obj
 0001:00083ac0       ?IsFieldAttackUnit@cltOnlineBaseCharKI@@QAEHG@Z 00484ac0 f   OnlineBaseCharKI.obj
 0001:00083b40       ??0OnlineBaseMap@@QAE@XZ   00484b40 f   OnlineBaseMap.obj
 0001:00083ba0       ??_GOnlineBaseMap@@UAEPAXI@Z 00484ba0 f i OnlineBaseMap.obj
 0001:00083ba0       ??_EOnlineBaseMap@@UAEPAXI@Z 00484ba0 f i OnlineBaseMap.obj
 0001:00083c10       ??1OnlineBaseMap@@UAE@XZ   00484c10 f   OnlineBaseMap.obj
 0001:00083c50       ?IsInMapArea@OnlineBaseMap@@UAEHHH@Z 00484c50 f   OnlineBaseMap.obj
 0001:00083cc0       ?IsColl@OnlineBaseMap@@UAEHH@Z 00484cc0 f   OnlineBaseMap.obj
 0001:00083d10       ?IsColl@OnlineBaseMap@@UAEHHHH@Z 00484d10 f   OnlineBaseMap.obj
 0001:00084020       ?Init@OnlineCharParser@@UAEHPAD@Z 00485020 f   OnlineChar-Parser.obj
 0001:00084bc0       ?GetID@OnlineCharParser@@QAEGPAD@Z 00485bc0 f   OnlineChar-Parser.obj
 0001:00084c30       ?GetAttri@OnlineCharParser@@IAEFPAD@Z 00485c30 f   OnlineChar-Parser.obj
 0001:00084ca0       ?GetCharHeaderID@OnlineCharParser@@QAEPAUCharHead@@G@Z 00485ca0 f   OnlineChar-Parser.obj
 0001:00084d60       ?SetAC@_ImportantParameta@@QAEXH@Z 00485d60 f i OnlineChar-Parser.obj
 0001:00084dd0       ?push_back@?$vector@UCharHead@@V?$allocator@UCharHead@@@std@@@std@@QAEXABUCharHead@@@Z 00485dd0 f i OnlineChar-Parser.obj
 0001:00084e30       ?insert@?$vector@UCharHead@@V?$allocator@UCharHead@@@std@@@std@@QAEPAUCharHead@@PAU3@ABU3@@Z 00485e30 f i OnlineChar-Parser.obj
 0001:00084ec0       ?insert@?$vector@UCharHead@@V?$allocator@UCharHead@@@std@@@std@@QAEXPAUCharHead@@IABU3@@Z 00485ec0 f i OnlineChar-Parser.obj
 0001:000851c0       ?_Ucopy@?$vector@UCharHead@@V?$allocator@UCharHead@@@std@@@std@@IAEPAUCharHead@@PBU3@0PAU3@@Z 004861c0 f i OnlineChar-Parser.obj
 0001:00085240       ?_Ufill@?$vector@UCharHead@@V?$allocator@UCharHead@@@std@@@std@@IAEXPAUCharHead@@IABU3@@Z 00486240 f i OnlineChar-Parser.obj
 0001:000852c0       ?allocate@?$allocator@UCharHead@@@std@@QAEPAUCharHead@@IPBX@Z 004862c0 f i OnlineChar-Parser.obj
 0001:00085310       ?construct@?$allocator@UCharHead@@@std@@QAEXPAUCharHead@@ABU3@@Z 00486310 f i OnlineChar-Parser.obj
 0001:00085580       ?sort@std@@YAXPAUCharHead@@0@Z 00486580 f i OnlineChar-Parser.obj
 0001:000855e0       ?equal_range@std@@YA?AU?$pair@PAUCharHead@@PAU1@@1@PAUCharHead@@0ABU3@@Z 004865e0 f i OnlineChar-Parser.obj
 0001:00085650       ?fill@std@@YAXPAUCharHead@@0ABU2@@Z 00486650 f i OnlineChar-Parser.obj
 0001:000856b0       ?copy_backward@std@@YAPAUCharHead@@PAU2@00@Z 004866b0 f i OnlineChar-Parser.obj
 0001:00085710       ?_Allocate@std@@YAPAUCharHead@@HPAU2@@Z 00486710 f i OnlineChar-Parser.obj
 0001:00085770       ?_Construct@std@@YAXPAUCharHead@@ABU2@@Z 00486770 f i OnlineChar-Parser.obj
 0001:000857f0       ??2@YAPAXIPAX@Z            004867f0 f i OnlineChar-Parser.obj
 0001:00085820       ?_Val_type@std@@YAPAUCharHead@@PBU2@@Z 00486820 f i OnlineChar-Parser.obj
 0001:00085850       ?_Sort_0@std@@YAXPAUCharHead@@00@Z 00486850 f i OnlineChar-Parser.obj
 0001:00085950       ?_Dist_type@std@@YAPAHPBUCharHead@@@Z 00486950 f i OnlineChar-Parser.obj
 0001:00085980       ?_Equal_range@std@@YA?AU?$pair@PAUCharHead@@PAU1@@1@PAUCharHead@@0ABU3@PAH@Z 00486980 f i OnlineChar-Parser.obj
 0001:00085ba0       ??0?$pair@PAUCharHead@@PAU1@@std@@QAE@ABQAUCharHead@@0@Z 00486ba0 f i OnlineChar-Parser.obj
 0001:00085bf0       ?_Insertion_sort@std@@YAXPAUCharHead@@0@Z 00486bf0 f i OnlineChar-Parser.obj
 0001:00085c50       ?_Sort@std@@YAXPAUCharHead@@00@Z 00486c50 f i OnlineChar-Parser.obj
 0001:00085e20       ?_Unguarded_insert@std@@YAXPAUCharHead@@U2@@Z 00486e20 f i OnlineChar-Parser.obj
 0001:00085eb0       ?_Distance@std@@YAXPAUCharHead@@0AAH@Z 00486eb0 f i OnlineChar-Parser.obj
 0001:00085f20       ?advance@std@@YAXAAPAUCharHead@@H@Z 00486f20 f i OnlineChar-Parser.obj
 0001:00085f90       ?lower_bound@std@@YAPAUCharHead@@PAU2@0ABU2@@Z 00486f90 f i OnlineChar-Parser.obj
 0001:00085ff0       ?upper_bound@std@@YAPAUCharHead@@PAU2@0ABU2@@Z 00486ff0 f i OnlineChar-Parser.obj
 0001:00086050       ?_Insertion_sort_1@std@@YAXPAUCharHead@@00@Z 00487050 f i OnlineChar-Parser.obj
 0001:00086140       ?_Median@std@@YA?AUCharHead@@U2@00@Z 00487140 f i OnlineChar-Parser.obj
 0001:000862b0       ?_Unguarded_partition@std@@YAPAUCharHead@@PAU2@0U2@@Z 004872b0 f i OnlineChar-Parser.obj
 0001:00086370       ?_Iter_cat@std@@YA?AUrandom_access_iterator_tag@1@PBUCharHead@@@Z 00487370 f i OnlineChar-Parser.obj
 0001:000863b0       ?_Distance@std@@YAXPAUCharHead@@0AAHUrandom_access_iterator_tag@1@@Z 004873b0 f i OnlineChar-Parser.obj
 0001:00086400       ?_Advance@std@@YAXAAPAUCharHead@@HUrandom_access_iterator_tag@1@@Z 00487400 f i OnlineChar-Parser.obj
 0001:00086440       ?_Lower_bound@std@@YAPAUCharHead@@PAU2@0ABU2@PAH@Z 00487440 f i OnlineChar-Parser.obj
 0001:00086520       ?_Upper_bound@std@@YAPAUCharHead@@PAU2@0ABU2@PAH@Z 00487520 f i OnlineChar-Parser.obj
 0001:00086600       ?iter_swap@std@@YAXPAUCharHead@@0@Z 00487600 f i OnlineChar-Parser.obj
 0001:00086660       ?_Iter_swap@std@@YAXPAUCharHead@@00@Z 00487660 f i OnlineChar-Parser.obj
 0001:000866c0       ??MCharHead@@QBE?B_NABU0@@Z 004876c0 f i OnlineChar-Parser.obj
 0001:00086710       ??0OnlineCredit@@QAE@XZ    00487710 f   OnlineCredit.obj
 0001:00086760       ??1OnlineCredit@@QAE@XZ    00487760 f   OnlineCredit.obj
 0001:000867d0       ?Init@OnlineCredit@@QAEXPAD@Z 004877d0 f   OnlineCredit.obj
 0001:00086c00       ??_H@YGXPAXIHP6EX0@Z@Z     00487c00 f i OnlineCredit.obj
 0001:00086c70       ??0CreditIndex@@QAE@XZ     00487c70 f i OnlineCredit.obj
 0001:00086cc0       ?Init@CreditIndex@@QAEXXZ  00487cc0 f i OnlineCredit.obj
 0001:00086d20       ??0OnlineEconomy@@QAE@XZ   00487d20 f   OnlineEconomy.obj
 0001:00086d90       ??1OnlineEconomy@@QAE@XZ   00487d90 f   OnlineEconomy.obj
 0001:00086de0       ?Init@OnlineEconomy@@QAEXPAD@Z 00487de0 f   OnlineEconomy.obj
 0001:00087670       ?GetHeader@OnlineEconomy@@QAEPAUEconomyHeader@@H@Z 00488670 f   OnlineEconomy.obj
 0001:000876b0       ?GetHeaderCode@OnlineEconomy@@QAEPAUEconomyHeader@@F@Z 004886b0 f   OnlineEconomy.obj
 0001:00087740       ?GetTotalNum@OnlineEconomy@@QAEHXZ 00488740 f   OnlineEconomy.obj
 0001:00087780       ?Free@OnlineEconomy@@QAEXXZ 00488780 f   OnlineEconomy.obj
 0001:000877f0       ?GetAccount@OnlineEconomy@@QAEHXZ 004887f0 f   OnlineEconomy.obj
 0001:00087830       ?GetInstallment@OnlineEconomy@@QAEHXZ 00488830 f   OnlineEconomy.obj
 0001:00087870       ?GetLoan@OnlineEconomy@@QAEHXZ 00488870 f   OnlineEconomy.obj
 0001:00087b60       ??0OnlineFieldParser@@QAE@XZ 00488b60 f   OnlineFieldParser.obj
 0001:00087bc0       ??1OnlineFieldParser@@QAE@XZ 00488bc0 f   OnlineFieldParser.obj
 0001:00087c50       ??1?$map@IUMilepostHeader@@U?$less@I@std@@V?$allocator@UMilepostHeader@@@3@@std@@QAE@XZ 00488c50 f i OnlineFieldParser.obj
 0001:00087ca0       ?Init@OnlineFieldParser@@QAEHPAD@Z 00488ca0 f   OnlineFieldParser.obj
 0001:00088070       ?GetTotalNum@OnlineFieldParser@@QAEFXZ 00489070 f   OnlineFieldParser.obj
 0001:000880c0       ?GetMilepost@OnlineFieldParser@@QAEPAUMilepostHeader@@F@Z 004890c0 f   OnlineFieldParser.obj
 0001:00088160       ?Free@OnlineFieldParser@@QAEXXZ 00489160 f   OnlineFieldParser.obj
 0001:000881b0       ?SetFile@OnlineFieldParser@@QAEHPADF@Z 004891b0 f   OnlineFieldParser.obj
 0001:00088280       ?GetMilePost@OnlineFieldParser@@QAEPAUMilepostHeader@@FF@Z 00489280 f   OnlineFieldParser.obj
 0001:00088360       ??0?$map@IUMilepostHeader@@U?$less@I@std@@V?$allocator@UMilepostHeader@@@3@@std@@QAE@ABU?$less@I@1@ABV?$allocator@UMilepostHeader@@@1@@Z 00489360 f i OnlineFieldParser.obj
 0001:000883c0       ?begin@?$map@IUMilepostHeader@@U?$less@I@std@@V?$allocator@UMilepostHeader@@@3@@std@@QAE?AViterator@?$_Tree@IU?$pair@$$CBIUMilepostHeader@@@std@@U_Kfn@?$map@IUMilepostHeader@@U?$less@I@std@@V?$allocator@UMilepostHeader@@@3@@2@U?$less@I@2@V?$allocator@UMilepostHeader@@@2@@2@XZ 004893c0 f i OnlineFieldParser.obj
 0001:00088410       ?end@?$map@IUMilepostHeader@@U?$less@I@std@@V?$allocator@UMilepostHeader@@@3@@std@@QAE?AViterator@?$_Tree@IU?$pair@$$CBIUMilepostHeader@@@std@@U_Kfn@?$map@IUMilepostHeader@@U?$less@I@std@@V?$allocator@UMilepostHeader@@@3@@2@U?$less@I@2@V?$allocator@UMilepostHeader@@@2@@2@XZ 00489410 f i OnlineFieldParser.obj
 0001:00088460       ?size@?$map@IUMilepostHeader@@U?$less@I@std@@V?$allocator@UMilepostHeader@@@3@@std@@QBEIXZ 00489460 f i OnlineFieldParser.obj
 0001:000884b0       ?clear@?$map@IUMilepostHeader@@U?$less@I@std@@V?$allocator@UMilepostHeader@@@3@@std@@QAEXXZ 004894b0 f i OnlineFieldParser.obj
 0001:00088500       ?key_comp@?$map@IUMilepostHeader@@U?$less@I@std@@V?$allocator@UMilepostHeader@@@3@@std@@QBE?AU?$less@I@2@XZ 00489500 f i OnlineFieldParser.obj
 0001:00088550       ?lower_bound@?$map@IUMilepostHeader@@U?$less@I@std@@V?$allocator@UMilepostHeader@@@3@@std@@QAE?AViterator@?$_Tree@IU?$pair@$$CBIUMilepostHeader@@@std@@U_Kfn@?$map@IUMilepostHeader@@U?$less@I@std@@V?$allocator@UMilepostHeader@@@3@@2@U?$less@I@2@V?$allocator@UMilepostHeader@@@2@@2@ABI@Z 00489550 f i OnlineFieldParser.obj
 0001:000885b0       ??R?$less@I@std@@QBE_NABI0@Z 004895b0 f i OnlineFieldParser.obj
 0001:00088600       ??1?$_Tree@IU?$pair@$$CBIUMilepostHeader@@@std@@U_Kfn@?$map@IUMilepostHeader@@U?$less@I@std@@V?$allocator@UMilepostHeader@@@3@@2@U?$less@I@2@V?$allocator@UMilepostHeader@@@2@@std@@QAE@XZ 00489600 f i OnlineFieldParser.obj
 0001:00088700       ??Citerator@?$_Tree@IU?$pair@$$CBIUMilepostHeader@@@std@@U_Kfn@?$map@IUMilepostHeader@@U?$less@I@std@@V?$allocator@UMilepostHeader@@@3@@2@U?$less@I@2@V?$allocator@UMilepostHeader@@@2@@std@@QBEPAU?$pair@$$CBIUMilepostHeader@@@2@XZ 00489700 f i OnlineFieldParser.obj
 0001:00088750       ??Eiterator@?$_Tree@IU?$pair@$$CBIUMilepostHeader@@@std@@U_Kfn@?$map@IUMilepostHeader@@U?$less@I@std@@V?$allocator@UMilepostHeader@@@3@@2@U?$less@I@2@V?$allocator@UMilepostHeader@@@2@@std@@QAEAAV012@XZ 00489750 f i OnlineFieldParser.obj
 0001:000887a0       ??9iterator@?$_Tree@IU?$pair@$$CBIUMilepostHeader@@@std@@U_Kfn@?$map@IUMilepostHeader@@U?$less@I@std@@V?$allocator@UMilepostHeader@@@3@@2@U?$less@I@2@V?$allocator@UMilepostHeader@@@2@@std@@QBE_NABV012@@Z 004897a0 f i OnlineFieldParser.obj
 0001:00088800       ??0?$_Tree@IU?$pair@$$CBIUMilepostHeader@@@std@@U_Kfn@?$map@IUMilepostHeader@@U?$less@I@std@@V?$allocator@UMilepostHeader@@@3@@2@U?$less@I@2@V?$allocator@UMilepostHeader@@@2@@std@@QAE@ABU?$less@I@1@_NABV?$allocator@UMilepostHeader@@@1@@Z 00489800 f i OnlineFieldParser.obj
 0001:00088870       ?begin@?$_Tree@IU?$pair@$$CBIUMilepostHeader@@@std@@U_Kfn@?$map@IUMilepostHeader@@U?$less@I@std@@V?$allocator@UMilepostHeader@@@3@@2@U?$less@I@2@V?$allocator@UMilepostHeader@@@2@@std@@QAE?AViterator@12@XZ 00489870 f i OnlineFieldParser.obj
 0001:000888d0       ?end@?$_Tree@IU?$pair@$$CBIUMilepostHeader@@@std@@U_Kfn@?$map@IUMilepostHeader@@U?$less@I@std@@V?$allocator@UMilepostHeader@@@3@@2@U?$less@I@2@V?$allocator@UMilepostHeader@@@2@@std@@QAE?AViterator@12@XZ 004898d0 f i OnlineFieldParser.obj
 0001:00088930       ?size@?$_Tree@IU?$pair@$$CBIUMilepostHeader@@@std@@U_Kfn@?$map@IUMilepostHeader@@U?$less@I@std@@V?$allocator@UMilepostHeader@@@3@@2@U?$less@I@2@V?$allocator@UMilepostHeader@@@2@@std@@QBEIXZ 00489930 f i OnlineFieldParser.obj
 0001:00088970       ?key_comp@?$_Tree@IU?$pair@$$CBIUMilepostHeader@@@std@@U_Kfn@?$map@IUMilepostHeader@@U?$less@I@std@@V?$allocator@UMilepostHeader@@@3@@2@U?$less@I@2@V?$allocator@UMilepostHeader@@@2@@std@@QBE?AU?$less@I@2@XZ 00489970 f i OnlineFieldParser.obj
 0001:000889c0       ?erase@?$_Tree@IU?$pair@$$CBIUMilepostHeader@@@std@@U_Kfn@?$map@IUMilepostHeader@@U?$less@I@std@@V?$allocator@UMilepostHeader@@@3@@2@U?$less@I@2@V?$allocator@UMilepostHeader@@@2@@std@@QAE?AViterator@12@V312@0@Z 004899c0 f i OnlineFieldParser.obj
 0001:00088b20       ?clear@?$_Tree@IU?$pair@$$CBIUMilepostHeader@@@std@@U_Kfn@?$map@IUMilepostHeader@@U?$less@I@std@@V?$allocator@UMilepostHeader@@@3@@2@U?$less@I@2@V?$allocator@UMilepostHeader@@@2@@std@@QAEXXZ 00489b20 f i OnlineFieldParser.obj
 0001:00088b90       ?lower_bound@?$_Tree@IU?$pair@$$CBIUMilepostHeader@@@std@@U_Kfn@?$map@IUMilepostHeader@@U?$less@I@std@@V?$allocator@UMilepostHeader@@@3@@2@U?$less@I@2@V?$allocator@UMilepostHeader@@@2@@std@@QAE?AViterator@12@ABI@Z 00489b90 f i OnlineFieldParser.obj
 0001:00088bf0       ?_Freenode@?$_Tree@IU?$pair@$$CBIUMilepostHeader@@@std@@U_Kfn@?$map@IUMilepostHeader@@U?$less@I@std@@V?$allocator@UMilepostHeader@@@3@@2@U?$less@I@2@V?$allocator@UMilepostHeader@@@2@@std@@IAEXPAU_Node@12@@Z 00489bf0 f i OnlineFieldParser.obj
 0001:00088c40       ?_Inc@const_iterator@?$_Tree@IU?$pair@$$CBIUMilepostHeader@@@std@@U_Kfn@?$map@IUMilepostHeader@@U?$less@I@std@@V?$allocator@UMilepostHeader@@@3@@2@U?$less@I@2@V?$allocator@UMilepostHeader@@@2@@std@@QAEXXZ 00489c40 f i OnlineFieldParser.obj
 0001:00088d30       ??Diterator@?$_Tree@IU?$pair@$$CBIUMilepostHeader@@@std@@U_Kfn@?$map@IUMilepostHeader@@U?$less@I@std@@V?$allocator@UMilepostHeader@@@3@@2@U?$less@I@2@V?$allocator@UMilepostHeader@@@2@@std@@QBEAAU?$pair@$$CBIUMilepostHeader@@@2@XZ 00489d30 f i OnlineFieldParser.obj
 0001:00088d80       ??8iterator@?$_Tree@IU?$pair@$$CBIUMilepostHeader@@@std@@U_Kfn@?$map@IUMilepostHeader@@U?$less@I@std@@V?$allocator@UMilepostHeader@@@3@@2@U?$less@I@2@V?$allocator@UMilepostHeader@@@2@@std@@QBE_NABV012@@Z 00489d80 f i OnlineFieldParser.obj
 0001:00088dd0       ?deallocate@?$allocator@UMilepostHeader@@@std@@QAEXPAXI@Z 00489dd0 f i OnlineFieldParser.obj
 0001:00088e20       ?_Parent@?$_Tree@IU?$pair@$$CBIUMilepostHeader@@@std@@U_Kfn@?$map@IUMilepostHeader@@U?$less@I@std@@V?$allocator@UMilepostHeader@@@3@@2@U?$less@I@2@V?$allocator@UMilepostHeader@@@2@@std@@KAAAPAU_Node@12@PAU312@@Z 00489e20 f i OnlineFieldParser.obj
 0001:00088e50       ?_Right@?$_Tree@IU?$pair@$$CBIUMilepostHeader@@@std@@U_Kfn@?$map@IUMilepostHeader@@U?$less@I@std@@V?$allocator@UMilepostHeader@@@3@@2@U?$less@I@2@V?$allocator@UMilepostHeader@@@2@@std@@KAAAPAU_Node@12@PAU312@@Z 00489e50 f i OnlineFieldParser.obj
 0001:00088e80       ?_Value@?$_Tree@IU?$pair@$$CBIUMilepostHeader@@@std@@U_Kfn@?$map@IUMilepostHeader@@U?$less@I@std@@V?$allocator@UMilepostHeader@@@3@@2@U?$less@I@2@V?$allocator@UMilepostHeader@@@2@@std@@KAAAU?$pair@$$CBIUMilepostHeader@@@2@PAU_Node@12@@Z 00489e80 f i OnlineFieldParser.obj
 0001:00088eb0       ?erase@?$_Tree@IU?$pair@$$CBIUMilepostHeader@@@std@@U_Kfn@?$map@IUMilepostHeader@@U?$less@I@std@@V?$allocator@UMilepostHeader@@@3@@2@U?$less@I@2@V?$allocator@UMilepostHeader@@@2@@std@@QAE?AViterator@12@V312@@Z 00489eb0 f i OnlineFieldParser.obj
 0001:00089940       ?_Erase@?$_Tree@IU?$pair@$$CBIUMilepostHeader@@@std@@U_Kfn@?$map@IUMilepostHeader@@U?$less@I@std@@V?$allocator@UMilepostHeader@@@3@@2@U?$less@I@2@V?$allocator@UMilepostHeader@@@2@@std@@IAEXPAU_Node@12@@Z 0048a940 f i OnlineFieldParser.obj
 0001:00089a00       ?_Init@?$_Tree@IU?$pair@$$CBIUMilepostHeader@@@std@@U_Kfn@?$map@IUMilepostHeader@@U?$less@I@std@@V?$allocator@UMilepostHeader@@@3@@2@U?$less@I@2@V?$allocator@UMilepostHeader@@@2@@std@@IAEXXZ 0048aa00 f i OnlineFieldParser.obj
 0001:00089b70       ?_Lbound@?$_Tree@IU?$pair@$$CBIUMilepostHeader@@@std@@U_Kfn@?$map@IUMilepostHeader@@U?$less@I@std@@V?$allocator@UMilepostHeader@@@3@@2@U?$less@I@2@V?$allocator@UMilepostHeader@@@2@@std@@IBEPAU_Node@12@ABI@Z 0048ab70 f i OnlineFieldParser.obj
 0001:00089c40       ?_Lmost@?$_Tree@IU?$pair@$$CBIUMilepostHeader@@@std@@U_Kfn@?$map@IUMilepostHeader@@U?$less@I@std@@V?$allocator@UMilepostHeader@@@3@@2@U?$less@I@2@V?$allocator@UMilepostHeader@@@2@@std@@IAEAAPAU_Node@12@XZ 0048ac40 f i OnlineFieldParser.obj
 0001:00089c90       ?_Min@?$_Tree@IU?$pair@$$CBIUMilepostHeader@@@std@@U_Kfn@?$map@IUMilepostHeader@@U?$less@I@std@@V?$allocator@UMilepostHeader@@@3@@2@U?$less@I@2@V?$allocator@UMilepostHeader@@@2@@std@@KAPAU_Node@12@PAU312@@Z 0048ac90 f i OnlineFieldParser.obj
 0001:00089d00       ?_Rmost@?$_Tree@IU?$pair@$$CBIUMilepostHeader@@@std@@U_Kfn@?$map@IUMilepostHeader@@U?$less@I@std@@V?$allocator@UMilepostHeader@@@3@@2@U?$less@I@2@V?$allocator@UMilepostHeader@@@2@@std@@IAEAAPAU_Node@12@XZ 0048ad00 f i OnlineFieldParser.obj
 0001:00089d50       ?_Root@?$_Tree@IU?$pair@$$CBIUMilepostHeader@@@std@@U_Kfn@?$map@IUMilepostHeader@@U?$less@I@std@@V?$allocator@UMilepostHeader@@@3@@2@U?$less@I@2@V?$allocator@UMilepostHeader@@@2@@std@@IAEAAPAU_Node@12@XZ 0048ad50 f i OnlineFieldParser.obj
 0001:00089da0       ??0iterator@?$_Tree@IU?$pair@$$CBIUMilepostHeader@@@std@@U_Kfn@?$map@IUMilepostHeader@@U?$less@I@std@@V?$allocator@UMilepostHeader@@@3@@2@U?$less@I@2@V?$allocator@UMilepostHeader@@@2@@std@@QAE@PAU_Node@12@@Z 0048ada0 f i OnlineFieldParser.obj
 0001:00089df0       ??Eiterator@?$_Tree@IU?$pair@$$CBIUMilepostHeader@@@std@@U_Kfn@?$map@IUMilepostHeader@@U?$less@I@std@@V?$allocator@UMilepostHeader@@@3@@2@U?$less@I@2@V?$allocator@UMilepostHeader@@@2@@std@@QAE?AV012@H@Z 0048adf0 f i OnlineFieldParser.obj
 0001:00089e50       ?_Color@?$_Tree@IU?$pair@$$CBIUMilepostHeader@@@std@@U_Kfn@?$map@IUMilepostHeader@@U?$less@I@std@@V?$allocator@UMilepostHeader@@@3@@2@U?$less@I@2@V?$allocator@UMilepostHeader@@@2@@std@@KAAAW4_Redbl@12@PAU_Node@12@@Z 0048ae50 f i OnlineFieldParser.obj
 0001:00089e80       ?_Key@?$_Tree@IU?$pair@$$CBIUMilepostHeader@@@std@@U_Kfn@?$map@IUMilepostHeader@@U?$less@I@std@@V?$allocator@UMilepostHeader@@@3@@2@U?$less@I@2@V?$allocator@UMilepostHeader@@@2@@std@@KAABIPAU_Node@12@@Z 0048ae80 f i OnlineFieldParser.obj
 0001:00089ed0       ?_Left@?$_Tree@IU?$pair@$$CBIUMilepostHeader@@@std@@U_Kfn@?$map@IUMilepostHeader@@U?$less@I@std@@V?$allocator@UMilepostHeader@@@3@@2@U?$less@I@2@V?$allocator@UMilepostHeader@@@2@@std@@KAAAPAU_Node@12@PAU312@@Z 0048aed0 f i OnlineFieldParser.obj
 0001:00089f00       ?_Lrotate@?$_Tree@IU?$pair@$$CBIUMilepostHeader@@@std@@U_Kfn@?$map@IUMilepostHeader@@U?$less@I@std@@V?$allocator@UMilepostHeader@@@3@@2@U?$less@I@2@V?$allocator@UMilepostHeader@@@2@@std@@IAEXPAU_Node@12@@Z 0048af00 f i OnlineFieldParser.obj
 0001:0008a2c0       ?_Max@?$_Tree@IU?$pair@$$CBIUMilepostHeader@@@std@@U_Kfn@?$map@IUMilepostHeader@@U?$less@I@std@@V?$allocator@UMilepostHeader@@@3@@2@U?$less@I@2@V?$allocator@UMilepostHeader@@@2@@std@@KAPAU_Node@12@PAU312@@Z 0048b2c0 f i OnlineFieldParser.obj
 0001:0008a330       ?_Root@?$_Tree@IU?$pair@$$CBIUMilepostHeader@@@std@@U_Kfn@?$map@IUMilepostHeader@@U?$less@I@std@@V?$allocator@UMilepostHeader@@@3@@2@U?$less@I@2@V?$allocator@UMilepostHeader@@@2@@std@@IBEAAPAU_Node@12@XZ 0048b330 f i OnlineFieldParser.obj
 0001:0008a380       ?_Rrotate@?$_Tree@IU?$pair@$$CBIUMilepostHeader@@@std@@U_Kfn@?$map@IUMilepostHeader@@U?$less@I@std@@V?$allocator@UMilepostHeader@@@3@@2@U?$less@I@2@V?$allocator@UMilepostHeader@@@2@@std@@IAEXPAU_Node@12@@Z 0048b380 f i OnlineFieldParser.obj
 0001:0008a520       ?_Buynode@?$_Tree@IU?$pair@$$CBIUMilepostHeader@@@std@@U_Kfn@?$map@IUMilepostHeader@@U?$less@I@std@@V?$allocator@UMilepostHeader@@@3@@2@U?$less@I@2@V?$allocator@UMilepostHeader@@@2@@std@@IAEPAU_Node@12@PAU312@W4_Redbl@12@@Z 0048b520 f i OnlineFieldParser.obj
 0001:0008a5a0       ?_Destval@?$_Tree@IU?$pair@$$CBIUMilepostHeader@@@std@@U_Kfn@?$map@IUMilepostHeader@@U?$less@I@std@@V?$allocator@UMilepostHeader@@@3@@2@U?$less@I@2@V?$allocator@UMilepostHeader@@@2@@std@@IAEXPAU?$pair@$$CBIUMilepostHeader@@@2@@Z 0048b5a0 f i OnlineFieldParser.obj
 0001:0008a5f0       ??0const_iterator@?$_Tree@IU?$pair@$$CBIUMilepostHeader@@@std@@U_Kfn@?$map@IUMilepostHeader@@U?$less@I@std@@V?$allocator@UMilepostHeader@@@3@@2@U?$less@I@2@V?$allocator@UMilepostHeader@@@2@@std@@QAE@PAU_Node@12@@Z 0048b5f0 f i OnlineFieldParser.obj
 0001:0008a630       ?_Mynode@const_iterator@?$_Tree@IU?$pair@$$CBIUMilepostHeader@@@std@@U_Kfn@?$map@IUMilepostHeader@@U?$less@I@std@@V?$allocator@UMilepostHeader@@@3@@2@U?$less@I@2@V?$allocator@UMilepostHeader@@@2@@std@@QBEPAU_Node@23@XZ 0048b630 f i OnlineFieldParser.obj
 0001:0008a670       ??R_Kfn@?$map@IUMilepostHeader@@U?$less@I@std@@V?$allocator@UMilepostHeader@@@3@@std@@QBEABIABU?$pair@$$CBIUMilepostHeader@@@2@@Z 0048b670 f i OnlineFieldParser.obj
 0001:0008a6b0       ?_Charalloc@?$allocator@UMilepostHeader@@@std@@QAEPADI@Z 0048b6b0 f i OnlineFieldParser.obj
 0001:0008a700       ?efficientAddOrUpdata@@YA?AViterator@?$_Tree@IU?$pair@$$CBIUMilepostHeader@@@std@@U_Kfn@?$map@IUMilepostHeader@@U?$less@I@std@@V?$allocator@UMilepostHeader@@@3@@2@U?$less@I@2@V?$allocator@UMilepostHeader@@@2@@std@@AAV?$map@IUMilepostHeader@@U?$less@I@std@@V?$allocator@UMilepostHeader@@@3@@3@ABIABUMilepostHeader@@@Z 0048b700 f i OnlineFieldParser.obj
 0001:0008a810       ?swap@std@@YAXAAW4_Redbl@?$_Tree@IU?$pair@$$CBIUMilepostHeader@@@std@@U_Kfn@?$map@IUMilepostHeader@@U?$less@I@std@@V?$allocator@UMilepostHeader@@@3@@2@U?$less@I@2@V?$allocator@UMilepostHeader@@@2@@1@0@Z 0048b810 f i OnlineFieldParser.obj
 0001:0008a860       ?_Destroy@std@@YAXPAU?$pair@$$CBIUMilepostHeader@@@1@@Z 0048b860 f i OnlineFieldParser.obj
 0001:0008a890       ?insert@?$map@IUMilepostHeader@@U?$less@I@std@@V?$allocator@UMilepostHeader@@@3@@std@@QAE?AViterator@?$_Tree@IU?$pair@$$CBIUMilepostHeader@@@std@@U_Kfn@?$map@IUMilepostHeader@@U?$less@I@std@@V?$allocator@UMilepostHeader@@@3@@2@U?$less@I@2@V?$allocator@UMilepostHeader@@@2@@2@V342@ABU?$pair@$$CBIUMilepostHeader@@@2@@Z 0048b890 f i OnlineFieldParser.obj
 0001:0008a8f0       ??0?$pair@$$CBIUMilepostHeader@@@std@@QAE@ABIABUMilepostHeader@@@Z 0048b8f0 f i OnlineFieldParser.obj
 0001:0008a950       ?insert@?$_Tree@IU?$pair@$$CBIUMilepostHeader@@@std@@U_Kfn@?$map@IUMilepostHeader@@U?$less@I@std@@V?$allocator@UMilepostHeader@@@3@@2@U?$less@I@2@V?$allocator@UMilepostHeader@@@2@@std@@QAE?AViterator@12@V312@ABU?$pair@$$CBIUMilepostHeader@@@2@@Z 0048b950 f i OnlineFieldParser.obj
 0001:0008ac20       ?insert@?$_Tree@IU?$pair@$$CBIUMilepostHeader@@@std@@U_Kfn@?$map@IUMilepostHeader@@U?$less@I@std@@V?$allocator@UMilepostHeader@@@3@@2@U?$less@I@2@V?$allocator@UMilepostHeader@@@2@@std@@QAE?AU?$pair@Viterator@?$_Tree@IU?$pair@$$CBIUMilepostHeader@@@std@@U_Kfn@?$map@IUMilepostHeader@@U?$less@I@std@@V?$allocator@UMilepostHeader@@@3@@2@U?$less@I@2@V?$allocator@UMilepostHeader@@@2@@std@@_N@2@ABU?$pair@$$CBIUMilepostHeader@@@2@@Z 0048bc20 f i OnlineFieldParser.obj
 0001:0008ae90       ?_Insert@?$_Tree@IU?$pair@$$CBIUMilepostHeader@@@std@@U_Kfn@?$map@IUMilepostHeader@@U?$less@I@std@@V?$allocator@UMilepostHeader@@@3@@2@U?$less@I@2@V?$allocator@UMilepostHeader@@@2@@std@@IAE?AViterator@12@PAU_Node@12@0ABU?$pair@$$CBIUMilepostHeader@@@2@@Z 0048be90 f i OnlineFieldParser.obj
 0001:0008b460       ??Fiterator@?$_Tree@IU?$pair@$$CBIUMilepostHeader@@@std@@U_Kfn@?$map@IUMilepostHeader@@U?$less@I@std@@V?$allocator@UMilepostHeader@@@3@@2@U?$less@I@2@V?$allocator@UMilepostHeader@@@2@@std@@QAEAAV012@XZ 0048c460 f i OnlineFieldParser.obj
 0001:0008b4b0       ?_Consval@?$_Tree@IU?$pair@$$CBIUMilepostHeader@@@std@@U_Kfn@?$map@IUMilepostHeader@@U?$less@I@std@@V?$allocator@UMilepostHeader@@@3@@2@U?$less@I@2@V?$allocator@UMilepostHeader@@@2@@std@@IAEXPAU?$pair@$$CBIUMilepostHeader@@@2@ABU32@@Z 0048c4b0 f i OnlineFieldParser.obj
 0001:0008b500       ?_Dec@const_iterator@?$_Tree@IU?$pair@$$CBIUMilepostHeader@@@std@@U_Kfn@?$map@IUMilepostHeader@@U?$less@I@std@@V?$allocator@UMilepostHeader@@@3@@2@U?$less@I@2@V?$allocator@UMilepostHeader@@@2@@std@@QAEXXZ 0048c500 f i OnlineFieldParser.obj
 0001:0008b630       ??0?$pair@Viterator@?$_Tree@IU?$pair@$$CBIUMilepostHeader@@@std@@U_Kfn@?$map@IUMilepostHeader@@U?$less@I@std@@V?$allocator@UMilepostHeader@@@3@@2@U?$less@I@2@V?$allocator@UMilepostHeader@@@2@@std@@_N@std@@QAE@ABViterator@?$_Tree@IU?$pair@$$CBIUMilepostHeader@@@std@@U_Kfn@?$map@IUMilepostHeader@@U?$less@I@std@@V?$allocator@UMilepostHeader@@@3@@2@U?$less@I@2@V?$allocator@UMilepostHeader@@@2@@1@AB_N@Z 0048c630 f i OnlineFieldParser.obj
 0001:0008b680       ?_Construct@std@@YAXPAU?$pair@$$CBIUMilepostHeader@@@1@ABU21@@Z 0048c680 f i OnlineFieldParser.obj
 0001:0008b790       ??0OnlineGeneralParser@@QAE@XZ 0048c790 f   OnlineGeneral-Parser.obj
 0001:0008b7f0       ??_EOnlineGeneralParser@@UAEPAXI@Z 0048c7f0 f i OnlineGeneral-Parser.obj
 0001:0008b7f0       ??_GOnlineGeneralParser@@UAEPAXI@Z 0048c7f0 f i OnlineGeneral-Parser.obj
 0001:0008b860       ??1OnlineGeneralParser@@UAE@XZ 0048c860 f   OnlineGeneral-Parser.obj
 0001:0008b8b0       ?ReadText@OnlineGeneralParser@@QAEHPAD@Z 0048c8b0 f   OnlineGeneral-Parser.obj
 0001:0008bd20       ?Free@OnlineGeneralParser@@QAEXXZ 0048cd20 f   OnlineGeneral-Parser.obj
 0001:0008bdb0       ?GetGeneral@OnlineGeneralParser@@QAEPAUGeneralHeader@@H@Z 0048cdb0 f   OnlineGeneral-Parser.obj
 0001:0008be40       ?GetGeneralChar@OnlineGeneralParser@@QAEPAUGeneralHeader@@H@Z 0048ce40 f   OnlineGeneral-Parser.obj
 0001:0008bef0       ?GetID@OnlineGeneralParser@@QAEHPAD@Z 0048cef0 f   OnlineGeneral-Parser.obj
 0001:0008c220       ??0CItem@@QAE@XZ           0048d220 f   OnLineItem.obj
 0001:0008c360       ??_GCItem@@UAEPAXI@Z       0048d360 f i OnLineItem.obj
 0001:0008c360       ??_ECItem@@UAEPAXI@Z       0048d360 f i OnLineItem.obj
 0001:0008c3d0       ??1CItem@@UAE@XZ           0048d3d0 f   OnLineItem.obj
 0001:0008c4b0       ??1?$map@IPAUCItemHeader@@U?$less@I@std@@V?$allocator@PAUCItemHeader@@@3@@std@@QAE@XZ 0048d4b0 f i OnLineItem.obj
 0001:0008c500       ?ReMoveAll@CItem@@QAEXXZ   0048d500 f   OnLineItem.obj
 0001:0008c590       ?ItemLoad@CItem@@UAEHPAVOnlineText@@PAD111111111111@Z 0048d590 f   OnLineItem.obj
 0001:0008c840       ?GetItem@CItem@@QAEPAUCItemHeader@@I@Z 0048d840 f   OnLineItem.obj
 0001:0008c8e0       ?GetItem@CItem@@QAEPAUCItemHeader@@PAD@Z 0048d8e0 f   OnLineItem.obj
 0001:0008c9c0       ?GetItemHeader@CItem@@QAEPAUCItemHeader@@I@Z 0048d9c0 f   OnLineItem.obj
 0001:0008ca60       ?SetFile@CItem@@QAEXHPADFFH@Z 0048da60 f   OnLineItem.obj
 0001:0008cbd0       ?GetItemHeaderFromImperium@CItem@@QAEPAUCItemHeader@@H@Z 0048dbd0 f   OnLineItem.obj
 0001:0008ccb0       ?GetItemHeaderFromImperiumByIndex@CItem@@QAEPAUCItemHeader@@H@Z 0048dcb0 f   OnLineItem.obj
 0001:0008cd90       ?GetSpriteFileName@CItem@@QAEXHPAD0@Z 0048dd90 f   OnLineItem.obj
 0001:0008ce60       ?LoadItem@CItem@@MAEHPADPAV?$vector@UCItemHeader@@V?$allocator@UCItemHeader@@@std@@@std@@@Z 0048de60 f   OnLineItem.obj
 0001:0008db10       ?LoadWeapon@CItem@@MAEHPAD@Z 0048eb10 f   OnLineItem.obj
 0001:0008f050       ?GetGroup@CItem@@IAEHPADPAH@Z 00490050 f   OnLineItem.obj
 0001:0008f4e0       ?GetWearLoc@CItem@@QAEEI@Z 004904e0 f   OnLineItem.obj
 0001:0008f630       ?GetNation@CItem@@IAEHPAD@Z 00490630 f   OnLineItem.obj
 0001:0008f840       ?GetItemInfo@CItem@@QAEPAUCItemHeader@@IAAF@Z 00490840 f   OnLineItem.obj
 0001:0008f8c0       ?IsUpgradable@CItem@@QAEHI@Z 004908c0 f   OnLineItem.obj
 0001:0008f940       ?GetGroup@CItem@@IAEFPAUWeaponHeader@@PAD@Z 00490940 f   OnLineItem.obj
 0001:0008fb40       ?GetSoundID@CItem@@QAEFFPAD@Z 00490b40 f   OnLineItem.obj
 0001:000900d0       ?AddContainer@CItem@@IAEXPAV?$vector@UCItemHeader@@V?$allocator@UCItemHeader@@@std@@@std@@@Z 004910d0 f   OnLineItem.obj
 0001:00090160       ?Remove@CItem@@IAEXPAV?$vector@UCItemHeader@@V?$allocator@UCItemHeader@@@std@@@std@@@Z 00491160 f   OnLineItem.obj
 0001:00090290       ?Load@CItem@@UAEXPAVOnlineText@@PAD@Z 00491290 f   OnLineItem.obj
 0001:000904d0       ?AddItem@CItem@@QAEXAAUCItemHeader@@@Z 004914d0 f   OnLineItem.obj
 0001:00090560       ?LoadImperium@CItem@@MAEHPADPAV?$vector@UCItemHeader@@V?$allocator@UCItemHeader@@@std@@@std@@@Z 00491560 f   OnLineItem.obj
 0001:00090e70       ?LoadGuardian@CItem@@MAEHPADPAV?$vector@UCItemHeader@@V?$allocator@UCItemHeader@@@std@@@std@@@Z 00491e70 f   OnLineItem.obj
 0001:000918e0       ?GetID@CItem@@IAEGPAD@Z    004928e0 f   OnLineItem.obj
 0001:00091950       ?IsTimeLimitItem@CItem@@QAEHI@Z 00492950 f   OnLineItem.obj
 0001:000919c0       ?GetItemUsingDay@CItem@@QAEFI@Z 004929c0 f   OnLineItem.obj
 0001:00091a40       ??0?$vector@IV?$allocator@I@std@@@std@@QAE@ABV?$allocator@I@1@@Z 00492a40 f i OnLineItem.obj
 0001:00091ab0       ??1?$vector@IV?$allocator@I@std@@@std@@QAE@XZ 00492ab0 f i OnLineItem.obj
 0001:00091d80       ?push_back@?$vector@IV?$allocator@I@std@@@std@@QAEXABI@Z 00492d80 f i OnLineItem.obj
 0001:00091de0       ?end@?$vector@IV?$allocator@I@std@@@std@@QAEPAIXZ 00492de0 f i OnLineItem.obj
 0001:00091e20       ?clear@?$vector@IV?$allocator@I@std@@@std@@QAEXXZ 00492e20 f i OnLineItem.obj
 0001:00091e80       ?begin@?$vector@IV?$allocator@I@std@@@std@@QAEPAIXZ 00492e80 f i OnLineItem.obj
 0001:00091ec0       ?erase@?$vector@IV?$allocator@I@std@@@std@@QAEPAIPAI0@Z 00492ec0 f i OnLineItem.obj
 0001:00091f50       ??0?$vector@UCItemHeader@@V?$allocator@UCItemHeader@@@std@@@std@@QAE@ABV?$allocator@UCItemHeader@@@1@@Z 00492f50 f i OnLineItem.obj
 0001:00091fc0       ??1?$vector@UCItemHeader@@V?$allocator@UCItemHeader@@@std@@@std@@QAE@XZ 00492fc0 f i OnLineItem.obj
 0001:00092070       ?begin@?$vector@UCItemHeader@@V?$allocator@UCItemHeader@@@std@@@std@@QAEPAUCItemHeader@@XZ 00493070 f i OnLineItem.obj
 0001:000920b0       ?end@?$vector@UCItemHeader@@V?$allocator@UCItemHeader@@@std@@@std@@QAEPAUCItemHeader@@XZ 004930b0 f i OnLineItem.obj
 0001:000920f0       ?push_back@?$vector@UCItemHeader@@V?$allocator@UCItemHeader@@@std@@@std@@QAEXABUCItemHeader@@@Z 004930f0 f i OnLineItem.obj
 0001:00092150       ??0?$map@IPAUCItemHeader@@U?$less@I@std@@V?$allocator@PAUCItemHeader@@@3@@std@@QAE@ABU?$less@I@1@ABV?$allocator@PAUCItemHeader@@@1@@Z 00493150 f i OnLineItem.obj
 0001:000921b0       ?begin@?$map@IPAUCItemHeader@@U?$less@I@std@@V?$allocator@PAUCItemHeader@@@3@@std@@QAE?AViterator@?$_Tree@IU?$pair@$$CBIPAUCItemHeader@@@std@@U_Kfn@?$map@IPAUCItemHeader@@U?$less@I@std@@V?$allocator@PAUCItemHeader@@@3@@2@U?$less@I@2@V?$allocator@PAUCItemHeader@@@2@@2@XZ 004931b0 f i OnLineItem.obj
 0001:00092200       ?end@?$map@IPAUCItemHeader@@U?$less@I@std@@V?$allocator@PAUCItemHeader@@@3@@std@@QAE?AViterator@?$_Tree@IU?$pair@$$CBIPAUCItemHeader@@@std@@U_Kfn@?$map@IPAUCItemHeader@@U?$less@I@std@@V?$allocator@PAUCItemHeader@@@3@@2@U?$less@I@2@V?$allocator@PAUCItemHeader@@@2@@2@XZ 00493200 f i OnLineItem.obj
 0001:00092250       ?empty@?$map@IPAUCItemHeader@@U?$less@I@std@@V?$allocator@PAUCItemHeader@@@3@@std@@QBE_NXZ 00493250 f i OnLineItem.obj
 0001:000922a0       ?clear@?$map@IPAUCItemHeader@@U?$less@I@std@@V?$allocator@PAUCItemHeader@@@3@@std@@QAEXXZ 004932a0 f i OnLineItem.obj
 0001:000922f0       ?lower_bound@?$map@IPAUCItemHeader@@U?$less@I@std@@V?$allocator@PAUCItemHeader@@@3@@std@@QAE?AViterator@?$_Tree@IU?$pair@$$CBIPAUCItemHeader@@@std@@U_Kfn@?$map@IPAUCItemHeader@@U?$less@I@std@@V?$allocator@PAUCItemHeader@@@3@@2@U?$less@I@2@V?$allocator@PAUCItemHeader@@@2@@2@ABI@Z 004932f0 f i OnLineItem.obj
 0001:00092350       ??1?$_Tree@IU?$pair@$$CBIPAUCItemHeader@@@std@@U_Kfn@?$map@IPAUCItemHeader@@U?$less@I@std@@V?$allocator@PAUCItemHeader@@@3@@2@U?$less@I@2@V?$allocator@PAUCItemHeader@@@2@@std@@QAE@XZ 00493350 f i OnLineItem.obj
 0001:00092450       ??Citerator@?$_Tree@IU?$pair@$$CBIPAUCItemHeader@@@std@@U_Kfn@?$map@IPAUCItemHeader@@U?$less@I@std@@V?$allocator@PAUCItemHeader@@@3@@2@U?$less@I@2@V?$allocator@PAUCItemHeader@@@2@@std@@QBEPAU?$pair@$$CBIPAUCItemHeader@@@2@XZ 00493450 f i OnLineItem.obj
 0001:000924a0       ??Eiterator@?$_Tree@IU?$pair@$$CBIPAUCItemHeader@@@std@@U_Kfn@?$map@IPAUCItemHeader@@U?$less@I@std@@V?$allocator@PAUCItemHeader@@@3@@2@U?$less@I@2@V?$allocator@PAUCItemHeader@@@2@@std@@QAEAAV012@XZ 004934a0 f i OnLineItem.obj
 0001:000924f0       ??9iterator@?$_Tree@IU?$pair@$$CBIPAUCItemHeader@@@std@@U_Kfn@?$map@IPAUCItemHeader@@U?$less@I@std@@V?$allocator@PAUCItemHeader@@@3@@2@U?$less@I@2@V?$allocator@PAUCItemHeader@@@2@@std@@QBE_NABV012@@Z 004934f0 f i OnLineItem.obj
 0001:00092550       ?deallocate@?$allocator@I@std@@QAEXPAXI@Z 00493550 f i OnLineItem.obj
 0001:000925a0       ?insert@?$vector@IV?$allocator@I@std@@@std@@QAEPAIPAIABI@Z 004935a0 f i OnLineItem.obj
 0001:00092620       ?insert@?$vector@IV?$allocator@I@std@@@std@@QAEXPAIIABI@Z 00493620 f i OnLineItem.obj
 0001:000928f0       ?size@?$vector@IV?$allocator@I@std@@@std@@QBEIXZ 004938f0 f i OnLineItem.obj
 0001:00092950       ?allocate@?$allocator@I@std@@QAEPAIIPBX@Z 00493950 f i OnLineItem.obj
 0001:000929a0       ?_Destroy@?$vector@IV?$allocator@I@std@@@std@@IAEXPAI0@Z 004939a0 f i OnLineItem.obj
 0001:00092a10       ?_Ucopy@?$vector@IV?$allocator@I@std@@@std@@IAEPAIPBI0PAI@Z 00493a10 f i OnLineItem.obj
 0001:00092a90       ?_Ufill@?$vector@IV?$allocator@I@std@@@std@@IAEXPAIIABI@Z 00493a90 f i OnLineItem.obj
 0001:00092b10       ?insert@?$vector@UCItemHeader@@V?$allocator@UCItemHeader@@@std@@@std@@QAEPAUCItemHeader@@PAU3@ABU3@@Z 00493b10 f i OnLineItem.obj
 0001:00092ba0       ?_Destroy@?$vector@UCItemHeader@@V?$allocator@UCItemHeader@@@std@@@std@@IAEXPAUCItemHeader@@0@Z 00493ba0 f i OnLineItem.obj
 0001:00092c10       ?deallocate@?$allocator@UCItemHeader@@@std@@QAEXPAXI@Z 00493c10 f i OnLineItem.obj
 0001:00092c60       ??0?$_Tree@IU?$pair@$$CBIPAUCItemHeader@@@std@@U_Kfn@?$map@IPAUCItemHeader@@U?$less@I@std@@V?$allocator@PAUCItemHeader@@@3@@2@U?$less@I@2@V?$allocator@PAUCItemHeader@@@2@@std@@QAE@ABU?$less@I@1@_NABV?$allocator@PAUCItemHeader@@@1@@Z 00493c60 f i OnLineItem.obj
 0001:00092cd0       ?begin@?$_Tree@IU?$pair@$$CBIPAUCItemHeader@@@std@@U_Kfn@?$map@IPAUCItemHeader@@U?$less@I@std@@V?$allocator@PAUCItemHeader@@@3@@2@U?$less@I@2@V?$allocator@PAUCItemHeader@@@2@@std@@QAE?AViterator@12@XZ 00493cd0 f i OnLineItem.obj
 0001:00092d30       ?GetCurrentLineNo@OnlineCommonParser@@QAEHXZ 00493d30 f i OnLineItem.obj
 0001:00092d70       ?GetCurrentColumnNo@OnlineCommonParser@@QAEHXZ 00493d70 f i OnLineItem.obj
 0001:00092db0       ?end@?$_Tree@IU?$pair@$$CBIPAUCItemHeader@@@std@@U_Kfn@?$map@IPAUCItemHeader@@U?$less@I@std@@V?$allocator@PAUCItemHeader@@@3@@2@U?$less@I@2@V?$allocator@PAUCItemHeader@@@2@@std@@QAE?AViterator@12@XZ 00493db0 f i OnLineItem.obj
 0001:00092e10       ?IsEndOfLine@OnlineCommonParser@@QAEHXZ 00493e10 f i OnLineItem.obj
 0001:00092e60       ?IsEndOfColumn@OnlineCommonParser@@QAEHXZ 00493e60 f i OnLineItem.obj
 0001:00092eb0       ?empty@?$_Tree@IU?$pair@$$CBIPAUCItemHeader@@@std@@U_Kfn@?$map@IPAUCItemHeader@@U?$less@I@std@@V?$allocator@PAUCItemHeader@@@3@@2@U?$less@I@2@V?$allocator@PAUCItemHeader@@@2@@std@@QBE_NXZ 00493eb0 f i OnLineItem.obj
 0001:00092f00       ?SetErrFileName@OnlineCommonParser@@QAEXPAD@Z 00493f00 f i OnLineItem.obj
 0001:00092f60       ?erase@?$_Tree@IU?$pair@$$CBIPAUCItemHeader@@@std@@U_Kfn@?$map@IPAUCItemHeader@@U?$less@I@std@@V?$allocator@PAUCItemHeader@@@3@@2@U?$less@I@2@V?$allocator@PAUCItemHeader@@@2@@std@@QAE?AViterator@12@V312@0@Z 00493f60 f i OnLineItem.obj
 0001:000930c0       ?clear@?$_Tree@IU?$pair@$$CBIPAUCItemHeader@@@std@@U_Kfn@?$map@IPAUCItemHeader@@U?$less@I@std@@V?$allocator@PAUCItemHeader@@@3@@2@U?$less@I@2@V?$allocator@PAUCItemHeader@@@2@@std@@QAEXXZ 004940c0 f i OnLineItem.obj
 0001:00093130       ?lower_bound@?$_Tree@IU?$pair@$$CBIPAUCItemHeader@@@std@@U_Kfn@?$map@IPAUCItemHeader@@U?$less@I@std@@V?$allocator@PAUCItemHeader@@@3@@2@U?$less@I@2@V?$allocator@PAUCItemHeader@@@2@@std@@QAE?AViterator@12@ABI@Z 00494130 f i OnLineItem.obj
 0001:00093190       ?_Freenode@?$_Tree@IU?$pair@$$CBIPAUCItemHeader@@@std@@U_Kfn@?$map@IPAUCItemHeader@@U?$less@I@std@@V?$allocator@PAUCItemHeader@@@3@@2@U?$less@I@2@V?$allocator@PAUCItemHeader@@@2@@std@@IAEXPAU_Node@12@@Z 00494190 f i OnLineItem.obj
 0001:000931e0       ?_Inc@const_iterator@?$_Tree@IU?$pair@$$CBIPAUCItemHeader@@@std@@U_Kfn@?$map@IPAUCItemHeader@@U?$less@I@std@@V?$allocator@PAUCItemHeader@@@3@@2@U?$less@I@2@V?$allocator@PAUCItemHeader@@@2@@std@@QAEXXZ 004941e0 f i OnLineItem.obj
 0001:000932d0       ??Diterator@?$_Tree@IU?$pair@$$CBIPAUCItemHeader@@@std@@U_Kfn@?$map@IPAUCItemHeader@@U?$less@I@std@@V?$allocator@PAUCItemHeader@@@3@@2@U?$less@I@2@V?$allocator@PAUCItemHeader@@@2@@std@@QBEAAU?$pair@$$CBIPAUCItemHeader@@@2@XZ 004942d0 f i OnLineItem.obj
 0001:00093320       ??8iterator@?$_Tree@IU?$pair@$$CBIPAUCItemHeader@@@std@@U_Kfn@?$map@IPAUCItemHeader@@U?$less@I@std@@V?$allocator@PAUCItemHeader@@@3@@2@U?$less@I@2@V?$allocator@PAUCItemHeader@@@2@@std@@QBE_NABV012@@Z 00494320 f i OnLineItem.obj
 0001:00093370       ?construct@?$allocator@I@std@@QAEXPAIABI@Z 00494370 f i OnLineItem.obj
 0001:000933c0       ?destroy@?$allocator@I@std@@QAEXPAI@Z 004943c0 f i OnLineItem.obj
 0001:00093410       ?insert@?$vector@UCItemHeader@@V?$allocator@UCItemHeader@@@std@@@std@@QAEXPAUCItemHeader@@IABU3@@Z 00494410 f i OnLineItem.obj
 0001:00093730       ?size@?$vector@UCItemHeader@@V?$allocator@UCItemHeader@@@std@@@std@@QBEIXZ 00494730 f i OnLineItem.obj
 0001:000937a0       ?destroy@?$allocator@UCItemHeader@@@std@@QAEXPAUCItemHeader@@@Z 004947a0 f i OnLineItem.obj
 0001:000937f0       ?deallocate@?$allocator@PAUCItemHeader@@@std@@QAEXPAXI@Z 004947f0 f i OnLineItem.obj
 0001:00093840       ?_Parent@?$_Tree@IU?$pair@$$CBIPAUCItemHeader@@@std@@U_Kfn@?$map@IPAUCItemHeader@@U?$less@I@std@@V?$allocator@PAUCItemHeader@@@3@@2@U?$less@I@2@V?$allocator@PAUCItemHeader@@@2@@std@@KAAAPAU_Node@12@PAU312@@Z 00494840 f i OnLineItem.obj
 0001:00093870       ?_Right@?$_Tree@IU?$pair@$$CBIPAUCItemHeader@@@std@@U_Kfn@?$map@IPAUCItemHeader@@U?$less@I@std@@V?$allocator@PAUCItemHeader@@@3@@2@U?$less@I@2@V?$allocator@PAUCItemHeader@@@2@@std@@KAAAPAU_Node@12@PAU312@@Z 00494870 f i OnLineItem.obj
 0001:000938a0       ?_Value@?$_Tree@IU?$pair@$$CBIPAUCItemHeader@@@std@@U_Kfn@?$map@IPAUCItemHeader@@U?$less@I@std@@V?$allocator@PAUCItemHeader@@@3@@2@U?$less@I@2@V?$allocator@PAUCItemHeader@@@2@@std@@KAAAU?$pair@$$CBIPAUCItemHeader@@@2@PAU_Node@12@@Z 004948a0 f i OnLineItem.obj
 0001:000938d0       ?erase@?$_Tree@IU?$pair@$$CBIPAUCItemHeader@@@std@@U_Kfn@?$map@IPAUCItemHeader@@U?$less@I@std@@V?$allocator@PAUCItemHeader@@@3@@2@U?$less@I@2@V?$allocator@PAUCItemHeader@@@2@@std@@QAE?AViterator@12@V312@@Z 004948d0 f i OnLineItem.obj
 0001:00094360       ?_Erase@?$_Tree@IU?$pair@$$CBIPAUCItemHeader@@@std@@U_Kfn@?$map@IPAUCItemHeader@@U?$less@I@std@@V?$allocator@PAUCItemHeader@@@3@@2@U?$less@I@2@V?$allocator@PAUCItemHeader@@@2@@std@@IAEXPAU_Node@12@@Z 00495360 f i OnLineItem.obj
 0001:00094420       ?_Init@?$_Tree@IU?$pair@$$CBIPAUCItemHeader@@@std@@U_Kfn@?$map@IPAUCItemHeader@@U?$less@I@std@@V?$allocator@PAUCItemHeader@@@3@@2@U?$less@I@2@V?$allocator@PAUCItemHeader@@@2@@std@@IAEXXZ 00495420 f i OnLineItem.obj
 0001:00094590       ?_Lbound@?$_Tree@IU?$pair@$$CBIPAUCItemHeader@@@std@@U_Kfn@?$map@IPAUCItemHeader@@U?$less@I@std@@V?$allocator@PAUCItemHeader@@@3@@2@U?$less@I@2@V?$allocator@PAUCItemHeader@@@2@@std@@IBEPAU_Node@12@ABI@Z 00495590 f i OnLineItem.obj
 0001:00094660       ?_Lmost@?$_Tree@IU?$pair@$$CBIPAUCItemHeader@@@std@@U_Kfn@?$map@IPAUCItemHeader@@U?$less@I@std@@V?$allocator@PAUCItemHeader@@@3@@2@U?$less@I@2@V?$allocator@PAUCItemHeader@@@2@@std@@IAEAAPAU_Node@12@XZ 00495660 f i OnLineItem.obj
 0001:000946b0       ?_Min@?$_Tree@IU?$pair@$$CBIPAUCItemHeader@@@std@@U_Kfn@?$map@IPAUCItemHeader@@U?$less@I@std@@V?$allocator@PAUCItemHeader@@@3@@2@U?$less@I@2@V?$allocator@PAUCItemHeader@@@2@@std@@KAPAU_Node@12@PAU312@@Z 004956b0 f i OnLineItem.obj
 0001:00094720       ?_Rmost@?$_Tree@IU?$pair@$$CBIPAUCItemHeader@@@std@@U_Kfn@?$map@IPAUCItemHeader@@U?$less@I@std@@V?$allocator@PAUCItemHeader@@@3@@2@U?$less@I@2@V?$allocator@PAUCItemHeader@@@2@@std@@IAEAAPAU_Node@12@XZ 00495720 f i OnLineItem.obj
 0001:00094770       ?_Root@?$_Tree@IU?$pair@$$CBIPAUCItemHeader@@@std@@U_Kfn@?$map@IPAUCItemHeader@@U?$less@I@std@@V?$allocator@PAUCItemHeader@@@3@@2@U?$less@I@2@V?$allocator@PAUCItemHeader@@@2@@std@@IAEAAPAU_Node@12@XZ 00495770 f i OnLineItem.obj
 0001:000947c0       ??0iterator@?$_Tree@IU?$pair@$$CBIPAUCItemHeader@@@std@@U_Kfn@?$map@IPAUCItemHeader@@U?$less@I@std@@V?$allocator@PAUCItemHeader@@@3@@2@U?$less@I@2@V?$allocator@PAUCItemHeader@@@2@@std@@QAE@PAU_Node@12@@Z 004957c0 f i OnLineItem.obj
 0001:00094810       ??Eiterator@?$_Tree@IU?$pair@$$CBIPAUCItemHeader@@@std@@U_Kfn@?$map@IPAUCItemHeader@@U?$less@I@std@@V?$allocator@PAUCItemHeader@@@3@@2@U?$less@I@2@V?$allocator@PAUCItemHeader@@@2@@std@@QAE?AV012@H@Z 00495810 f i OnLineItem.obj
 0001:00094870       ?_Ucopy@?$vector@UCItemHeader@@V?$allocator@UCItemHeader@@@std@@@std@@IAEPAUCItemHeader@@PBU3@0PAU3@@Z 00495870 f i OnLineItem.obj
 0001:000948f0       ?_Ufill@?$vector@UCItemHeader@@V?$allocator@UCItemHeader@@@std@@@std@@IAEXPAUCItemHeader@@IABU3@@Z 004958f0 f i OnLineItem.obj
 0001:00094970       ?allocate@?$allocator@UCItemHeader@@@std@@QAEPAUCItemHeader@@IPBX@Z 00495970 f i OnLineItem.obj
 0001:000949c0       ?_Color@?$_Tree@IU?$pair@$$CBIPAUCItemHeader@@@std@@U_Kfn@?$map@IPAUCItemHeader@@U?$less@I@std@@V?$allocator@PAUCItemHeader@@@3@@2@U?$less@I@2@V?$allocator@PAUCItemHeader@@@2@@std@@KAAAW4_Redbl@12@PAU_Node@12@@Z 004959c0 f i OnLineItem.obj
 0001:000949f0       ?_Key@?$_Tree@IU?$pair@$$CBIPAUCItemHeader@@@std@@U_Kfn@?$map@IPAUCItemHeader@@U?$less@I@std@@V?$allocator@PAUCItemHeader@@@3@@2@U?$less@I@2@V?$allocator@PAUCItemHeader@@@2@@std@@KAABIPAU_Node@12@@Z 004959f0 f i OnLineItem.obj
 0001:00094a40       ?_Left@?$_Tree@IU?$pair@$$CBIPAUCItemHeader@@@std@@U_Kfn@?$map@IPAUCItemHeader@@U?$less@I@std@@V?$allocator@PAUCItemHeader@@@3@@2@U?$less@I@2@V?$allocator@PAUCItemHeader@@@2@@std@@KAAAPAU_Node@12@PAU312@@Z 00495a40 f i OnLineItem.obj
 0001:00094a70       ?_Lrotate@?$_Tree@IU?$pair@$$CBIPAUCItemHeader@@@std@@U_Kfn@?$map@IPAUCItemHeader@@U?$less@I@std@@V?$allocator@PAUCItemHeader@@@3@@2@U?$less@I@2@V?$allocator@PAUCItemHeader@@@2@@std@@IAEXPAU_Node@12@@Z 00495a70 f i OnLineItem.obj
 0001:00094c10       ?_Max@?$_Tree@IU?$pair@$$CBIPAUCItemHeader@@@std@@U_Kfn@?$map@IPAUCItemHeader@@U?$less@I@std@@V?$allocator@PAUCItemHeader@@@3@@2@U?$less@I@2@V?$allocator@PAUCItemHeader@@@2@@std@@KAPAU_Node@12@PAU312@@Z 00495c10 f i OnLineItem.obj
 0001:00094c80       ?_Root@?$_Tree@IU?$pair@$$CBIPAUCItemHeader@@@std@@U_Kfn@?$map@IPAUCItemHeader@@U?$less@I@std@@V?$allocator@PAUCItemHeader@@@3@@2@U?$less@I@2@V?$allocator@PAUCItemHeader@@@2@@std@@IBEAAPAU_Node@12@XZ 00495c80 f i OnLineItem.obj
 0001:00094cd0       ?_Rrotate@?$_Tree@IU?$pair@$$CBIPAUCItemHeader@@@std@@U_Kfn@?$map@IPAUCItemHeader@@U?$less@I@std@@V?$allocator@PAUCItemHeader@@@3@@2@U?$less@I@2@V?$allocator@PAUCItemHeader@@@2@@std@@IAEXPAU_Node@12@@Z 00495cd0 f i OnLineItem.obj
 0001:00094e70       ?_Buynode@?$_Tree@IU?$pair@$$CBIPAUCItemHeader@@@std@@U_Kfn@?$map@IPAUCItemHeader@@U?$less@I@std@@V?$allocator@PAUCItemHeader@@@3@@2@U?$less@I@2@V?$allocator@PAUCItemHeader@@@2@@std@@IAEPAU_Node@12@PAU312@W4_Redbl@12@@Z 00495e70 f i OnLineItem.obj
 0001:00094ef0       ?_Destval@?$_Tree@IU?$pair@$$CBIPAUCItemHeader@@@std@@U_Kfn@?$map@IPAUCItemHeader@@U?$less@I@std@@V?$allocator@PAUCItemHeader@@@3@@2@U?$less@I@2@V?$allocator@PAUCItemHeader@@@2@@std@@IAEXPAU?$pair@$$CBIPAUCItemHeader@@@2@@Z 00495ef0 f i OnLineItem.obj
 0001:00094f40       ??0const_iterator@?$_Tree@IU?$pair@$$CBIPAUCItemHeader@@@std@@U_Kfn@?$map@IPAUCItemHeader@@U?$less@I@std@@V?$allocator@PAUCItemHeader@@@3@@2@U?$less@I@2@V?$allocator@PAUCItemHeader@@@2@@std@@QAE@PAU_Node@12@@Z 00495f40 f i OnLineItem.obj
 0001:00094f80       ?_Mynode@const_iterator@?$_Tree@IU?$pair@$$CBIPAUCItemHeader@@@std@@U_Kfn@?$map@IPAUCItemHeader@@U?$less@I@std@@V?$allocator@PAUCItemHeader@@@3@@2@U?$less@I@2@V?$allocator@PAUCItemHeader@@@2@@std@@QBEPAU_Node@23@XZ 00495f80 f i OnLineItem.obj
 0001:00094fc0       ?construct@?$allocator@UCItemHeader@@@std@@QAEXPAUCItemHeader@@ABU3@@Z 00495fc0 f i OnLineItem.obj
 0001:00095010       ??R_Kfn@?$map@IPAUCItemHeader@@U?$less@I@std@@V?$allocator@PAUCItemHeader@@@3@@std@@QBEABIABU?$pair@$$CBIPAUCItemHeader@@@2@@Z 00496010 f i OnLineItem.obj
 0001:00095050       ?_Charalloc@?$allocator@PAUCItemHeader@@@std@@QAEPADI@Z 00496050 f i OnLineItem.obj
 0001:000950a0       ?efficientAddOrUpdata@@YA?AViterator@?$_Tree@IU?$pair@$$CBIPAUCItemHeader@@@std@@U_Kfn@?$map@IPAUCItemHeader@@U?$less@I@std@@V?$allocator@PAUCItemHeader@@@3@@2@U?$less@I@2@V?$allocator@PAUCItemHeader@@@2@@std@@AAV?$map@IPAUCItemHeader@@U?$less@I@std@@V?$allocator@PAUCItemHeader@@@3@@3@ABIABQAUCItemHeader@@@Z 004960a0 f i OnLineItem.obj
 0001:000951a0       ?copy@std@@YAPAIPAI00@Z    004961a0 f i OnLineItem.obj
 0001:00095200       ?_Allocate@std@@YAPAIHPAI@Z 00496200 f i OnLineItem.obj
 0001:00095260       ?fill@std@@YAXPAI0ABI@Z    00496260 f i OnLineItem.obj
 0001:000952b0       ?copy_backward@std@@YAPAIPAI00@Z 004962b0 f i OnLineItem.obj
 0001:00095310       ?_Construct@std@@YAXPAIABI@Z 00496310 f i OnLineItem.obj
 0001:00095380       ?_Destroy@std@@YAXPAI@Z    00496380 f i OnLineItem.obj
 0001:000953b0       ?fill@std@@YAXPAUCItemHeader@@0ABU2@@Z 004963b0 f i OnLineItem.obj
 0001:00095410       ?copy_backward@std@@YAPAUCItemHeader@@PAU2@00@Z 00496410 f i OnLineItem.obj
 0001:00095480       ?_Destroy@std@@YAXPAUCItemHeader@@@Z 00496480 f i OnLineItem.obj
 0001:000954b0       ?swap@std@@YAXAAW4_Redbl@?$_Tree@IU?$pair@$$CBIPAUCItemHeader@@@std@@U_Kfn@?$map@IPAUCItemHeader@@U?$less@I@std@@V?$allocator@PAUCItemHeader@@@3@@2@U?$less@I@2@V?$allocator@PAUCItemHeader@@@2@@1@0@Z 004964b0 f i OnLineItem.obj
 0001:00095500       ?_Allocate@std@@YAPAUCItemHeader@@HPAU2@@Z 00496500 f i OnLineItem.obj
 0001:00095560       ?_Destroy@std@@YAXPAU?$pair@$$CBIPAUCItemHeader@@@1@@Z 00496560 f i OnLineItem.obj
 0001:00095590       ?_Construct@std@@YAXPAUCItemHeader@@ABU2@@Z 00496590 f i OnLineItem.obj
 0001:00095610       ?insert@?$map@IPAUCItemHeader@@U?$less@I@std@@V?$allocator@PAUCItemHeader@@@3@@std@@QAE?AViterator@?$_Tree@IU?$pair@$$CBIPAUCItemHeader@@@std@@U_Kfn@?$map@IPAUCItemHeader@@U?$less@I@std@@V?$allocator@PAUCItemHeader@@@3@@2@U?$less@I@2@V?$allocator@PAUCItemHeader@@@2@@2@V342@ABU?$pair@$$CBIPAUCItemHeader@@@2@@Z 00496610 f i OnLineItem.obj
 0001:00095670       ?key_comp@?$map@IPAUCItemHeader@@U?$less@I@std@@V?$allocator@PAUCItemHeader@@@3@@std@@QBE?AU?$less@I@2@XZ 00496670 f i OnLineItem.obj
 0001:000956c0       ??0?$pair@$$CBIPAUCItemHeader@@@std@@QAE@ABIABQAUCItemHeader@@@Z 004966c0 f i OnLineItem.obj
 0001:00095710       ?key_comp@?$_Tree@IU?$pair@$$CBIPAUCItemHeader@@@std@@U_Kfn@?$map@IPAUCItemHeader@@U?$less@I@std@@V?$allocator@PAUCItemHeader@@@3@@2@U?$less@I@2@V?$allocator@PAUCItemHeader@@@2@@std@@QBE?AU?$less@I@2@XZ 00496710 f i OnLineItem.obj
 0001:00095760       ?insert@?$_Tree@IU?$pair@$$CBIPAUCItemHeader@@@std@@U_Kfn@?$map@IPAUCItemHeader@@U?$less@I@std@@V?$allocator@PAUCItemHeader@@@3@@2@U?$less@I@2@V?$allocator@PAUCItemHeader@@@2@@std@@QAE?AViterator@12@V312@ABU?$pair@$$CBIPAUCItemHeader@@@2@@Z 00496760 f i OnLineItem.obj
 0001:00095a30       ?insert@?$_Tree@IU?$pair@$$CBIPAUCItemHeader@@@std@@U_Kfn@?$map@IPAUCItemHeader@@U?$less@I@std@@V?$allocator@PAUCItemHeader@@@3@@2@U?$less@I@2@V?$allocator@PAUCItemHeader@@@2@@std@@QAE?AU?$pair@Viterator@?$_Tree@IU?$pair@$$CBIPAUCItemHeader@@@std@@U_Kfn@?$map@IPAUCItemHeader@@U?$less@I@std@@V?$allocator@PAUCItemHeader@@@3@@2@U?$less@I@2@V?$allocator@PAUCItemHeader@@@2@@std@@_N@2@ABU?$pair@$$CBIPAUCItemHeader@@@2@@Z 00496a30 f i OnLineItem.obj
 0001:00095ca0       ?_Insert@?$_Tree@IU?$pair@$$CBIPAUCItemHeader@@@std@@U_Kfn@?$map@IPAUCItemHeader@@U?$less@I@std@@V?$allocator@PAUCItemHeader@@@3@@2@U?$less@I@2@V?$allocator@PAUCItemHeader@@@2@@std@@IAE?AViterator@12@PAU_Node@12@0ABU?$pair@$$CBIPAUCItemHeader@@@2@@Z 00496ca0 f i OnLineItem.obj
 0001:00096270       ??Fiterator@?$_Tree@IU?$pair@$$CBIPAUCItemHeader@@@std@@U_Kfn@?$map@IPAUCItemHeader@@U?$less@I@std@@V?$allocator@PAUCItemHeader@@@3@@2@U?$less@I@2@V?$allocator@PAUCItemHeader@@@2@@std@@QAEAAV012@XZ 00497270 f i OnLineItem.obj
 0001:000962c0       ?_Consval@?$_Tree@IU?$pair@$$CBIPAUCItemHeader@@@std@@U_Kfn@?$map@IPAUCItemHeader@@U?$less@I@std@@V?$allocator@PAUCItemHeader@@@3@@2@U?$less@I@2@V?$allocator@PAUCItemHeader@@@2@@std@@IAEXPAU?$pair@$$CBIPAUCItemHeader@@@2@ABU32@@Z 004972c0 f i OnLineItem.obj
 0001:00096310       ?_Dec@const_iterator@?$_Tree@IU?$pair@$$CBIPAUCItemHeader@@@std@@U_Kfn@?$map@IPAUCItemHeader@@U?$less@I@std@@V?$allocator@PAUCItemHeader@@@3@@2@U?$less@I@2@V?$allocator@PAUCItemHeader@@@2@@std@@QAEXXZ 00497310 f i OnLineItem.obj
 0001:00096440       ??0?$pair@Viterator@?$_Tree@IU?$pair@$$CBIPAUCItemHeader@@@std@@U_Kfn@?$map@IPAUCItemHeader@@U?$less@I@std@@V?$allocator@PAUCItemHeader@@@3@@2@U?$less@I@2@V?$allocator@PAUCItemHeader@@@2@@std@@_N@std@@QAE@ABViterator@?$_Tree@IU?$pair@$$CBIPAUCItemHeader@@@std@@U_Kfn@?$map@IPAUCItemHeader@@U?$less@I@std@@V?$allocator@PAUCItemHeader@@@3@@2@U?$less@I@2@V?$allocator@PAUCItemHeader@@@2@@1@AB_N@Z 00497440 f i OnLineItem.obj
 0001:00096490       ?_Construct@std@@YAXPAU?$pair@$$CBIPAUCItemHeader@@@1@ABU21@@Z 00497490 f i OnLineItem.obj
 0001:000965a0       ??0OnlineLevelMarkParser@@QAE@XZ 004975a0 f   OnlineLevelMark-Parser.obj
 0001:00096610       ??_EOnlineLevelMarkParser@@UAEPAXI@Z 00497610 f i OnlineLevelMark-Parser.obj
 0001:00096610       ??_GOnlineLevelMarkParser@@UAEPAXI@Z 00497610 f i OnlineLevelMark-Parser.obj
 0001:00096680       ??1OnlineLevelMarkParser@@UAE@XZ 00497680 f   OnlineLevelMark-Parser.obj
 0001:000966d0       ?Create@OnlineLevelMarkParser@@QAEHPAD@Z 004976d0 f   OnlineLevelMark-Parser.obj
 0001:00096b30       ?Release@OnlineLevelMarkParser@@QAEXXZ 00497b30 f   OnlineLevelMark-Parser.obj
 0001:00096bc0       ?GetLevelMarkByLevel@OnlineLevelMarkParser@@QAEPAULevelMarkHeader@@H@Z 00497bc0 f   OnlineLevelMark-Parser.obj
 0001:00096c70       ?GetLevelMarkByMarkCode@OnlineLevelMarkParser@@QAEPAULevelMarkHeader@@H@Z 00497c70 f   OnlineLevelMark-Parser.obj
 0001:00096fb0       ?ReadText@OnlineMapIndexParser@@QAEHPADPAVOnlineVillageParser@@@Z 00497fb0 f   OnlineMapIndex-Parser.obj
 0001:00097820       ?Free@OnlineMapIndexParser@@QAEXXZ 00498820 f   OnlineMapIndex-Parser.obj
 0001:00097890       ?GetMapDataCount@OnlineMapIndexParser@@QAEHXZ 00498890 f   OnlineMapIndex-Parser.obj
 0001:000978e0       ?GetVillageMapDataCount@OnlineMapIndexParser@@QAEHXZ 004988e0 f   OnlineMapIndex-Parser.obj
 0001:00097930       ?GetMapData@OnlineMapIndexParser@@QAEPAUMapIndexHeader@@F@Z 00498930 f   OnlineMapIndex-Parser.obj
 0001:00097980       ?GetVillageMapData@OnlineMapIndexParser@@QAEPAUMapIndexHeader@@F@Z 00498980 f   OnlineMapIndex-Parser.obj
 0001:000979d0       ?GetMapIndexData@OnlineMapIndexParser@@QAEPAUMapIndexHeader@@F@Z 004989d0 f   OnlineMapIndex-Parser.obj
 0001:00097b10       ?Add@OnlineMapIndexParser@@AAEXPAV?$vector@UMapIndexHeader@@V?$allocator@UMapIndexHeader@@@std@@@std@@@Z 00498b10 f   OnlineMapIndex-Parser.obj
 0001:00097ba0       ?begin@?$map@FPAUMapIndexHeader@@U?$less@F@std@@V?$allocator@PAUMapIndexHeader@@@3@@std@@QAE?AViterator@?$_Tree@FU?$pair@$$CBFPAUMapIndexHeader@@@std@@U_Kfn@?$map@FPAUMapIndexHeader@@U?$less@F@std@@V?$allocator@PAUMapIndexHeader@@@3@@2@U?$less@F@2@V?$allocator@PAUMapIndexHeader@@@2@@2@XZ 00498ba0 f i OnlineMapIndex-Parser.obj
 0001:00097bf0       ?end@?$map@FPAUMapIndexHeader@@U?$less@F@std@@V?$allocator@PAUMapIndexHeader@@@3@@std@@QAE?AViterator@?$_Tree@FU?$pair@$$CBFPAUMapIndexHeader@@@std@@U_Kfn@?$map@FPAUMapIndexHeader@@U?$less@F@std@@V?$allocator@PAUMapIndexHeader@@@3@@2@U?$less@F@2@V?$allocator@PAUMapIndexHeader@@@2@@2@XZ 00498bf0 f i OnlineMapIndex-Parser.obj
 0001:00097c40       ?clear@?$map@FPAUMapIndexHeader@@U?$less@F@std@@V?$allocator@PAUMapIndexHeader@@@3@@std@@QAEXXZ 00498c40 f i OnlineMapIndex-Parser.obj
 0001:00097c90       ?key_comp@?$map@FPAUMapIndexHeader@@U?$less@F@std@@V?$allocator@PAUMapIndexHeader@@@3@@std@@QBE?AU?$less@F@2@XZ 00498c90 f i OnlineMapIndex-Parser.obj
 0001:00097ce0       ?lower_bound@?$map@FPAUMapIndexHeader@@U?$less@F@std@@V?$allocator@PAUMapIndexHeader@@@3@@std@@QAE?AViterator@?$_Tree@FU?$pair@$$CBFPAUMapIndexHeader@@@std@@U_Kfn@?$map@FPAUMapIndexHeader@@U?$less@F@std@@V?$allocator@PAUMapIndexHeader@@@3@@2@U?$less@F@2@V?$allocator@PAUMapIndexHeader@@@2@@2@ABF@Z 00498ce0 f i OnlineMapIndex-Parser.obj
 0001:00097d40       ??R?$less@F@std@@QBE_NABF0@Z 00498d40 f i OnlineMapIndex-Parser.obj
 0001:00097d90       ??Citerator@?$_Tree@FU?$pair@$$CBFPAUMapIndexHeader@@@std@@U_Kfn@?$map@FPAUMapIndexHeader@@U?$less@F@std@@V?$allocator@PAUMapIndexHeader@@@3@@2@U?$less@F@2@V?$allocator@PAUMapIndexHeader@@@2@@std@@QBEPAU?$pair@$$CBFPAUMapIndexHeader@@@2@XZ 00498d90 f i OnlineMapIndex-Parser.obj
 0001:00097de0       ??Eiterator@?$_Tree@FU?$pair@$$CBFPAUMapIndexHeader@@@std@@U_Kfn@?$map@FPAUMapIndexHeader@@U?$less@F@std@@V?$allocator@PAUMapIndexHeader@@@3@@2@U?$less@F@2@V?$allocator@PAUMapIndexHeader@@@2@@std@@QAEAAV012@XZ 00498de0 f i OnlineMapIndex-Parser.obj
 0001:00097e30       ??9iterator@?$_Tree@FU?$pair@$$CBFPAUMapIndexHeader@@@std@@U_Kfn@?$map@FPAUMapIndexHeader@@U?$less@F@std@@V?$allocator@PAUMapIndexHeader@@@3@@2@U?$less@F@2@V?$allocator@PAUMapIndexHeader@@@2@@std@@QBE_NABV012@@Z 00498e30 f i OnlineMapIndex-Parser.obj
 0001:00097e90       ?begin@?$vector@UMapIndexHeader@@V?$allocator@UMapIndexHeader@@@std@@@std@@QAEPAUMapIndexHeader@@XZ 00498e90 f i OnlineMapIndex-Parser.obj
 0001:00097ed0       ?end@?$vector@UMapIndexHeader@@V?$allocator@UMapIndexHeader@@@std@@@std@@QAEPAUMapIndexHeader@@XZ 00498ed0 f i OnlineMapIndex-Parser.obj
 0001:00097f10       ?size@?$vector@UMapIndexHeader@@V?$allocator@UMapIndexHeader@@@std@@@std@@QBEIXZ 00498f10 f i OnlineMapIndex-Parser.obj
 0001:00097f80       ??A?$vector@UMapIndexHeader@@V?$allocator@UMapIndexHeader@@@std@@@std@@QAEAAUMapIndexHeader@@I@Z 00498f80 f i OnlineMapIndex-Parser.obj
 0001:00097fe0       ?push_back@?$vector@UMapIndexHeader@@V?$allocator@UMapIndexHeader@@@std@@@std@@QAEXABUMapIndexHeader@@@Z 00498fe0 f i OnlineMapIndex-Parser.obj
 0001:00098040       ?clear@?$vector@UMapIndexHeader@@V?$allocator@UMapIndexHeader@@@std@@@std@@QAEXXZ 00499040 f i OnlineMapIndex-Parser.obj
 0001:000980a0       ?begin@?$_Tree@FU?$pair@$$CBFPAUMapIndexHeader@@@std@@U_Kfn@?$map@FPAUMapIndexHeader@@U?$less@F@std@@V?$allocator@PAUMapIndexHeader@@@3@@2@U?$less@F@2@V?$allocator@PAUMapIndexHeader@@@2@@std@@QAE?AViterator@12@XZ 004990a0 f i OnlineMapIndex-Parser.obj
 0001:00098100       ?end@?$_Tree@FU?$pair@$$CBFPAUMapIndexHeader@@@std@@U_Kfn@?$map@FPAUMapIndexHeader@@U?$less@F@std@@V?$allocator@PAUMapIndexHeader@@@3@@2@U?$less@F@2@V?$allocator@PAUMapIndexHeader@@@2@@std@@QAE?AViterator@12@XZ 00499100 f i OnlineMapIndex-Parser.obj
 0001:00098160       ?key_comp@?$_Tree@FU?$pair@$$CBFPAUMapIndexHeader@@@std@@U_Kfn@?$map@FPAUMapIndexHeader@@U?$less@F@std@@V?$allocator@PAUMapIndexHeader@@@3@@2@U?$less@F@2@V?$allocator@PAUMapIndexHeader@@@2@@std@@QBE?AU?$less@F@2@XZ 00499160 f i OnlineMapIndex-Parser.obj
 0001:000981b0       ?clear@?$_Tree@FU?$pair@$$CBFPAUMapIndexHeader@@@std@@U_Kfn@?$map@FPAUMapIndexHeader@@U?$less@F@std@@V?$allocator@PAUMapIndexHeader@@@3@@2@U?$less@F@2@V?$allocator@PAUMapIndexHeader@@@2@@std@@QAEXXZ 004991b0 f i OnlineMapIndex-Parser.obj
 0001:00098220       ?erase@?$_Tree@FU?$pair@$$CBFPAUMapIndexHeader@@@std@@U_Kfn@?$map@FPAUMapIndexHeader@@U?$less@F@std@@V?$allocator@PAUMapIndexHeader@@@3@@2@U?$less@F@2@V?$allocator@PAUMapIndexHeader@@@2@@std@@QAE?AViterator@12@V312@0@Z 00499220 f i OnlineMapIndex-Parser.obj
 0001:00098380       ?lower_bound@?$_Tree@FU?$pair@$$CBFPAUMapIndexHeader@@@std@@U_Kfn@?$map@FPAUMapIndexHeader@@U?$less@F@std@@V?$allocator@PAUMapIndexHeader@@@3@@2@U?$less@F@2@V?$allocator@PAUMapIndexHeader@@@2@@std@@QAE?AViterator@12@ABF@Z 00499380 f i OnlineMapIndex-Parser.obj
 0001:000983e0       ?_Inc@const_iterator@?$_Tree@FU?$pair@$$CBFPAUMapIndexHeader@@@std@@U_Kfn@?$map@FPAUMapIndexHeader@@U?$less@F@std@@V?$allocator@PAUMapIndexHeader@@@3@@2@U?$less@F@2@V?$allocator@PAUMapIndexHeader@@@2@@std@@QAEXXZ 004993e0 f i OnlineMapIndex-Parser.obj
 0001:000984d0       ??Diterator@?$_Tree@FU?$pair@$$CBFPAUMapIndexHeader@@@std@@U_Kfn@?$map@FPAUMapIndexHeader@@U?$less@F@std@@V?$allocator@PAUMapIndexHeader@@@3@@2@U?$less@F@2@V?$allocator@PAUMapIndexHeader@@@2@@std@@QBEAAU?$pair@$$CBFPAUMapIndexHeader@@@2@XZ 004994d0 f i OnlineMapIndex-Parser.obj
 0001:00098520       ??8iterator@?$_Tree@FU?$pair@$$CBFPAUMapIndexHeader@@@std@@U_Kfn@?$map@FPAUMapIndexHeader@@U?$less@F@std@@V?$allocator@PAUMapIndexHeader@@@3@@2@U?$less@F@2@V?$allocator@PAUMapIndexHeader@@@2@@std@@QBE_NABV012@@Z 00499520 f i OnlineMapIndex-Parser.obj
 0001:00098570       ?insert@?$vector@UMapIndexHeader@@V?$allocator@UMapIndexHeader@@@std@@@std@@QAEPAUMapIndexHeader@@PAU3@ABU3@@Z 00499570 f i OnlineMapIndex-Parser.obj
 0001:00098600       ?erase@?$vector@UMapIndexHeader@@V?$allocator@UMapIndexHeader@@@std@@@std@@QAEPAUMapIndexHeader@@PAU3@0@Z 00499600 f i OnlineMapIndex-Parser.obj
 0001:00098690       ?_Destroy@?$vector@UMapIndexHeader@@V?$allocator@UMapIndexHeader@@@std@@@std@@IAEXPAUMapIndexHeader@@0@Z 00499690 f i OnlineMapIndex-Parser.obj
 0001:00098700       ?_Parent@?$_Tree@FU?$pair@$$CBFPAUMapIndexHeader@@@std@@U_Kfn@?$map@FPAUMapIndexHeader@@U?$less@F@std@@V?$allocator@PAUMapIndexHeader@@@3@@2@U?$less@F@2@V?$allocator@PAUMapIndexHeader@@@2@@std@@KAAAPAU_Node@12@PAU312@@Z 00499700 f i OnlineMapIndex-Parser.obj
 0001:00098730       ?_Right@?$_Tree@FU?$pair@$$CBFPAUMapIndexHeader@@@std@@U_Kfn@?$map@FPAUMapIndexHeader@@U?$less@F@std@@V?$allocator@PAUMapIndexHeader@@@3@@2@U?$less@F@2@V?$allocator@PAUMapIndexHeader@@@2@@std@@KAAAPAU_Node@12@PAU312@@Z 00499730 f i OnlineMapIndex-Parser.obj
 0001:00098760       ?_Value@?$_Tree@FU?$pair@$$CBFPAUMapIndexHeader@@@std@@U_Kfn@?$map@FPAUMapIndexHeader@@U?$less@F@std@@V?$allocator@PAUMapIndexHeader@@@3@@2@U?$less@F@2@V?$allocator@PAUMapIndexHeader@@@2@@std@@KAAAU?$pair@$$CBFPAUMapIndexHeader@@@2@PAU_Node@12@@Z 00499760 f i OnlineMapIndex-Parser.obj
 0001:00098790       ?size@?$_Tree@FU?$pair@$$CBFPAUMapIndexHeader@@@std@@U_Kfn@?$map@FPAUMapIndexHeader@@U?$less@F@std@@V?$allocator@PAUMapIndexHeader@@@3@@2@U?$less@F@2@V?$allocator@PAUMapIndexHeader@@@2@@std@@QBEIXZ 00499790 f i OnlineMapIndex-Parser.obj
 0001:000987d0       ?erase@?$_Tree@FU?$pair@$$CBFPAUMapIndexHeader@@@std@@U_Kfn@?$map@FPAUMapIndexHeader@@U?$less@F@std@@V?$allocator@PAUMapIndexHeader@@@3@@2@U?$less@F@2@V?$allocator@PAUMapIndexHeader@@@2@@std@@QAE?AViterator@12@V312@@Z 004997d0 f i OnlineMapIndex-Parser.obj
 0001:00099260       ?_Freenode@?$_Tree@FU?$pair@$$CBFPAUMapIndexHeader@@@std@@U_Kfn@?$map@FPAUMapIndexHeader@@U?$less@F@std@@V?$allocator@PAUMapIndexHeader@@@3@@2@U?$less@F@2@V?$allocator@PAUMapIndexHeader@@@2@@std@@IAEXPAU_Node@12@@Z 0049a260 f i OnlineMapIndex-Parser.obj
 0001:000992b0       ?deallocate@?$allocator@PAUMapIndexHeader@@@std@@QAEXPAXI@Z 0049a2b0 f i OnlineMapIndex-Parser.obj
 0001:00099300       ?_Erase@?$_Tree@FU?$pair@$$CBFPAUMapIndexHeader@@@std@@U_Kfn@?$map@FPAUMapIndexHeader@@U?$less@F@std@@V?$allocator@PAUMapIndexHeader@@@3@@2@U?$less@F@2@V?$allocator@PAUMapIndexHeader@@@2@@std@@IAEXPAU_Node@12@@Z 0049a300 f i OnlineMapIndex-Parser.obj
 0001:000993c0       ?_Lbound@?$_Tree@FU?$pair@$$CBFPAUMapIndexHeader@@@std@@U_Kfn@?$map@FPAUMapIndexHeader@@U?$less@F@std@@V?$allocator@PAUMapIndexHeader@@@3@@2@U?$less@F@2@V?$allocator@PAUMapIndexHeader@@@2@@std@@IBEPAU_Node@12@ABF@Z 0049a3c0 f i OnlineMapIndex-Parser.obj
 0001:00099490       ?_Lmost@?$_Tree@FU?$pair@$$CBFPAUMapIndexHeader@@@std@@U_Kfn@?$map@FPAUMapIndexHeader@@U?$less@F@std@@V?$allocator@PAUMapIndexHeader@@@3@@2@U?$less@F@2@V?$allocator@PAUMapIndexHeader@@@2@@std@@IAEAAPAU_Node@12@XZ 0049a490 f i OnlineMapIndex-Parser.obj
 0001:000994e0       ?_Min@?$_Tree@FU?$pair@$$CBFPAUMapIndexHeader@@@std@@U_Kfn@?$map@FPAUMapIndexHeader@@U?$less@F@std@@V?$allocator@PAUMapIndexHeader@@@3@@2@U?$less@F@2@V?$allocator@PAUMapIndexHeader@@@2@@std@@KAPAU_Node@12@PAU312@@Z 0049a4e0 f i OnlineMapIndex-Parser.obj
 0001:00099550       ?_Rmost@?$_Tree@FU?$pair@$$CBFPAUMapIndexHeader@@@std@@U_Kfn@?$map@FPAUMapIndexHeader@@U?$less@F@std@@V?$allocator@PAUMapIndexHeader@@@3@@2@U?$less@F@2@V?$allocator@PAUMapIndexHeader@@@2@@std@@IAEAAPAU_Node@12@XZ 0049a550 f i OnlineMapIndex-Parser.obj
 0001:000995a0       ?_Root@?$_Tree@FU?$pair@$$CBFPAUMapIndexHeader@@@std@@U_Kfn@?$map@FPAUMapIndexHeader@@U?$less@F@std@@V?$allocator@PAUMapIndexHeader@@@3@@2@U?$less@F@2@V?$allocator@PAUMapIndexHeader@@@2@@std@@IAEAAPAU_Node@12@XZ 0049a5a0 f i OnlineMapIndex-Parser.obj
 0001:000995f0       ??0iterator@?$_Tree@FU?$pair@$$CBFPAUMapIndexHeader@@@std@@U_Kfn@?$map@FPAUMapIndexHeader@@U?$less@F@std@@V?$allocator@PAUMapIndexHeader@@@3@@2@U?$less@F@2@V?$allocator@PAUMapIndexHeader@@@2@@std@@QAE@PAU_Node@12@@Z 0049a5f0 f i OnlineMapIndex-Parser.obj
 0001:00099640       ??Eiterator@?$_Tree@FU?$pair@$$CBFPAUMapIndexHeader@@@std@@U_Kfn@?$map@FPAUMapIndexHeader@@U?$less@F@std@@V?$allocator@PAUMapIndexHeader@@@3@@2@U?$less@F@2@V?$allocator@PAUMapIndexHeader@@@2@@std@@QAE?AV012@H@Z 0049a640 f i OnlineMapIndex-Parser.obj
 0001:000996a0       ?insert@?$vector@UMapIndexHeader@@V?$allocator@UMapIndexHeader@@@std@@@std@@QAEXPAUMapIndexHeader@@IABU3@@Z 0049a6a0 f i OnlineMapIndex-Parser.obj
 0001:000999c0       ?deallocate@?$allocator@UMapIndexHeader@@@std@@QAEXPAXI@Z 0049a9c0 f i OnlineMapIndex-Parser.obj
 0001:00099a10       ?destroy@?$allocator@UMapIndexHeader@@@std@@QAEXPAUMapIndexHeader@@@Z 0049aa10 f i OnlineMapIndex-Parser.obj
 0001:00099a60       ?_Color@?$_Tree@FU?$pair@$$CBFPAUMapIndexHeader@@@std@@U_Kfn@?$map@FPAUMapIndexHeader@@U?$less@F@std@@V?$allocator@PAUMapIndexHeader@@@3@@2@U?$less@F@2@V?$allocator@PAUMapIndexHeader@@@2@@std@@KAAAW4_Redbl@12@PAU_Node@12@@Z 0049aa60 f i OnlineMapIndex-Parser.obj
 0001:00099a90       ?_Key@?$_Tree@FU?$pair@$$CBFPAUMapIndexHeader@@@std@@U_Kfn@?$map@FPAUMapIndexHeader@@U?$less@F@std@@V?$allocator@PAUMapIndexHeader@@@3@@2@U?$less@F@2@V?$allocator@PAUMapIndexHeader@@@2@@std@@KAABFPAU_Node@12@@Z 0049aa90 f i OnlineMapIndex-Parser.obj
 0001:00099ae0       ?_Left@?$_Tree@FU?$pair@$$CBFPAUMapIndexHeader@@@std@@U_Kfn@?$map@FPAUMapIndexHeader@@U?$less@F@std@@V?$allocator@PAUMapIndexHeader@@@3@@2@U?$less@F@2@V?$allocator@PAUMapIndexHeader@@@2@@std@@KAAAPAU_Node@12@PAU312@@Z 0049aae0 f i OnlineMapIndex-Parser.obj
 0001:00099b10       ?_Lrotate@?$_Tree@FU?$pair@$$CBFPAUMapIndexHeader@@@std@@U_Kfn@?$map@FPAUMapIndexHeader@@U?$less@F@std@@V?$allocator@PAUMapIndexHeader@@@3@@2@U?$less@F@2@V?$allocator@PAUMapIndexHeader@@@2@@std@@IAEXPAU_Node@12@@Z 0049ab10 f i OnlineMapIndex-Parser.obj
 0001:00099cb0       ?_Max@?$_Tree@FU?$pair@$$CBFPAUMapIndexHeader@@@std@@U_Kfn@?$map@FPAUMapIndexHeader@@U?$less@F@std@@V?$allocator@PAUMapIndexHeader@@@3@@2@U?$less@F@2@V?$allocator@PAUMapIndexHeader@@@2@@std@@KAPAU_Node@12@PAU312@@Z 0049acb0 f i OnlineMapIndex-Parser.obj
 0001:00099d20       ?_Root@?$_Tree@FU?$pair@$$CBFPAUMapIndexHeader@@@std@@U_Kfn@?$map@FPAUMapIndexHeader@@U?$less@F@std@@V?$allocator@PAUMapIndexHeader@@@3@@2@U?$less@F@2@V?$allocator@PAUMapIndexHeader@@@2@@std@@IBEAAPAU_Node@12@XZ 0049ad20 f i OnlineMapIndex-Parser.obj
 0001:00099d70       ?_Rrotate@?$_Tree@FU?$pair@$$CBFPAUMapIndexHeader@@@std@@U_Kfn@?$map@FPAUMapIndexHeader@@U?$less@F@std@@V?$allocator@PAUMapIndexHeader@@@3@@2@U?$less@F@2@V?$allocator@PAUMapIndexHeader@@@2@@std@@IAEXPAU_Node@12@@Z 0049ad70 f i OnlineMapIndex-Parser.obj
 0001:00099f10       ?_Destval@?$_Tree@FU?$pair@$$CBFPAUMapIndexHeader@@@std@@U_Kfn@?$map@FPAUMapIndexHeader@@U?$less@F@std@@V?$allocator@PAUMapIndexHeader@@@3@@2@U?$less@F@2@V?$allocator@PAUMapIndexHeader@@@2@@std@@IAEXPAU?$pair@$$CBFPAUMapIndexHeader@@@2@@Z 0049af10 f i OnlineMapIndex-Parser.obj
 0001:00099f60       ??0const_iterator@?$_Tree@FU?$pair@$$CBFPAUMapIndexHeader@@@std@@U_Kfn@?$map@FPAUMapIndexHeader@@U?$less@F@std@@V?$allocator@PAUMapIndexHeader@@@3@@2@U?$less@F@2@V?$allocator@PAUMapIndexHeader@@@2@@std@@QAE@PAU_Node@12@@Z 0049af60 f i OnlineMapIndex-Parser.obj
 0001:00099fa0       ?_Mynode@const_iterator@?$_Tree@FU?$pair@$$CBFPAUMapIndexHeader@@@std@@U_Kfn@?$map@FPAUMapIndexHeader@@U?$less@F@std@@V?$allocator@PAUMapIndexHeader@@@3@@2@U?$less@F@2@V?$allocator@PAUMapIndexHeader@@@2@@std@@QBEPAU_Node@23@XZ 0049afa0 f i OnlineMapIndex-Parser.obj
 0001:00099fe0       ?_Ucopy@?$vector@UMapIndexHeader@@V?$allocator@UMapIndexHeader@@@std@@@std@@IAEPAUMapIndexHeader@@PBU3@0PAU3@@Z 0049afe0 f i OnlineMapIndex-Parser.obj
 0001:0009a060       ?_Ufill@?$vector@UMapIndexHeader@@V?$allocator@UMapIndexHeader@@@std@@@std@@IAEXPAUMapIndexHeader@@IABU3@@Z 0049b060 f i OnlineMapIndex-Parser.obj
 0001:0009a0e0       ?allocate@?$allocator@UMapIndexHeader@@@std@@QAEPAUMapIndexHeader@@IPBX@Z 0049b0e0 f i OnlineMapIndex-Parser.obj
 0001:0009a350       ??R_Kfn@?$map@FPAUMapIndexHeader@@U?$less@F@std@@V?$allocator@PAUMapIndexHeader@@@3@@std@@QBEABFABU?$pair@$$CBFPAUMapIndexHeader@@@2@@Z 0049b350 f i OnlineMapIndex-Parser.obj
 0001:0009a390       ?construct@?$allocator@UMapIndexHeader@@@std@@QAEXPAUMapIndexHeader@@ABU3@@Z 0049b390 f i OnlineMapIndex-Parser.obj
 0001:0009a3e0       ?efficientAddOrUpdata@@YA?AViterator@?$_Tree@FU?$pair@$$CBFPAUMapIndexHeader@@@std@@U_Kfn@?$map@FPAUMapIndexHeader@@U?$less@F@std@@V?$allocator@PAUMapIndexHeader@@@3@@2@U?$less@F@2@V?$allocator@PAUMapIndexHeader@@@2@@std@@AAV?$map@FPAUMapIndexHeader@@U?$less@F@std@@V?$allocator@PAUMapIndexHeader@@@3@@3@ABFABQAUMapIndexHeader@@@Z 0049b3e0 f i OnlineMapIndex-Parser.obj
 0001:0009a4e0       ?copy@std@@YAPAUMapIndexHeader@@PAU2@00@Z 0049b4e0 f i OnlineMapIndex-Parser.obj
 0001:0009a550       ?swap@std@@YAXAAW4_Redbl@?$_Tree@FU?$pair@$$CBFPAUMapIndexHeader@@@std@@U_Kfn@?$map@FPAUMapIndexHeader@@U?$less@F@std@@V?$allocator@PAUMapIndexHeader@@@3@@2@U?$less@F@2@V?$allocator@PAUMapIndexHeader@@@2@@1@0@Z 0049b550 f i OnlineMapIndex-Parser.obj
 0001:0009a5a0       ?fill@std@@YAXPAUMapIndexHeader@@0ABU2@@Z 0049b5a0 f i OnlineMapIndex-Parser.obj
 0001:0009a600       ?copy_backward@std@@YAPAUMapIndexHeader@@PAU2@00@Z 0049b600 f i OnlineMapIndex-Parser.obj
 0001:0009a670       ?_Destroy@std@@YAXPAUMapIndexHeader@@@Z 0049b670 f i OnlineMapIndex-Parser.obj
 0001:0009a6a0       ?_Destroy@std@@YAXPAU?$pair@$$CBFPAUMapIndexHeader@@@1@@Z 0049b6a0 f i OnlineMapIndex-Parser.obj
 0001:0009a6d0       ?_Allocate@std@@YAPAUMapIndexHeader@@HPAU2@@Z 0049b6d0 f i OnlineMapIndex-Parser.obj
 0001:0009a730       ?_Construct@std@@YAXPAUMapIndexHeader@@ABU2@@Z 0049b730 f i OnlineMapIndex-Parser.obj
 0001:0009a7b0       ?insert@?$map@FPAUMapIndexHeader@@U?$less@F@std@@V?$allocator@PAUMapIndexHeader@@@3@@std@@QAE?AViterator@?$_Tree@FU?$pair@$$CBFPAUMapIndexHeader@@@std@@U_Kfn@?$map@FPAUMapIndexHeader@@U?$less@F@std@@V?$allocator@PAUMapIndexHeader@@@3@@2@U?$less@F@2@V?$allocator@PAUMapIndexHeader@@@2@@2@V342@ABU?$pair@$$CBFPAUMapIndexHeader@@@2@@Z 0049b7b0 f i OnlineMapIndex-Parser.obj
 0001:0009a810       ??0?$pair@$$CBFPAUMapIndexHeader@@@std@@QAE@ABFABQAUMapIndexHeader@@@Z 0049b810 f i OnlineMapIndex-Parser.obj
 0001:0009a860       ?insert@?$_Tree@FU?$pair@$$CBFPAUMapIndexHeader@@@std@@U_Kfn@?$map@FPAUMapIndexHeader@@U?$less@F@std@@V?$allocator@PAUMapIndexHeader@@@3@@2@U?$less@F@2@V?$allocator@PAUMapIndexHeader@@@2@@std@@QAE?AViterator@12@V312@ABU?$pair@$$CBFPAUMapIndexHeader@@@2@@Z 0049b860 f i OnlineMapIndex-Parser.obj
 0001:0009ab30       ?insert@?$_Tree@FU?$pair@$$CBFPAUMapIndexHeader@@@std@@U_Kfn@?$map@FPAUMapIndexHeader@@U?$less@F@std@@V?$allocator@PAUMapIndexHeader@@@3@@2@U?$less@F@2@V?$allocator@PAUMapIndexHeader@@@2@@std@@QAE?AU?$pair@Viterator@?$_Tree@FU?$pair@$$CBFPAUMapIndexHeader@@@std@@U_Kfn@?$map@FPAUMapIndexHeader@@U?$less@F@std@@V?$allocator@PAUMapIndexHeader@@@3@@2@U?$less@F@2@V?$allocator@PAUMapIndexHeader@@@2@@std@@_N@2@ABU?$pair@$$CBFPAUMapIndexHeader@@@2@@Z 0049bb30 f i OnlineMapIndex-Parser.obj
 0001:0009ada0       ?_Insert@?$_Tree@FU?$pair@$$CBFPAUMapIndexHeader@@@std@@U_Kfn@?$map@FPAUMapIndexHeader@@U?$less@F@std@@V?$allocator@PAUMapIndexHeader@@@3@@2@U?$less@F@2@V?$allocator@PAUMapIndexHeader@@@2@@std@@IAE?AViterator@12@PAU_Node@12@0ABU?$pair@$$CBFPAUMapIndexHeader@@@2@@Z 0049bda0 f i OnlineMapIndex-Parser.obj
 0001:0009b370       ?_Buynode@?$_Tree@FU?$pair@$$CBFPAUMapIndexHeader@@@std@@U_Kfn@?$map@FPAUMapIndexHeader@@U?$less@F@std@@V?$allocator@PAUMapIndexHeader@@@3@@2@U?$less@F@2@V?$allocator@PAUMapIndexHeader@@@2@@std@@IAEPAU_Node@12@PAU312@W4_Redbl@12@@Z 0049c370 f i OnlineMapIndex-Parser.obj
 0001:0009b3f0       ?_Charalloc@?$allocator@PAUMapIndexHeader@@@std@@QAEPADI@Z 0049c3f0 f i OnlineMapIndex-Parser.obj
 0001:0009b440       ??Fiterator@?$_Tree@FU?$pair@$$CBFPAUMapIndexHeader@@@std@@U_Kfn@?$map@FPAUMapIndexHeader@@U?$less@F@std@@V?$allocator@PAUMapIndexHeader@@@3@@2@U?$less@F@2@V?$allocator@PAUMapIndexHeader@@@2@@std@@QAEAAV012@XZ 0049c440 f i OnlineMapIndex-Parser.obj
 0001:0009b490       ?_Consval@?$_Tree@FU?$pair@$$CBFPAUMapIndexHeader@@@std@@U_Kfn@?$map@FPAUMapIndexHeader@@U?$less@F@std@@V?$allocator@PAUMapIndexHeader@@@3@@2@U?$less@F@2@V?$allocator@PAUMapIndexHeader@@@2@@std@@IAEXPAU?$pair@$$CBFPAUMapIndexHeader@@@2@ABU32@@Z 0049c490 f i OnlineMapIndex-Parser.obj
 0001:0009b4e0       ?_Dec@const_iterator@?$_Tree@FU?$pair@$$CBFPAUMapIndexHeader@@@std@@U_Kfn@?$map@FPAUMapIndexHeader@@U?$less@F@std@@V?$allocator@PAUMapIndexHeader@@@3@@2@U?$less@F@2@V?$allocator@PAUMapIndexHeader@@@2@@std@@QAEXXZ 0049c4e0 f i OnlineMapIndex-Parser.obj
 0001:0009b610       ??0?$pair@Viterator@?$_Tree@FU?$pair@$$CBFPAUMapIndexHeader@@@std@@U_Kfn@?$map@FPAUMapIndexHeader@@U?$less@F@std@@V?$allocator@PAUMapIndexHeader@@@3@@2@U?$less@F@2@V?$allocator@PAUMapIndexHeader@@@2@@std@@_N@std@@QAE@ABViterator@?$_Tree@FU?$pair@$$CBFPAUMapIndexHeader@@@std@@U_Kfn@?$map@FPAUMapIndexHeader@@U?$less@F@std@@V?$allocator@PAUMapIndexHeader@@@3@@2@U?$less@F@2@V?$allocator@PAUMapIndexHeader@@@2@@1@AB_N@Z 0049c610 f i OnlineMapIndex-Parser.obj
 0001:0009b660       ?_Construct@std@@YAXPAU?$pair@$$CBFPAUMapIndexHeader@@@1@ABU21@@Z 0049c660 f i OnlineMapIndex-Parser.obj
 0001:0009b770       ??0OnlineMapStoreParser@@QAE@XZ 0049c770 f   OnlineMapStore-Parser.obj
 0001:0009b850       ??1?$map@KUMapStoreHeader@@U?$less@K@std@@V?$allocator@UMapStoreHeader@@@3@@std@@QAE@XZ 0049c850 f i OnlineMapStore-Parser.obj
 0001:0009b8a0       ??1OnlineMapStoreParser@@QAE@XZ 0049c8a0 f   OnlineMapStore-Parser.obj
 0001:0009b960       ?ReadText@OnlineMapStoreParser@@QAEHPAD@Z 0049c960 f   OnlineMapStore-Parser.obj
 0001:0009bf50       ?Free@OnlineMapStoreParser@@QAEXXZ 0049cf50 f   OnlineMapStore-Parser.obj
 0001:0009bfb0       ?SetMapIndex@OnlineMapStoreParser@@QAEHF@Z 0049cfb0 f   OnlineMapStore-Parser.obj
 0001:0009bff0       ??0?$map@KUMapStoreHeader@@U?$less@K@std@@V?$allocator@UMapStoreHeader@@@3@@std@@QAE@ABU?$less@K@1@ABV?$allocator@UMapStoreHeader@@@1@@Z 0049cff0 f i OnlineMapStore-Parser.obj
 0001:0009c050       ?insert@?$map@KUMapStoreHeader@@U?$less@K@std@@V?$allocator@UMapStoreHeader@@@3@@std@@QAE?AU?$pair@Viterator@?$_Tree@KU?$pair@$$CBKUMapStoreHeader@@@std@@U_Kfn@?$map@KUMapStoreHeader@@U?$less@K@std@@V?$allocator@UMapStoreHeader@@@3@@2@U?$less@K@2@V?$allocator@UMapStoreHeader@@@2@@std@@_N@2@ABU?$pair@$$CBKUMapStoreHeader@@@2@@Z 0049d050 f i OnlineMapStore-Parser.obj
 0001:0009c0c0       ?clear@?$map@KUMapStoreHeader@@U?$less@K@std@@V?$allocator@UMapStoreHeader@@@3@@std@@QAEXXZ 0049d0c0 f i OnlineMapStore-Parser.obj
 0001:0009c110       ??1?$_Tree@KU?$pair@$$CBKUMapStoreHeader@@@std@@U_Kfn@?$map@KUMapStoreHeader@@U?$less@K@std@@V?$allocator@UMapStoreHeader@@@3@@2@U?$less@K@2@V?$allocator@UMapStoreHeader@@@2@@std@@QAE@XZ 0049d110 f i OnlineMapStore-Parser.obj
 0001:0009c210       ??0?$pair@$$CBKUMapStoreHeader@@@std@@QAE@ABKABUMapStoreHeader@@@Z 0049d210 f i OnlineMapStore-Parser.obj
 0001:0009c280       ??0?$vector@FV?$allocator@F@std@@@std@@QAE@ABV?$allocator@F@1@@Z 0049d280 f i OnlineMapStore-Parser.obj
 0001:0009c2f0       ??1?$vector@FV?$allocator@F@std@@@std@@QAE@XZ 0049d2f0 f i OnlineMapStore-Parser.obj
 0001:0009c390       ?push_back@?$vector@FV?$allocator@F@std@@@std@@QAEXABF@Z 0049d390 f i OnlineMapStore-Parser.obj
 0001:0009c3f0       ?end@?$vector@FV?$allocator@F@std@@@std@@QAEPAFXZ 0049d3f0 f i OnlineMapStore-Parser.obj
 0001:0009c430       ??0?$_Tree@KU?$pair@$$CBKUMapStoreHeader@@@std@@U_Kfn@?$map@KUMapStoreHeader@@U?$less@K@std@@V?$allocator@UMapStoreHeader@@@3@@2@U?$less@K@2@V?$allocator@UMapStoreHeader@@@2@@std@@QAE@ABU?$less@K@1@_NABV?$allocator@UMapStoreHeader@@@1@@Z 0049d430 f i OnlineMapStore-Parser.obj
 0001:0009c4a0       ?begin@?$_Tree@KU?$pair@$$CBKUMapStoreHeader@@@std@@U_Kfn@?$map@KUMapStoreHeader@@U?$less@K@std@@V?$allocator@UMapStoreHeader@@@3@@2@U?$less@K@2@V?$allocator@UMapStoreHeader@@@2@@std@@QAE?AViterator@12@XZ 0049d4a0 f i OnlineMapStore-Parser.obj
 0001:0009c500       ?end@?$_Tree@KU?$pair@$$CBKUMapStoreHeader@@@std@@U_Kfn@?$map@KUMapStoreHeader@@U?$less@K@std@@V?$allocator@UMapStoreHeader@@@3@@2@U?$less@K@2@V?$allocator@UMapStoreHeader@@@2@@std@@QAE?AViterator@12@XZ 0049d500 f i OnlineMapStore-Parser.obj
 0001:0009c560       ?insert@?$_Tree@KU?$pair@$$CBKUMapStoreHeader@@@std@@U_Kfn@?$map@KUMapStoreHeader@@U?$less@K@std@@V?$allocator@UMapStoreHeader@@@3@@2@U?$less@K@2@V?$allocator@UMapStoreHeader@@@2@@std@@QAE?AU?$pair@Viterator@?$_Tree@KU?$pair@$$CBKUMapStoreHeader@@@std@@U_Kfn@?$map@KUMapStoreHeader@@U?$less@K@std@@V?$allocator@UMapStoreHeader@@@3@@2@U?$less@K@2@V?$allocator@UMapStoreHeader@@@2@@std@@_N@2@ABU?$pair@$$CBKUMapStoreHeader@@@2@@Z 0049d560 f i OnlineMapStore-Parser.obj
 0001:0009c7d0       ??R?$less@K@std@@QBE_NABK0@Z 0049d7d0 f i OnlineMapStore-Parser.obj
 0001:0009c820       ?erase@?$_Tree@KU?$pair@$$CBKUMapStoreHeader@@@std@@U_Kfn@?$map@KUMapStoreHeader@@U?$less@K@std@@V?$allocator@UMapStoreHeader@@@3@@2@U?$less@K@2@V?$allocator@UMapStoreHeader@@@2@@std@@QAE?AViterator@12@V312@0@Z 0049d820 f i OnlineMapStore-Parser.obj
 0001:0009c980       ??9iterator@?$_Tree@KU?$pair@$$CBKUMapStoreHeader@@@std@@U_Kfn@?$map@KUMapStoreHeader@@U?$less@K@std@@V?$allocator@UMapStoreHeader@@@3@@2@U?$less@K@2@V?$allocator@UMapStoreHeader@@@2@@std@@QBE_NABV012@@Z 0049d980 f i OnlineMapStore-Parser.obj
 0001:0009c9e0       ?size@?$_Tree@KU?$pair@$$CBKUMapStoreHeader@@@std@@U_Kfn@?$map@KUMapStoreHeader@@U?$less@K@std@@V?$allocator@UMapStoreHeader@@@3@@2@U?$less@K@2@V?$allocator@UMapStoreHeader@@@2@@std@@QBEIXZ 0049d9e0 f i OnlineMapStore-Parser.obj
 0001:0009ca20       ?clear@?$_Tree@KU?$pair@$$CBKUMapStoreHeader@@@std@@U_Kfn@?$map@KUMapStoreHeader@@U?$less@K@std@@V?$allocator@UMapStoreHeader@@@3@@2@U?$less@K@2@V?$allocator@UMapStoreHeader@@@2@@std@@QAEXXZ 0049da20 f i OnlineMapStore-Parser.obj
 0001:0009ca90       ?_Freenode@?$_Tree@KU?$pair@$$CBKUMapStoreHeader@@@std@@U_Kfn@?$map@KUMapStoreHeader@@U?$less@K@std@@V?$allocator@UMapStoreHeader@@@3@@2@U?$less@K@2@V?$allocator@UMapStoreHeader@@@2@@std@@IAEXPAU_Node@12@@Z 0049da90 f i OnlineMapStore-Parser.obj
 0001:0009cae0       ??8iterator@?$_Tree@KU?$pair@$$CBKUMapStoreHeader@@@std@@U_Kfn@?$map@KUMapStoreHeader@@U?$less@K@std@@V?$allocator@UMapStoreHeader@@@3@@2@U?$less@K@2@V?$allocator@UMapStoreHeader@@@2@@std@@QBE_NABV012@@Z 0049dae0 f i OnlineMapStore-Parser.obj
 0001:0009cb30       ?insert@?$vector@FV?$allocator@F@std@@@std@@QAEPAFPAFABF@Z 0049db30 f i OnlineMapStore-Parser.obj
 0001:0009cbb0       ?begin@?$vector@FV?$allocator@F@std@@@std@@QAEPAFXZ 0049dbb0 f i OnlineMapStore-Parser.obj
 0001:0009cbf0       ?_Destroy@?$vector@FV?$allocator@F@std@@@std@@IAEXPAF0@Z 0049dbf0 f i OnlineMapStore-Parser.obj
 0001:0009cc60       ?deallocate@?$allocator@F@std@@QAEXPAXI@Z 0049dc60 f i OnlineMapStore-Parser.obj
 0001:0009ccb0       ??0?$pair@Viterator@?$_Tree@KU?$pair@$$CBKUMapStoreHeader@@@std@@U_Kfn@?$map@KUMapStoreHeader@@U?$less@K@std@@V?$allocator@UMapStoreHeader@@@3@@2@U?$less@K@2@V?$allocator@UMapStoreHeader@@@2@@std@@_N@std@@QAE@ABViterator@?$_Tree@KU?$pair@$$CBKUMapStoreHeader@@@std@@U_Kfn@?$map@KUMapStoreHeader@@U?$less@K@std@@V?$allocator@UMapStoreHeader@@@3@@2@U?$less@K@2@V?$allocator@UMapStoreHeader@@@2@@1@AB_N@Z 0049dcb0 f i OnlineMapStore-Parser.obj
 0001:0009cd00       ??R_Kfn@?$map@KUMapStoreHeader@@U?$less@K@std@@V?$allocator@UMapStoreHeader@@@3@@std@@QBEABKABU?$pair@$$CBKUMapStoreHeader@@@2@@Z 0049dd00 f i OnlineMapStore-Parser.obj
 0001:0009cd40       ?deallocate@?$allocator@UMapStoreHeader@@@std@@QAEXPAXI@Z 0049dd40 f i OnlineMapStore-Parser.obj
 0001:0009cd90       ?_Key@?$_Tree@KU?$pair@$$CBKUMapStoreHeader@@@std@@U_Kfn@?$map@KUMapStoreHeader@@U?$less@K@std@@V?$allocator@UMapStoreHeader@@@3@@2@U?$less@K@2@V?$allocator@UMapStoreHeader@@@2@@std@@KAABKPAU_Node@12@@Z 0049dd90 f i OnlineMapStore-Parser.obj
 0001:0009cde0       ?_Left@?$_Tree@KU?$pair@$$CBKUMapStoreHeader@@@std@@U_Kfn@?$map@KUMapStoreHeader@@U?$less@K@std@@V?$allocator@UMapStoreHeader@@@3@@2@U?$less@K@2@V?$allocator@UMapStoreHeader@@@2@@std@@KAAAPAU_Node@12@PAU312@@Z 0049dde0 f i OnlineMapStore-Parser.obj
 0001:0009ce10       ?_Right@?$_Tree@KU?$pair@$$CBKUMapStoreHeader@@@std@@U_Kfn@?$map@KUMapStoreHeader@@U?$less@K@std@@V?$allocator@UMapStoreHeader@@@3@@2@U?$less@K@2@V?$allocator@UMapStoreHeader@@@2@@std@@KAAAPAU_Node@12@PAU312@@Z 0049de10 f i OnlineMapStore-Parser.obj
 0001:0009ce40       ?_Value@?$_Tree@KU?$pair@$$CBKUMapStoreHeader@@@std@@U_Kfn@?$map@KUMapStoreHeader@@U?$less@K@std@@V?$allocator@UMapStoreHeader@@@3@@2@U?$less@K@2@V?$allocator@UMapStoreHeader@@@2@@std@@KAAAU?$pair@$$CBKUMapStoreHeader@@@2@PAU_Node@12@@Z 0049de40 f i OnlineMapStore-Parser.obj
 0001:0009ce70       ?erase@?$_Tree@KU?$pair@$$CBKUMapStoreHeader@@@std@@U_Kfn@?$map@KUMapStoreHeader@@U?$less@K@std@@V?$allocator@UMapStoreHeader@@@3@@2@U?$less@K@2@V?$allocator@UMapStoreHeader@@@2@@std@@QAE?AViterator@12@V312@@Z 0049de70 f i OnlineMapStore-Parser.obj
 0001:0009db20       ?_Erase@?$_Tree@KU?$pair@$$CBKUMapStoreHeader@@@std@@U_Kfn@?$map@KUMapStoreHeader@@U?$less@K@std@@V?$allocator@UMapStoreHeader@@@3@@2@U?$less@K@2@V?$allocator@UMapStoreHeader@@@2@@std@@IAEXPAU_Node@12@@Z 0049eb20 f i OnlineMapStore-Parser.obj
 0001:0009dbe0       ?_Init@?$_Tree@KU?$pair@$$CBKUMapStoreHeader@@@std@@U_Kfn@?$map@KUMapStoreHeader@@U?$less@K@std@@V?$allocator@UMapStoreHeader@@@3@@2@U?$less@K@2@V?$allocator@UMapStoreHeader@@@2@@std@@IAEXXZ 0049ebe0 f i OnlineMapStore-Parser.obj
 0001:0009dd50       ?_Insert@?$_Tree@KU?$pair@$$CBKUMapStoreHeader@@@std@@U_Kfn@?$map@KUMapStoreHeader@@U?$less@K@std@@V?$allocator@UMapStoreHeader@@@3@@2@U?$less@K@2@V?$allocator@UMapStoreHeader@@@2@@std@@IAE?AViterator@12@PAU_Node@12@0ABU?$pair@$$CBKUMapStoreHeader@@@2@@Z 0049ed50 f i OnlineMapStore-Parser.obj
 0001:0009e320       ?_Lmost@?$_Tree@KU?$pair@$$CBKUMapStoreHeader@@@std@@U_Kfn@?$map@KUMapStoreHeader@@U?$less@K@std@@V?$allocator@UMapStoreHeader@@@3@@2@U?$less@K@2@V?$allocator@UMapStoreHeader@@@2@@std@@IAEAAPAU_Node@12@XZ 0049f320 f i OnlineMapStore-Parser.obj
 0001:0009e370       ?_Rmost@?$_Tree@KU?$pair@$$CBKUMapStoreHeader@@@std@@U_Kfn@?$map@KUMapStoreHeader@@U?$less@K@std@@V?$allocator@UMapStoreHeader@@@3@@2@U?$less@K@2@V?$allocator@UMapStoreHeader@@@2@@std@@IAEAAPAU_Node@12@XZ 0049f370 f i OnlineMapStore-Parser.obj
 0001:0009e3c0       ?_Root@?$_Tree@KU?$pair@$$CBKUMapStoreHeader@@@std@@U_Kfn@?$map@KUMapStoreHeader@@U?$less@K@std@@V?$allocator@UMapStoreHeader@@@3@@2@U?$less@K@2@V?$allocator@UMapStoreHeader@@@2@@std@@IAEAAPAU_Node@12@XZ 0049f3c0 f i OnlineMapStore-Parser.obj
 0001:0009e410       ?_Mynode@const_iterator@?$_Tree@KU?$pair@$$CBKUMapStoreHeader@@@std@@U_Kfn@?$map@KUMapStoreHeader@@U?$less@K@std@@V?$allocator@UMapStoreHeader@@@3@@2@U?$less@K@2@V?$allocator@UMapStoreHeader@@@2@@std@@QBEPAU_Node@23@XZ 0049f410 f i OnlineMapStore-Parser.obj
 0001:0009e450       ??0iterator@?$_Tree@KU?$pair@$$CBKUMapStoreHeader@@@std@@U_Kfn@?$map@KUMapStoreHeader@@U?$less@K@std@@V?$allocator@UMapStoreHeader@@@3@@2@U?$less@K@2@V?$allocator@UMapStoreHeader@@@2@@std@@QAE@PAU_Node@12@@Z 0049f450 f i OnlineMapStore-Parser.obj
 0001:0009e4a0       ??Eiterator@?$_Tree@KU?$pair@$$CBKUMapStoreHeader@@@std@@U_Kfn@?$map@KUMapStoreHeader@@U?$less@K@std@@V?$allocator@UMapStoreHeader@@@3@@2@U?$less@K@2@V?$allocator@UMapStoreHeader@@@2@@std@@QAE?AV012@H@Z 0049f4a0 f i OnlineMapStore-Parser.obj
 0001:0009e500       ??Fiterator@?$_Tree@KU?$pair@$$CBKUMapStoreHeader@@@std@@U_Kfn@?$map@KUMapStoreHeader@@U?$less@K@std@@V?$allocator@UMapStoreHeader@@@3@@2@U?$less@K@2@V?$allocator@UMapStoreHeader@@@2@@std@@QAEAAV012@XZ 0049f500 f i OnlineMapStore-Parser.obj
 0001:0009e550       ?insert@?$vector@FV?$allocator@F@std@@@std@@QAEXPAFIABF@Z 0049f550 f i OnlineMapStore-Parser.obj
 0001:0009e810       ?destroy@?$allocator@F@std@@QAEXPAF@Z 0049f810 f i OnlineMapStore-Parser.obj
 0001:0009e860       ?_Color@?$_Tree@KU?$pair@$$CBKUMapStoreHeader@@@std@@U_Kfn@?$map@KUMapStoreHeader@@U?$less@K@std@@V?$allocator@UMapStoreHeader@@@3@@2@U?$less@K@2@V?$allocator@UMapStoreHeader@@@2@@std@@KAAAW4_Redbl@12@PAU_Node@12@@Z 0049f860 f i OnlineMapStore-Parser.obj
 0001:0009e890       ?_Parent@?$_Tree@KU?$pair@$$CBKUMapStoreHeader@@@std@@U_Kfn@?$map@KUMapStoreHeader@@U?$less@K@std@@V?$allocator@UMapStoreHeader@@@3@@2@U?$less@K@2@V?$allocator@UMapStoreHeader@@@2@@std@@KAAAPAU_Node@12@PAU312@@Z 0049f890 f i OnlineMapStore-Parser.obj
 0001:0009e8c0       ?_Lrotate@?$_Tree@KU?$pair@$$CBKUMapStoreHeader@@@std@@U_Kfn@?$map@KUMapStoreHeader@@U?$less@K@std@@V?$allocator@UMapStoreHeader@@@3@@2@U?$less@K@2@V?$allocator@UMapStoreHeader@@@2@@std@@IAEXPAU_Node@12@@Z 0049f8c0 f i OnlineMapStore-Parser.obj
 0001:0009ea60       ?_Max@?$_Tree@KU?$pair@$$CBKUMapStoreHeader@@@std@@U_Kfn@?$map@KUMapStoreHeader@@U?$less@K@std@@V?$allocator@UMapStoreHeader@@@3@@2@U?$less@K@2@V?$allocator@UMapStoreHeader@@@2@@std@@KAPAU_Node@12@PAU312@@Z 0049fa60 f i OnlineMapStore-Parser.obj
 0001:0009ead0       ?_Min@?$_Tree@KU?$pair@$$CBKUMapStoreHeader@@@std@@U_Kfn@?$map@KUMapStoreHeader@@U?$less@K@std@@V?$allocator@UMapStoreHeader@@@3@@2@U?$less@K@2@V?$allocator@UMapStoreHeader@@@2@@std@@KAPAU_Node@12@PAU312@@Z 0049fad0 f i OnlineMapStore-Parser.obj
 0001:0009eb40       ?_Rrotate@?$_Tree@KU?$pair@$$CBKUMapStoreHeader@@@std@@U_Kfn@?$map@KUMapStoreHeader@@U?$less@K@std@@V?$allocator@UMapStoreHeader@@@3@@2@U?$less@K@2@V?$allocator@UMapStoreHeader@@@2@@std@@IAEXPAU_Node@12@@Z 0049fb40 f i OnlineMapStore-Parser.obj
 0001:0009ece0       ?_Buynode@?$_Tree@KU?$pair@$$CBKUMapStoreHeader@@@std@@U_Kfn@?$map@KUMapStoreHeader@@U?$less@K@std@@V?$allocator@UMapStoreHeader@@@3@@2@U?$less@K@2@V?$allocator@UMapStoreHeader@@@2@@std@@IAEPAU_Node@12@PAU312@W4_Redbl@12@@Z 0049fce0 f i OnlineMapStore-Parser.obj
 0001:0009ed60       ?_Consval@?$_Tree@KU?$pair@$$CBKUMapStoreHeader@@@std@@U_Kfn@?$map@KUMapStoreHeader@@U?$less@K@std@@V?$allocator@UMapStoreHeader@@@3@@2@U?$less@K@2@V?$allocator@UMapStoreHeader@@@2@@std@@IAEXPAU?$pair@$$CBKUMapStoreHeader@@@2@ABU32@@Z 0049fd60 f i OnlineMapStore-Parser.obj
 0001:0009edb0       ?_Destval@?$_Tree@KU?$pair@$$CBKUMapStoreHeader@@@std@@U_Kfn@?$map@KUMapStoreHeader@@U?$less@K@std@@V?$allocator@UMapStoreHeader@@@3@@2@U?$less@K@2@V?$allocator@UMapStoreHeader@@@2@@std@@IAEXPAU?$pair@$$CBKUMapStoreHeader@@@2@@Z 0049fdb0 f i OnlineMapStore-Parser.obj
 0001:0009ee00       ??0const_iterator@?$_Tree@KU?$pair@$$CBKUMapStoreHeader@@@std@@U_Kfn@?$map@KUMapStoreHeader@@U?$less@K@std@@V?$allocator@UMapStoreHeader@@@3@@2@U?$less@K@2@V?$allocator@UMapStoreHeader@@@2@@std@@QAE@PAU_Node@12@@Z 0049fe00 f i OnlineMapStore-Parser.obj
 0001:0009ee40       ?_Dec@const_iterator@?$_Tree@KU?$pair@$$CBKUMapStoreHeader@@@std@@U_Kfn@?$map@KUMapStoreHeader@@U?$less@K@std@@V?$allocator@UMapStoreHeader@@@3@@2@U?$less@K@2@V?$allocator@UMapStoreHeader@@@2@@std@@QAEXXZ 0049fe40 f i OnlineMapStore-Parser.obj
 0001:0009ef70       ??Eiterator@?$_Tree@KU?$pair@$$CBKUMapStoreHeader@@@std@@U_Kfn@?$map@KUMapStoreHeader@@U?$less@K@std@@V?$allocator@UMapStoreHeader@@@3@@2@U?$less@K@2@V?$allocator@UMapStoreHeader@@@2@@std@@QAEAAV012@XZ 0049ff70 f i OnlineMapStore-Parser.obj
 0001:0009efc0       ?size@?$vector@FV?$allocator@F@std@@@std@@QBEIXZ 0049ffc0 f i OnlineMapStore-Parser.obj
 0001:0009f020       ?_Ucopy@?$vector@FV?$allocator@F@std@@@std@@IAEPAFPBF0PAF@Z 004a0020 f i OnlineMapStore-Parser.obj
 0001:0009f0a0       ?_Ufill@?$vector@FV?$allocator@F@std@@@std@@IAEXPAFIABF@Z 004a00a0 f i OnlineMapStore-Parser.obj
 0001:0009f120       ?allocate@?$allocator@F@std@@QAEPAFIPBX@Z 004a0120 f i OnlineMapStore-Parser.obj
 0001:0009f170       ?_Charalloc@?$allocator@UMapStoreHeader@@@std@@QAEPADI@Z 004a0170 f i OnlineMapStore-Parser.obj
 0001:0009f1c0       ?_Inc@const_iterator@?$_Tree@KU?$pair@$$CBKUMapStoreHeader@@@std@@U_Kfn@?$map@KUMapStoreHeader@@U?$less@K@std@@V?$allocator@UMapStoreHeader@@@3@@2@U?$less@K@2@V?$allocator@UMapStoreHeader@@@2@@std@@QAEXXZ 004a01c0 f i OnlineMapStore-Parser.obj
 0001:0009f2b0       ?construct@?$allocator@F@std@@QAEXPAFABF@Z 004a02b0 f i OnlineMapStore-Parser.obj
 0001:0009f300       ?swap@std@@YAXAAW4_Redbl@?$_Tree@KU?$pair@$$CBKUMapStoreHeader@@@std@@U_Kfn@?$map@KUMapStoreHeader@@U?$less@K@std@@V?$allocator@UMapStoreHeader@@@3@@2@U?$less@K@2@V?$allocator@UMapStoreHeader@@@2@@1@0@Z 004a0300 f i OnlineMapStore-Parser.obj
 0001:0009f350       ?fill@std@@YAXPAF0ABF@Z    004a0350 f i OnlineMapStore-Parser.obj
 0001:0009f3a0       ?copy_backward@std@@YAPAFPAF00@Z 004a03a0 f i OnlineMapStore-Parser.obj
 0001:0009f400       ?_Destroy@std@@YAXPAF@Z    004a0400 f i OnlineMapStore-Parser.obj
 0001:0009f430       ?_Construct@std@@YAXPAU?$pair@$$CBKUMapStoreHeader@@@1@ABU21@@Z 004a0430 f i OnlineMapStore-Parser.obj
 0001:0009f4b0       ?_Destroy@std@@YAXPAU?$pair@$$CBKUMapStoreHeader@@@1@@Z 004a04b0 f i OnlineMapStore-Parser.obj
 0001:0009f4e0       ?_Allocate@std@@YAPAFHPAF@Z 004a04e0 f i OnlineMapStore-Parser.obj
 0001:0009f540       ?_Construct@std@@YAXPAFABF@Z 004a0540 f i OnlineMapStore-Parser.obj
 0001:0009f650       ?ReadText@OnlineMercenaryParser@@QAEHPAD@Z 004a0650 f   OnlineMercenary-Parser.obj
 0001:0009f910       ?GetMaxFollowerNum@OnlineMercenaryParser@@QAEFHH@Z 004a0910 f   OnlineMercenary-Parser.obj
 0001:0009f9d0       ?push_back@?$vector@UMercenaryHeader@@V?$allocator@UMercenaryHeader@@@std@@@std@@QAEXABUMercenaryHeader@@@Z 004a09d0 f i OnlineMercenary-Parser.obj
 0001:0009fa30       ?insert@?$vector@UMercenaryHeader@@V?$allocator@UMercenaryHeader@@@std@@@std@@QAEPAUMercenaryHeader@@PAU3@ABU3@@Z 004a0a30 f i OnlineMercenary-Parser.obj
 0001:0009fac0       ?insert@?$vector@UMercenaryHeader@@V?$allocator@UMercenaryHeader@@@std@@@std@@QAEXPAUMercenaryHeader@@IABU3@@Z 004a0ac0 f i OnlineMercenary-Parser.obj
 0001:0009fdc0       ?size@?$vector@UMercenaryHeader@@V?$allocator@UMercenaryHeader@@@std@@@std@@QBEIXZ 004a0dc0 f i OnlineMercenary-Parser.obj
 0001:0009fe30       ?_Ucopy@?$vector@UMercenaryHeader@@V?$allocator@UMercenaryHeader@@@std@@@std@@IAEPAUMercenaryHeader@@PBU3@0PAU3@@Z 004a0e30 f i OnlineMercenary-Parser.obj
 0001:0009feb0       ?_Ufill@?$vector@UMercenaryHeader@@V?$allocator@UMercenaryHeader@@@std@@@std@@IAEXPAUMercenaryHeader@@IABU3@@Z 004a0eb0 f i OnlineMercenary-Parser.obj
 0001:0009ff30       ?allocate@?$allocator@UMercenaryHeader@@@std@@QAEPAUMercenaryHeader@@IPBX@Z 004a0f30 f i OnlineMercenary-Parser.obj
 0001:000a01a0       ?construct@?$allocator@UMercenaryHeader@@@std@@QAEXPAUMercenaryHeader@@ABU3@@Z 004a11a0 f i OnlineMercenary-Parser.obj
 0001:000a01f0       ?fill@std@@YAXPAUMercenaryHeader@@0ABU2@@Z 004a11f0 f i OnlineMercenary-Parser.obj
 0001:000a0250       ?copy_backward@std@@YAPAUMercenaryHeader@@PAU2@00@Z 004a1250 f i OnlineMercenary-Parser.obj
 0001:000a02c0       ?_Allocate@std@@YAPAUMercenaryHeader@@HPAU2@@Z 004a12c0 f i OnlineMercenary-Parser.obj
 0001:000a0320       ?_Construct@std@@YAXPAUMercenaryHeader@@ABU2@@Z 004a1320 f i OnlineMercenary-Parser.obj
 0001:000a0430       ?Init@MyWeapons@@QAEXXZ    004a1430 f   OnlineMyWeapons.obj
 0001:000a0480       ?GetWearItem@MyWeapons@@QAEGE@Z 004a1480 f   OnlineMyWeapons.obj
 0001:000a04e0       ?GetWearItemLimitTime@MyWeapons@@QAEFE@Z 004a14e0 f   OnlineMyWeapons.obj
 0001:000a0540       ?SetWearItem@MyWeapons@@QAEXEGF@Z 004a1540 f   OnlineMyWeapons.obj
 0001:000a05c0       ?IsEmpty@MyWeapons@@QAEHXZ 004a15c0 f   OnlineMyWeapons.obj
 0001:000a0630       ?CheckItemCount@MyWeapons@@QAEHG@Z 004a1630 f   OnlineMyWeapons.obj
 0001:000a06c0       ?GetWearItems@MyWeapons@@QAEHQAG@Z 004a16c0 f   OnlineMyWeapons.obj
 0001:000a0740       ??0OnlineNPCIndexParser@@QAE@XZ 004a1740 f   OnlineNPCIndex-Parser.obj
 0001:000a07c0       ??1OnlineNPCIndexParser@@QAE@XZ 004a17c0 f   OnlineNPCIndex-Parser.obj
 0001:000a0810       ?ReadText@OnlineNPCIndexParser@@QAEHPAD@Z 004a1810 f   OnlineNPCIndex-Parser.obj
 0001:000a1560       ?Free@OnlineNPCIndexParser@@QAEXXZ 004a2560 f   OnlineNPCIndex-Parser.obj
 0001:000a1650       ?SetMapIndex@OnlineNPCIndexParser@@QAEHF@Z 004a2650 f   OnlineNPCIndex-Parser.obj
 0001:000a1810       ?GetNPC@OnlineNPCIndexParser@@QAEPAUNPCIndexHeader@@FFF@Z 004a2810 f   OnlineNPCIndex-Parser.obj
 0001:000a1990       ?GetNPC@OnlineNPCIndexParser@@QAEPAUNPCIndexHeader@@F@Z 004a2990 f   OnlineNPCIndex-Parser.obj
 0001:000a1a90       ?GetNPCByIndex@OnlineNPCIndexParser@@QAEPAUNPCIndexHeader@@F@Z 004a2a90 f   OnlineNPCIndex-Parser.obj
 0001:000a1ae0       ?GetNPCAllMap@OnlineNPCIndexParser@@QAEPAUNPCIndexHeader@@F@Z 004a2ae0 f   OnlineNPCIndex-Parser.obj
 0001:000a1b80       ?GetQuestNPCAllMap@OnlineNPCIndexParser@@QAEPAUNPCIndexHeader@@F@Z 004a2b80 f   OnlineNPCIndex-Parser.obj
 0001:000a1c30       ?GetNameNPCAllMap@OnlineNPCIndexParser@@QAEPAUNPCIndexHeader@@PAVOnlineText@@FPAD@Z 004a2c30 f   OnlineNPCIndex-Parser.obj
 0001:000a1d20       ?GetAuctionNPC@OnlineNPCIndexParser@@QAEPAUNPCIndexHeader@@H@Z 004a2d20 f   OnlineNPCIndex-Parser.obj
 0001:000a1df0       ?AddVillageMapNPC@OnlineNPCIndexParser@@QAEHFPAUNPCIndexHeader@@@Z 004a2df0 f   OnlineNPCIndex-Parser.obj
 0001:000a2180       ??0OnlineObjectParser@@QAE@XZ 004a3180 f   OnlineObjectParser.obj
 0001:000a21d0       ??1OnlineObjectParser@@QAE@XZ 004a31d0 f   OnlineObjectParser.obj
 0001:000a2200       ?Init@OnlineObjectParser@@QAEHPAD@Z 004a3200 f   OnlineObjectParser.obj
 0001:000a3280       ?GetObjectNum@OnlineObjectParser@@QAEFXZ 004a4280 f   OnlineObjectParser.obj
 0001:000a32c0       ?Free@OnlineObjectParser@@QAEXXZ 004a42c0 f   OnlineObjectParser.obj
 0001:000a3330       ?GetObjectHeader@OnlineObjectParser@@QAEPAUObjectHeader@@XZ 004a4330 f   OnlineObjectParser.obj
 0001:000a3370       ?GetObjectFileName@OnlineObjectParser@@QAEPADF@Z 004a4370 f   OnlineObjectParser.obj
 0001:000a33c0       ?GetObjectA@OnlineObjectParser@@QAEPAUObjectHeader@@F@Z 004a43c0 f   OnlineObjectParser.obj
 0001:000a3720       ??0OnlinePortalParser@@QAE@XZ 004a4720 f   OnlinePortal-Parser.obj
 0001:000a3780       ??_GOnlinePortalParser@@UAEPAXI@Z 004a4780 f i OnlinePortal-Parser.obj
 0001:000a3780       ??_EOnlinePortalParser@@UAEPAXI@Z 004a4780 f i OnlinePortal-Parser.obj
 0001:000a37f0       ??1OnlinePortalParser@@UAE@XZ 004a47f0 f   OnlinePortal-Parser.obj
 0001:000a3840       ?ReadText@OnlinePortalParser@@QAEHPAD@Z 004a4840 f   OnlinePortal-Parser.obj
 0001:000a4270       ?Free@OnlinePortalParser@@QAEXXZ 004a5270 f   OnlinePortal-Parser.obj
 0001:000a4300       ?GetPortal@OnlinePortalParser@@QAEPAUPortalHeader@@FFF@Z 004a5300 f   OnlinePortal-Parser.obj
 0001:000a44f0       ?GetPortal@OnlinePortalParser@@QAEPAUPortalHeader@@F@Z 004a54f0 f   OnlinePortal-Parser.obj
 0001:000a45a0       ?GetPortalIndex@OnlinePortalParser@@QAEHG@Z 004a55a0 f   OnlinePortal-Parser.obj
 0001:000a48e0       ??0OnlineBuilding@@QAE@XZ  004a58e0 f   OnlineProductStructure.obj
 0001:000a4910       ??1OnlineBuilding@@QAE@XZ  004a5910 f   OnlineProductStructure.obj
 0001:000a49e0       ?Init@OnlineBuilding@@QAEHXZ 004a59e0 f   OnlineProductStructure.obj
 0001:000a5a10       ?GetEquipment@OnlineBuilding@@QAEPAUstEquipment@@H@Z 004a6a10 f   OnlineProductStructure.obj
 0001:000a5a50       ?GetFacility@OnlineBuilding@@QAEPAUstFacility@@H@Z 004a6a50 f   OnlineProductStructure.obj
 0001:000a5aa0       ?GetPlants@OnlineBuilding@@QAEPAUstPlants@@H@Z 004a6aa0 f   OnlineProductStructure.obj
 0001:000a5af0       ?CodeToNum@OnlineBuilding@@QAEIPAD@Z 004a6af0 f   OnlineProductStructure.obj
 0001:000a5b30       ?GetEquipment@OnlineBuilding@@QAEPAUstEquipment@@PAD@Z 004a6b30 f   OnlineProductStructure.obj
 0001:000a5be0       ?GetFacility@OnlineBuilding@@QAEPAUstFacility@@PAD@Z 004a6be0 f   OnlineProductStructure.obj
 0001:000a5c90       ?GetPlants@OnlineBuilding@@QAEPAUstPlants@@PAD@Z 004a6c90 f   OnlineProductStructure.obj
 0001:000a5d40       ?GetIndex@OnlineBuilding@@QAEHPADGEE@Z 004a6d40 f   OnlineProductStructure.obj
 0001:000a5f20       ?GetPlantsFromID@OnlineBuilding@@QAEPAUstPlants@@E@Z 004a6f20 f   OnlineProductStructure.obj
 0001:000a6240       ??0OnlineQuestParser@@QAE@XZ 004a7240 f   OnlineQuest-Parser.obj
 0001:000a62c0       ??1OnlineQuestParser@@QAE@XZ 004a72c0 f   OnlineQuest-Parser.obj
 0001:000a6310       ?ReadText@OnlineQuestParser@@QAEHPAD0FFF@Z 004a7310 f   OnlineQuest-Parser.obj
 0001:000a9380       ?Free@OnlineQuestParser@@QAEXXZ 004aa380 f   OnlineQuest-Parser.obj
 0001:000a94d0       ?GetQuest@OnlineQuestParser@@QAEPAUSQuestHeader@@F@Z 004aa4d0 f   OnlineQuest-Parser.obj
 0001:000a9570       ?GetQuest@OnlineQuestParser@@QAEPAUSQuestHeader@@FF@Z 004aa570 f   OnlineQuest-Parser.obj
 0001:000a9640       ?GetCharacterID@OnlineQuestParser@@QAEHPAD@Z 004aa640 f   OnlineQuest-Parser.obj
 0001:000a96c0       ?GetComPareDate@OnlineQuestParser@@QAEFFFFFFF@Z 004aa6c0 f   OnlineQuest-Parser.obj
 0001:000a9820       ?GetEndDate@OnlineQuestParser@@QAEXFFFFAAF00@Z 004aa820 f   OnlineQuest-Parser.obj
 0001:000a9940       ?GetMDay@OnlineQuestParser@@QAEFF@Z 004aa940 f   OnlineQuest-Parser.obj
 0001:000a9cc0       ??0OnlineShipKI@@QAE@XZ    004aacc0 f   OnlineShipKI.obj
 0001:000a9d20       ??1OnlineShipKI@@QAE@XZ    004aad20 f   OnlineShipKI.obj
 0001:000a9d50       ?Init@OnlineShipKI@@QAEXHHHH@Z 004aad50 f   OnlineShipKI.obj
 0001:000a9db0       ?GetID@OnlineShipKI@@QAEHXZ 004aadb0 f   OnlineShipKI.obj
 0001:000a9df0       ?GetName@OnlineShipKI@@QAEHXZ 004aadf0 f   OnlineShipKI.obj
 0001:000a9e30       ?GetMaxCustomer@OnlineShipKI@@QAEHXZ 004aae30 f   OnlineShipKI.obj
 0001:000a9e70       ?GetMoveSpeed@OnlineShipKI@@QAEHXZ 004aae70 f   OnlineShipKI.obj
 0001:000a9eb0       ??0cltOnlineSMI@@QAE@XZ    004aaeb0 f   OnlineShipMoveInfo.obj
 0001:000a9f40       ??1cltOnlineSMI@@QAE@XZ    004aaf40 f   OnlineShipMoveInfo.obj
 0001:000a9fd0       ?Init@cltOnlineSMI@@QAEXXZ 004aafd0 f   OnlineShipMoveInfo.obj
 0001:000aa030       ?Free@cltOnlineSMI@@QAEXXZ 004ab030 f   OnlineShipMoveInfo.obj
 0001:000aa090       ?GetPoint@cltOnlineSMI@@QAEHHHPAH0@Z 004ab090 f   OnlineShipMoveInfo.obj
 0001:000aa160       ?GetPathPointNum@cltOnlineSMI@@QAEHH@Z 004ab160 f   OnlineShipMoveInfo.obj
 0001:000aa1d0       ?GetMovePoints@cltOnlineSMI@@QAEHHPAUtagPOINT@@000@Z 004ab1d0 f   OnlineShipMoveInfo.obj
 0001:000aa290       ??0OnlineSmithParser@@QAE@XZ 004ab290 f   OnlineSmithParser.obj
 0001:000aa2f0       ??_EOnlineSmithParser@@UAEPAXI@Z 004ab2f0 f i OnlineSmithParser.obj
 0001:000aa2f0       ??_GOnlineSmithParser@@UAEPAXI@Z 004ab2f0 f i OnlineSmithParser.obj
 0001:000aa360       ??1OnlineSmithParser@@UAE@XZ 004ab360 f   OnlineSmithParser.obj
 0001:000aa3b0       ?Free@OnlineSmithParser@@QAEXXZ 004ab3b0 f   OnlineSmithParser.obj
 0001:000aa430       ?ReadText@OnlineSmithParser@@QAEHPAD@Z 004ab430 f   OnlineSmithParser.obj
 0001:000aaa80       ?GetSmithItem@OnlineSmithParser@@QAEPAUSmithItemHeader@@G@Z 004aba80 f   OnlineSmithParser.obj
 0001:000aadd0       ??0OnlineSolderListParser@@QAE@XZ 004abdd0 f   OnlineSoilderList-Parser.obj
 0001:000aae40       ??_GOnlineSolderListParser@@UAEPAXI@Z 004abe40 f i OnlineSoilderList-Parser.obj
 0001:000aae40       ??_EOnlineSolderListParser@@UAEPAXI@Z 004abe40 f i OnlineSoilderList-Parser.obj
 0001:000aaeb0       ??1OnlineSolderListParser@@UAE@XZ 004abeb0 f   OnlineSoilderList-Parser.obj
 0001:000aaf00       ?ReadText@OnlineSolderListParser@@QAEHPAD@Z 004abf00 f   OnlineSoilderList-Parser.obj
 0001:000ab450       ?Free@OnlineSolderListParser@@QAEXXZ 004ac450 f   OnlineSoilderList-Parser.obj
 0001:000ab4b0       ?GetSolderList@OnlineSolderListParser@@QAEPAUSolderListHeader@@HH@Z 004ac4b0 f   OnlineSoilderList-Parser.obj
 0001:000ab550       ?GetID@OnlineSolderListParser@@QAEGPAD@Z 004ac550 f   OnlineSoilderList-Parser.obj
 0001:000ab8a0       ?ConvertSpecialChar@OnlineText@@AAEXIPAD@Z 004ac8a0 f   OnlineText.obj
 0001:000aba40       ??0OnlineText@@QAE@XZ      004aca40 f   OnlineText.obj
 0001:000abba0       ??1OnlineText@@QAE@XZ      004acba0 f   OnlineText.obj
 0001:000abc00       ?Init@OnlineText@@UAEHIPAD0@Z 004acc00 f   OnlineText.obj
 0001:000ad230       ?Get@OnlineText@@QAEPADI@Z 004ae230 f   OnlineText.obj
 0001:000ad360       ?GetQuestText@OnlineText@@QAEPADI@Z 004ae360 f   OnlineText.obj
 0001:000ad490       ?GetHelpText@OnlineText@@QAEPADI@Z 004ae490 f   OnlineText.obj
 0001:000ad5c0       ?GetCharInfoText@OnlineText@@QAEPADI@Z 004ae5c0 f   OnlineText.obj
 0001:000ad6e0       ?GetObjectMarkText@OnlineText@@QAEPADI@Z 004ae6e0 f   OnlineText.obj
 0001:000ad800       ?Josa@OnlineText@@QAEXPAD@Z 004ae800 f   OnlineText.obj
 0001:000ada50       ?GetMaxDataLineCount@OnlineCommonParser@@QAEHXZ 004aea50 f i OnlineText.obj
 0001:000adb20       ??0OnlineTicketParser@@QAE@XZ 004aeb20 f   OnlineTicket-Parser.obj
 0001:000adb80       ??_GOnlineTicketParser@@UAEPAXI@Z 004aeb80 f i OnlineTicket-Parser.obj
 0001:000adb80       ??_EOnlineTicketParser@@UAEPAXI@Z 004aeb80 f i OnlineTicket-Parser.obj
 0001:000adbf0       ??1OnlineTicketParser@@UAE@XZ 004aebf0 f   OnlineTicket-Parser.obj
 0001:000adc40       ?ReadText@OnlineTicketParser@@QAEHPAD@Z 004aec40 f   OnlineTicket-Parser.obj
 0001:000ae210       ?Free@OnlineTicketParser@@QAEXXZ 004af210 f   OnlineTicket-Parser.obj
 0001:000ae2a0       ?GetTicket@OnlineTicketParser@@QAEPAUTicketHeader@@H@Z 004af2a0 f   OnlineTicket-Parser.obj
 0001:000ae330       ?GetID@OnlineTicketParser@@QAEGPAD@Z 004af330 f   OnlineTicket-Parser.obj
 0001:000ae3a0       ?GetPassID@OnlineTicketParser@@QAEHPAD@Z 004af3a0 f   OnlineTicket-Parser.obj
 0001:000ae400       ?GetPass@OnlineTicketParser@@QAEHGGH@Z 004af400 f   OnlineTicket-Parser.obj
 0001:000ae790       ?Init@OnlineTradeParser@@QAEXXZ 004af790 f   OnlineTradeParser.obj
 0001:000ae9f0       ?reserve@?$vector@UTradeHeader@@V?$allocator@UTradeHeader@@@std@@@std@@QAEXI@Z 004af9f0 f i OnlineTradeParser.obj
 0001:000aeaf0       ?push_back@?$vector@UTradeHeader@@V?$allocator@UTradeHeader@@@std@@@std@@QAEXABUTradeHeader@@@Z 004afaf0 f i OnlineTradeParser.obj
 0001:000aeb50       ?capacity@?$vector@UTradeHeader@@V?$allocator@UTradeHeader@@@std@@@std@@QBEIXZ 004afb50 f i OnlineTradeParser.obj
 0001:000aebb0       ?insert@?$vector@UTradeHeader@@V?$allocator@UTradeHeader@@@std@@@std@@QAEPAUTradeHeader@@PAU3@ABU3@@Z 004afbb0 f i OnlineTradeParser.obj
 0001:000aec30       ?_Ucopy@?$vector@UTradeHeader@@V?$allocator@UTradeHeader@@@std@@@std@@IAEPAUTradeHeader@@PBU3@0PAU3@@Z 004afc30 f i OnlineTradeParser.obj
 0001:000aecb0       ?allocate@?$allocator@UTradeHeader@@@std@@QAEPAUTradeHeader@@IPBX@Z 004afcb0 f i OnlineTradeParser.obj
 0001:000aed00       ?insert@?$vector@UTradeHeader@@V?$allocator@UTradeHeader@@@std@@@std@@QAEXPAUTradeHeader@@IABU3@@Z 004afd00 f i OnlineTradeParser.obj
 0001:000aefd0       ?construct@?$allocator@UTradeHeader@@@std@@QAEXPAUTradeHeader@@ABU3@@Z 004affd0 f i OnlineTradeParser.obj
 0001:000af020       ??0TradeHeader@@QAE@XZ     004b0020 f i OnlineTradeParser.obj
 0001:000af070       ?_Ufill@?$vector@UTradeHeader@@V?$allocator@UTradeHeader@@@std@@@std@@IAEXPAUTradeHeader@@IABU3@@Z 004b0070 f i OnlineTradeParser.obj
 0001:000af0f0       ?_Allocate@std@@YAPAUTradeHeader@@HPAU2@@Z 004b00f0 f i OnlineTradeParser.obj
 0001:000af150       ?fill@std@@YAXPAUTradeHeader@@0ABU2@@Z 004b0150 f i OnlineTradeParser.obj
 0001:000af1b0       ?copy_backward@std@@YAPAUTradeHeader@@PAU2@00@Z 004b01b0 f i OnlineTradeParser.obj
 0001:000af220       ?_Construct@std@@YAXPAUTradeHeader@@ABU2@@Z 004b0220 f i OnlineTradeParser.obj
 0001:000af550       ??0OnlineVillageParser@@QAE@XZ 004b0550 f   OnlineVillage-Parser.obj
 0001:000af5f0       ??1OnlineVillageParser@@QAE@XZ 004b05f0 f   OnlineVillage-Parser.obj
 0001:000af690       ?ReadText@OnlineVillageParser@@QAEHPAD0@Z 004b0690 f   OnlineVillage-Parser.obj
 0001:000aff60       ?GetType@OnlineVillageParser@@AAEFPAD@Z 004b0f60 f   OnlineVillage-Parser.obj
 0001:000b0010       ?LoadType@OnlineVillageParser@@AAEHPAD@Z 004b1010 f   OnlineVillage-Parser.obj
 0001:000b0480       ?GetVillageKind@OnlineVillageParser@@AAEFPAD@Z 004b1480 f   OnlineVillage-Parser.obj
 0001:000b07b0       ?GetStructKind@OnlineVillageParser@@QAEHHAAD@Z 004b17b0 f   OnlineVillage-Parser.obj
 0001:000b0a60       ?GetVillageHeaderCode@OnlineVillageParser@@QAEPAUVillageHeader@@G@Z 004b1a60 f   OnlineVillage-Parser.obj
 0001:000b0b10       ?IsStructure@OnlineVillageParser@@QAEHHG@Z 004b1b10 f   OnlineVillage-Parser.obj
 0001:000b0bc0       ?GetType@OnlineVillageParser@@QAEPAUVillageType@@FF@Z 004b1bc0 f   OnlineVillage-Parser.obj
 0001:000b0c60       ??0?$vector@UVillageHeader@@V?$allocator@UVillageHeader@@@std@@@std@@QAE@ABV?$allocator@UVillageHeader@@@1@@Z 004b1c60 f i OnlineVillage-Parser.obj
 0001:000b0cd0       ??1?$vector@UVillageHeader@@V?$allocator@UVillageHeader@@@std@@@std@@QAE@XZ 004b1cd0 f i OnlineVillage-Parser.obj
 0001:000b0d80       ?push_back@?$vector@UVillageHeader@@V?$allocator@UVillageHeader@@@std@@@std@@QAEXABUVillageHeader@@@Z 004b1d80 f i OnlineVillage-Parser.obj
 0001:000b0de0       ??0?$vector@UVillageType@@V?$allocator@UVillageType@@@std@@@std@@QAE@ABV?$allocator@UVillageType@@@1@@Z 004b1de0 f i OnlineVillage-Parser.obj
 0001:000b0e50       ??1?$vector@UVillageType@@V?$allocator@UVillageType@@@std@@@std@@QAE@XZ 004b1e50 f i OnlineVillage-Parser.obj
 0001:000b0f00       ?reserve@?$vector@UVillageType@@V?$allocator@UVillageType@@@std@@@std@@QAEXI@Z 004b1f00 f i OnlineVillage-Parser.obj
 0001:000b1010       ?size@?$vector@UVillageType@@V?$allocator@UVillageType@@@std@@@std@@QBEIXZ 004b2010 f i OnlineVillage-Parser.obj
 0001:000b1080       ?push_back@?$vector@UVillageType@@V?$allocator@UVillageType@@@std@@@std@@QAEXABUVillageType@@@Z 004b2080 f i OnlineVillage-Parser.obj
 0001:000b10e0       ?insert@?$vector@UVillageHeader@@V?$allocator@UVillageHeader@@@std@@@std@@QAEPAUVillageHeader@@PAU3@ABU3@@Z 004b20e0 f i OnlineVillage-Parser.obj
 0001:000b1170       ?deallocate@?$allocator@UVillageHeader@@@std@@QAEXPAXI@Z 004b2170 f i OnlineVillage-Parser.obj
 0001:000b11c0       ?capacity@?$vector@UVillageType@@V?$allocator@UVillageType@@@std@@@std@@QBEIXZ 004b21c0 f i OnlineVillage-Parser.obj
 0001:000b1230       ?insert@?$vector@UVillageType@@V?$allocator@UVillageType@@@std@@@std@@QAEPAUVillageType@@PAU3@ABU3@@Z 004b2230 f i OnlineVillage-Parser.obj
 0001:000b12c0       ?_Ucopy@?$vector@UVillageType@@V?$allocator@UVillageType@@@std@@@std@@IAEPAUVillageType@@PBU3@0PAU3@@Z 004b22c0 f i OnlineVillage-Parser.obj
 0001:000b1340       ?allocate@?$allocator@UVillageType@@@std@@QAEPAUVillageType@@IPBX@Z 004b2340 f i OnlineVillage-Parser.obj
 0001:000b1390       ?deallocate@?$allocator@UVillageType@@@std@@QAEXPAXI@Z 004b2390 f i OnlineVillage-Parser.obj
 0001:000b13e0       ??0VillageHeader@@QAE@XZ   004b23e0 f i OnlineVillage-Parser.obj
 0001:000b1420       ?insert@?$vector@UVillageHeader@@V?$allocator@UVillageHeader@@@std@@@std@@QAEXPAUVillageHeader@@IABU3@@Z 004b2420 f i OnlineVillage-Parser.obj
 0001:000b1740       ?insert@?$vector@UVillageType@@V?$allocator@UVillageType@@@std@@@std@@QAEXPAUVillageType@@IABU3@@Z 004b2740 f i OnlineVillage-Parser.obj
 0001:000b1a40       ?construct@?$allocator@UVillageType@@@std@@QAEXPAUVillageType@@ABU3@@Z 004b2a40 f i OnlineVillage-Parser.obj
 0001:000b1a90       ?_Ucopy@?$vector@UVillageHeader@@V?$allocator@UVillageHeader@@@std@@@std@@IAEPAUVillageHeader@@PBU3@0PAU3@@Z 004b2a90 f i OnlineVillage-Parser.obj
 0001:000b1b10       ?_Ufill@?$vector@UVillageHeader@@V?$allocator@UVillageHeader@@@std@@@std@@IAEXPAUVillageHeader@@IABU3@@Z 004b2b10 f i OnlineVillage-Parser.obj
 0001:000b1b90       ?allocate@?$allocator@UVillageHeader@@@std@@QAEPAUVillageHeader@@IPBX@Z 004b2b90 f i OnlineVillage-Parser.obj
 0001:000b1be0       ?_Ufill@?$vector@UVillageType@@V?$allocator@UVillageType@@@std@@@std@@IAEXPAUVillageType@@IABU3@@Z 004b2be0 f i OnlineVillage-Parser.obj
 0001:000b1c60       ?construct@?$allocator@UVillageHeader@@@std@@QAEXPAUVillageHeader@@ABU3@@Z 004b2c60 f i OnlineVillage-Parser.obj
 0001:000b1cb0       ?sort@std@@YAXPAUVillageHeader@@0@Z 004b2cb0 f i OnlineVillage-Parser.obj
 0001:000b1d10       ?equal_range@std@@YA?AU?$pair@PAUVillageHeader@@PAU1@@1@PAUVillageHeader@@0ABU3@@Z 004b2d10 f i OnlineVillage-Parser.obj
 0001:000b1fa0       ?_Allocate@std@@YAPAUVillageType@@HPAU2@@Z 004b2fa0 f i OnlineVillage-Parser.obj
 0001:000b2000       ?fill@std@@YAXPAUVillageHeader@@0ABU2@@Z 004b3000 f i OnlineVillage-Parser.obj
 0001:000b2060       ?copy_backward@std@@YAPAUVillageHeader@@PAU2@00@Z 004b3060 f i OnlineVillage-Parser.obj
 0001:000b20d0       ?fill@std@@YAXPAUVillageType@@0ABU2@@Z 004b30d0 f i OnlineVillage-Parser.obj
 0001:000b2130       ?copy_backward@std@@YAPAUVillageType@@PAU2@00@Z 004b3130 f i OnlineVillage-Parser.obj
 0001:000b2190       ?_Construct@std@@YAXPAUVillageType@@ABU2@@Z 004b3190 f i OnlineVillage-Parser.obj
 0001:000b2210       ?_Allocate@std@@YAPAUVillageHeader@@HPAU2@@Z 004b3210 f i OnlineVillage-Parser.obj
 0001:000b2270       ?_Construct@std@@YAXPAUVillageHeader@@ABU2@@Z 004b3270 f i OnlineVillage-Parser.obj
 0001:000b22f0       ?_Val_type@std@@YAPAUVillageHeader@@PBU2@@Z 004b32f0 f i OnlineVillage-Parser.obj
 0001:000b2320       ?_Sort_0@std@@YAXPAUVillageHeader@@00@Z 004b3320 f i OnlineVillage-Parser.obj
 0001:000b2430       ?_Dist_type@std@@YAPAHPBUVillageHeader@@@Z 004b3430 f i OnlineVillage-Parser.obj
 0001:000b2460       ?_Equal_range@std@@YA?AU?$pair@PAUVillageHeader@@PAU1@@1@PAUVillageHeader@@0ABU3@PAH@Z 004b3460 f i OnlineVillage-Parser.obj
 0001:000b25f0       ??MVillageHeader@@QBE?B_NABU0@@Z 004b35f0 f i OnlineVillage-Parser.obj
 0001:000b26d0       ??0?$pair@PAUVillageHeader@@PAU1@@std@@QAE@ABQAUVillageHeader@@0@Z 004b36d0 f i OnlineVillage-Parser.obj
 0001:000b2720       ?_Insertion_sort@std@@YAXPAUVillageHeader@@0@Z 004b3720 f i OnlineVillage-Parser.obj
 0001:000b2780       ?_Sort@std@@YAXPAUVillageHeader@@00@Z 004b3780 f i OnlineVillage-Parser.obj
 0001:000b2970       ?_Unguarded_insert@std@@YAXPAUVillageHeader@@U2@@Z 004b3970 f i OnlineVillage-Parser.obj
 0001:000b2a10       ?_Distance@std@@YAXPAUVillageHeader@@0AAH@Z 004b3a10 f i OnlineVillage-Parser.obj
 0001:000b2a80       ?advance@std@@YAXAAPAUVillageHeader@@H@Z 004b3a80 f i OnlineVillage-Parser.obj
 0001:000b2af0       ?lower_bound@std@@YAPAUVillageHeader@@PAU2@0ABU2@@Z 004b3af0 f i OnlineVillage-Parser.obj
 0001:000b2b50       ?upper_bound@std@@YAPAUVillageHeader@@PAU2@0ABU2@@Z 004b3b50 f i OnlineVillage-Parser.obj
 0001:000b2bb0       ?_Insertion_sort_1@std@@YAXPAUVillageHeader@@00@Z 004b3bb0 f i OnlineVillage-Parser.obj
 0001:000b2cc0       ?_Median@std@@YA?AUVillageHeader@@U2@00@Z 004b3cc0 f i OnlineVillage-Parser.obj
 0001:000b2e30       ?_Unguarded_partition@std@@YAPAUVillageHeader@@PAU2@0U2@@Z 004b3e30 f i OnlineVillage-Parser.obj
 0001:000b2f00       ?_Iter_cat@std@@YA?AUrandom_access_iterator_tag@1@PBUVillageHeader@@@Z 004b3f00 f i OnlineVillage-Parser.obj
 0001:000b2f40       ?_Distance@std@@YAXPAUVillageHeader@@0AAHUrandom_access_iterator_tag@1@@Z 004b3f40 f i OnlineVillage-Parser.obj
 0001:000b2f90       ?_Advance@std@@YAXAAPAUVillageHeader@@HUrandom_access_iterator_tag@1@@Z 004b3f90 f i OnlineVillage-Parser.obj
 0001:000b2fe0       ?_Lower_bound@std@@YAPAUVillageHeader@@PAU2@0ABU2@PAH@Z 004b3fe0 f i OnlineVillage-Parser.obj
 0001:000b30c0       ?_Upper_bound@std@@YAPAUVillageHeader@@PAU2@0ABU2@PAH@Z 004b40c0 f i OnlineVillage-Parser.obj
 0001:000b31a0       ?iter_swap@std@@YAXPAUVillageHeader@@0@Z 004b41a0 f i OnlineVillage-Parser.obj
 0001:000b3200       ?_Iter_swap@std@@YAXPAUVillageHeader@@00@Z 004b4200 f i OnlineVillage-Parser.obj
 0001:000b3270       ??0cltOnlineWarpParser@@QAE@XZ 004b4270 f   OnlineWarpParser.obj
 0001:000b32c0       ??1cltOnlineWarpParser@@QAE@XZ 004b42c0 f   OnlineWarpParser.obj
 0001:000b3310       ?Init@cltOnlineWarpParser@@QAEHPADPAVOnlineText@@@Z 004b4310 f   OnlineWarpParser.obj
 0001:000b3830       ?GetWarpCode@cltOnlineWarpParser@@QAEHPAD@Z 004b4830 f   OnlineWarpParser.obj
 0001:000b38e0       ?GetWarpInfo@cltOnlineWarpParser@@QAEPAUstrWarpInfo@@PAD@Z 004b48e0 f   OnlineWarpParser.obj
 0001:000b3990       ?GetWarpInfo@cltOnlineWarpParser@@QAEPAUstrWarpInfo@@H@Z 004b4990 f   OnlineWarpParser.obj
 0001:000b3a20       ?Free@cltOnlineWarpParser@@QAEXXZ 004b4a20 f   OnlineWarpParser.obj
 0001:000b3d50       ?Init@_ImportantParameta@@QAEXHHHHHHHHHHHHHHH@Z 004b4d50 f   Parametabox.obj
 0001:000b3e70       ?Init@_ImportantParameta@@QAEXV1@@Z 004b4e70 f   Parametabox.obj
 0001:000b3f50       ?UpdateCheckSum@_ImportantParameta@@QAEXXZ 004b4f50 f   Parametabox.obj
 0001:000b4010       ?CheckCheckSum@_ImportantParameta@@QAEHXZ 004b5010 f   Parametabox.obj
 0001:000b40e0       ?IncreaseExp@_ImportantParameta@@QAEHH@Z 004b50e0 f   Parametabox.obj
 0001:000b41a0       ?GetMyExp@_ParametaBox@@QBEHXZ 004b51a0 f   Parametabox.obj
 0001:000b42e0       ?CalcApower@_ParametaBox@@QAEHXZ 004b52e0 f   Parametabox.obj
 0001:000b4310       ?Init@_ParametaBox@@QAEXHHHHHHHHHHHHHHH@Z 004b5310 f   Parametabox.obj
 0001:000b43c0       ?Init@_ParametaBox@@QAEXV_ImportantParameta@@@Z 004b53c0 f   Parametabox.obj
 0001:000b44a0       ?Action@_ParametaBox@@QAEHPAVCItem@@VMyWeapons@@@Z 004b54a0 f   Parametabox.obj
 0001:000b4820       ?GetHitRate@_ParametaBox@@QBEHH@Z 004b5820 f   Parametabox.obj
 0001:000b4890       ?GetBattlePower@_ParametaBox@@QBEHXZ 004b5890 f   Parametabox.obj
 0001:000b4930       ?GetMaxBattlePower@_ParametaBox@@QBEHXZ 004b5930 f   Parametabox.obj
 0001:000b49d0       ?CanEquip@_ParametaBox@@QBEHPAVCItem@@H@Z 004b59d0 f   Parametabox.obj
 0001:000b4a10       ?ItemOperation@_ParametaBox@@QAEHPAVCItem@@VMyWeapons@@@Z 004b5a10 f   Parametabox.obj
 0001:000b4c40       ?GetRequiredExpForLevel@@YAHH@Z 004b5c40 f   Parametabox.obj
 0001:000b4c90       ?LoadExpData@@YAHH@Z       004b5c90 f   Parametabox.obj
 0001:000b4fa0       ?EncodePassword@@YAHH@Z    004b5fa0 f   Parametabox.obj
 0001:000b4fd0       ?DecodePassword@@YAHH@Z    004b5fd0 f   Parametabox.obj
 0001:000b52b0       ?GetTotalAC@_ParametaBox@@QBEHXZ 004b62b0 f i Parametabox.obj
 0001:000b52f0       ?GetTotalDpower@_ParametaBox@@QBEHXZ 004b62f0 f i Parametabox.obj
 0001:000b5340       ??0cltProfitParser@@QAE@XZ 004b6340 f   ProfitParser.obj
 0001:000b5390       ??1cltProfitParser@@QAE@XZ 004b6390 f   ProfitParser.obj
 0001:000b53e0       ?Init@cltProfitParser@@QAEHPAD@Z 004b63e0 f   ProfitParser.obj
 0001:000b57e0       ?Free@cltProfitParser@@QAEXXZ 004b67e0 f   ProfitParser.obj
 0001:000b5b10       ??0cltShipInfoParser@@QAE@XZ 004b6b10 f   ShipInfoParser.obj
 0001:000b5b70       ??_GcltShipInfoParser@@UAEPAXI@Z 004b6b70 f i ShipInfoParser.obj
 0001:000b5b70       ??_EcltShipInfoParser@@UAEPAXI@Z 004b6b70 f i ShipInfoParser.obj
 0001:000b5be0       ??1cltShipInfoParser@@UAE@XZ 004b6be0 f   ShipInfoParser.obj
 0001:000b5c30       ?Init@cltShipInfoParser@@QAEHPAD@Z 004b6c30 f   ShipInfoParser.obj
 0001:000b6080       ?Free@cltShipInfoParser@@QAEXXZ 004b7080 f   ShipInfoParser.obj
 0001:000b6100       ?GetShipInfo@cltShipInfoParser@@QAEPAUstrShipInfo@@H@Z 004b7100 f   ShipInfoParser.obj
 0001:000b6150       ?GetTotalShipNum@cltShipInfoParser@@QAEHXZ 004b7150 f   ShipInfoParser.obj
 0001:000b6190       ?GetID@cltShipInfoParser@@QAEGPAD@Z 004b7190 f   ShipInfoParser.obj
 0001:000b64b0       ??0cltShipMovePathParser@@QAE@XZ 004b74b0 f   SMPathParser.obj
 0001:000b6500       ??1cltShipMovePathParser@@QAE@XZ 004b7500 f   SMPathParser.obj
 0001:000b6550       ?Load@cltShipMovePathParser@@QAEHPAD@Z 004b7550 f   SMPathParser.obj
 0001:000b6c00       ?Free@cltShipMovePathParser@@QAEXXZ 004b7c00 f   SMPathParser.obj
 0001:000b6cf0       ?GetPath@cltShipMovePathParser@@QAEPAUstrShipMovePath@@H@Z 004b7cf0 f   SMPathParser.obj
 0001:000b6d60       ?FindIndex@cltShipMovePathParser@@AAEHH@Z 004b7d60 f   SMPathParser.obj
 0001:000b6de0       ?GetWarpPoint@cltShipMovePathParser@@AAEXUtagPOINT@@0PAU2@@Z 004b7de0 f   SMPathParser.obj
 0001:000b73c0       ??0cltShipMovePointParser@@QAE@XZ 004b83c0 f   SMPointParser.obj
 0001:000b7410       ??1cltShipMovePointParser@@QAE@XZ 004b8410 f   SMPointParser.obj
 0001:000b7460       ?Load@cltShipMovePointParser@@QAEHPAD@Z 004b8460 f   SMPointParser.obj
 0001:000b77f0       ?Free@cltShipMovePointParser@@QAEXXZ 004b87f0 f   SMPointParser.obj
 0001:000b7860       ?GetPointNum@cltShipMovePointParser@@QAEHXZ 004b8860 f   SMPointParser.obj
 0001:000b78a0       ?GetPoint@cltShipMovePointParser@@QAEPAUtagPOINT@@XZ 004b88a0 f   SMPointParser.obj
 0001:000b7b90       ?lrand@@YAKXZ              004b8b90 f   SORand.obj
 0001:000b7c30       ??0COnlineTimer@@QAE@H@Z   004b8c30 f   Timer.obj
 0001:000b7d00       ??_ECOnlineTimer@@UAEPAXI@Z 004b8d00 f i Timer.obj
 0001:000b7d00       ??_GCOnlineTimer@@UAEPAXI@Z 004b8d00 f i Timer.obj
 0001:000b7d70       ??1COnlineTimer@@UAE@XZ    004b8d70 f   Timer.obj
 0001:000b7dc0       ?Create@COnlineTimer@@QAE_NUSOnlineTime@@@Z 004b8dc0 f   Timer.obj
 0001:000b7f50       ?Release@COnlineTimer@@QAEXXZ 004b8f50 f   Timer.obj
 0001:000b7ff0       ?SetNowTime@COnlineTimer@@QAE_NUSOnlineTime@@@Z 004b8ff0 f   Timer.obj
 0001:000b8180       ?GetNowTime@COnlineTimer@@QAE?AUSOnlineTime@@XZ 004b9180 f   Timer.obj
 0001:000b8450       ?CheckTime@COnlineTimer@@QAE?AUSOnlineTime@@U2@H@Z 004b9450 f   Timer.obj
 0001:000b84d0       ?CheckPitchMonth@COnlineTimer@@QAEHUSOnlineTime@@0@Z 004b94d0 f   Timer.obj
 0001:000b8540       ?CheckPitchHour@COnlineTimer@@QAEHUSOnlineTime@@0@Z 004b9540 f   Timer.obj
 0001:000b87a0       ?OnlineCheckTime@COnlineTimer@@QAEXAAUSOnlineTime@@_J@Z 004b97a0 f   Timer.obj
 0001:000b88d0       ?IsLeap@COnlineTimer@@QAE_NH@Z 004b98d0 f   Timer.obj
 0001:000b8960       ?GetDaysInMonth@COnlineTimer@@QAEHAAUSOnlineTime@@@Z 004b9960 f   Timer.obj
 0001:000b89e0       ?MakeTimeInt@@YAHUSOnlineTime@@@Z 004b99e0 f   Timer.obj
 0001:000b8a40       ?MakeTimeOnlineTime@@YA?AUSOnlineTime@@H@Z 004b9a40 f   Timer.obj
 0001:000b8af0       ?MakeOneMonthAfter@@YAHH@Z 004b9af0 f   Timer.obj
 0001:000b8bc0       ??0clVillageAttackInfo@@QAE@XZ 004b9bc0 f   VillageAttackInfo.obj
 0001:000b8c10       ?GetAttackPower@clVillageAttackInfo@@QAEHH@Z 004b9c10 f   VillageAttackInfo.obj
 0001:000b8c50       ??0wansung2johap@@QAE@XZ   004b9c50 f   wansung2johap.obj
 0001:000b8c90       ??_Ewansung2johap@@UAEPAXI@Z 004b9c90 f i wansung2johap.obj
 0001:000b8c90       ??_Gwansung2johap@@UAEPAXI@Z 004b9c90 f i wansung2johap.obj
 0001:000b8d00       ??1wansung2johap@@UAE@XZ   004b9d00 f   wansung2johap.obj
 0001:000b8d40       ?Convert_Start@wansung2johap@@QAEHPAE@Z 004b9d40 f   wansung2johap.obj
 0001:000b8fa0       ?Input_Wansung@wansung2johap@@QAEPAEPAE@Z 004b9fa0 f   wansung2johap.obj
 0001:000b9060       ?IsValidKind@_OnlineBattleMsgQue@@QAEHH@Z 004ba060 f   onlinebattlemsg.obj
 0001:000b90f0       ?Encode@_OnlineBattleMsgQue@@QAEHPAV_OnlineBattleMsg@@@Z 004ba0f0 f   onlinebattlemsg.obj
 0001:000b9190       ?Decode@_OnlineBattleMsgQue@@QAEHPAV_OnlineBattleMsg@@@Z 004ba190 f   onlinebattlemsg.obj
 0001:000b9230       ?Push@_OnlineBattleMsgQue@@QAEHPAV_OnlineBattleMsg@@@Z 004ba230 f   onlinebattlemsg.obj
 0001:000b92e0       ?Pop@_OnlineBattleMsgQue@@QAEHPAV_OnlineBattleMsg@@@Z 004ba2e0 f   onlinebattlemsg.obj
 0001:000b9400       ?IsValidID@_OnlineBattleMsgQue@@QAEHH@Z 004ba400 f   onlinebattlemsg.obj
 0001:000b9440       ?SendBattleServerGameMsg_ONLINE_BATTLE_MSG_DEAD@_OnlineBattleMsgQue@@QAEXHH@Z 004ba440 f   onlinebattlemsg.obj
 0001:000b94e0       ?InterpretBattleServerGameMsg_ONLINE_BATTLE_MSG_DEAD@_OnlineBattleMsgQue@@QAEHPAV_OnlineBattleMsg@@PAH1@Z 004ba4e0 f   onlinebattlemsg.obj
 0001:000b9560       ?SendBattleServerGameMsg_ONLINE_BATTLE_MSG_LIFE@_OnlineBattleMsgQue@@QAEXHHH@Z 004ba560 f   onlinebattlemsg.obj
 0001:000b9610       ?InterpretBattleServerGameMsg_ONLINE_BATTLE_MSG_LIFE@_OnlineBattleMsgQue@@QAEHPAV_OnlineBattleMsg@@PAH11@Z 004ba610 f   onlinebattlemsg.obj
 0001:000b96a0       ?SendBattleServerGameMsg_ONLINE_BATTLE_MSG_MANA@_OnlineBattleMsgQue@@QAEXHHH@Z 004ba6a0 f   onlinebattlemsg.obj
 0001:000b9750       ?InterpretBattleServerGameMsg_ONLINE_BATTLE_MSG_MANA@_OnlineBattleMsgQue@@QAEHPAV_OnlineBattleMsg@@PAH11@Z 004ba750 f   onlinebattlemsg.obj
 0001:000b97e0       ?SendBattleServerGameMsg_ONLINE_BATTLE_MSG_EXP@_OnlineBattleMsgQue@@QAEXHHH@Z 004ba7e0 f   onlinebattlemsg.obj
 0001:000b9890       ?InterpretBattleServerGameMsg_ONLINE_BATTLE_MSG_EXP@_OnlineBattleMsgQue@@QAEHPAV_OnlineBattleMsg@@PAH11@Z 004ba890 f   onlinebattlemsg.obj
 0001:000b9920       ?SendBattleServerGameMsg_ONLINE_BATTLE_MSG_LOGOUT@_OnlineBattleMsgQue@@QAEXH@Z 004ba920 f   onlinebattlemsg.obj
 0001:000b99b0       ?InterpretBattleServerGameMsg_ONLINE_BATTLE_MSG_LOGOUT@_OnlineBattleMsgQue@@QAEHPAV_OnlineBattleMsg@@PAH@Z 004ba9b0 f   onlinebattlemsg.obj
 0001:000b9a10       ?SendBattleServerGameMsg_ONLINE_BATTLE_MSG_KILL@_OnlineBattleMsgQue@@QAEXHHHH@Z 004baa10 f   onlinebattlemsg.obj
 0001:000b9af0       ?InterpretBattleServerGameMsg_ONLINE_BATTLE_MSG_KILL@_OnlineBattleMsgQue@@QAEHPAV_OnlineBattleMsg@@PAH111@Z 004baaf0 f   onlinebattlemsg.obj
 0001:000b9bb0       ?SendBattleServerGameMsg_ONLINE_BATTLE_MSG_HEARTBEAT@_OnlineBattleMsgQue@@QAEXH@Z 004babb0 f   onlinebattlemsg.obj
 0001:000b9c40       ?InterpretBattleServerGameMsg_ONLINE_BATTLE_MSG_HEARTBEAT@_OnlineBattleMsgQue@@QAEHPAV_OnlineBattleMsg@@PAH@Z 004bac40 f   onlinebattlemsg.obj
 0001:000b9ca0       ?SendBattleServerGameMsg_ONLINE_BATTLE_MSG_CHANGEKIND@_OnlineBattleMsgQue@@QAEXHHH@Z 004baca0 f   onlinebattlemsg.obj
 0001:000b9d50       ?InterpretBattleServerGameMsg_ONLINE_BATTLE_MSG_CHANGEKIND@_OnlineBattleMsgQue@@QAEHPAV_OnlineBattleMsg@@PAH11@Z 004bad50 f   onlinebattlemsg.obj
 0001:000b9df0       ?SendBattleServerGameMsg_ONLINE_BATTLE_MSG_EXPALL@_OnlineBattleMsgQue@@QAEXHH@Z 004badf0 f   onlinebattlemsg.obj
 0001:000b9e90       ?InterpretBattleServerGameMsg_ONLINE_BATTLE_MSG_EXPALL@_OnlineBattleMsgQue@@QAEHPAV_OnlineBattleMsg@@PAH1@Z 004bae90 f   onlinebattlemsg.obj
 0001:000b9f00       ?SendBattleServerGameMsg_ONLINE_BATTLE_MSG_HACK@_OnlineBattleMsgQue@@QAEXH@Z 004baf00 f   onlinebattlemsg.obj
 0001:000b9f90       ?InterpretBattleServerGameMsg_ONLINE_BATTLE_MSG_HACK@_OnlineBattleMsgQue@@QAEHPAV_OnlineBattleMsg@@PAH@Z 004baf90 f   onlinebattlemsg.obj
 0001:000b9ff0       ?Init@_OnlineBattleMsg@@QAEXXZ 004baff0 f i onlinebattlemsg.obj
 0001:000ba040       ?SetType@_OnlineBattleMsg@@QAEXH@Z 004bb040 f i onlinebattlemsg.obj
 0001:000ba0a0       ?Encr@?$cltCrypt@K@@QAEKK@Z 004bb0a0 f i onlinebattlemsg.obj
 0001:000ba0e0       ?SetCharID@_OnlineBattleMsg@@QAEXH@Z 004bb0e0 f i onlinebattlemsg.obj
 0001:000ba120       ?SetPlayerID@_OnlineBattleMsg@@QAEXH@Z 004bb120 f i onlinebattlemsg.obj
 0001:000ba180       ?Encr@?$cltCrypt@H@@QAEHH@Z 004bb180 f i onlinebattlemsg.obj
 0001:000ba1c0       ?GetPlayerID@_OnlineBattleMsg@@QAEHXZ 004bb1c0 f i onlinebattlemsg.obj
 0001:000ba210       ?Decr@?$cltCrypt@H@@QAEHH@Z 004bb210 f i onlinebattlemsg.obj
 0001:000ba250       ?SetBigData@_OnlineBattleMsg@@QAEXH@Z 004bb250 f i onlinebattlemsg.obj
 0001:000ba2b0       ?GetBigData@_OnlineBattleMsg@@QAEHXZ 004bb2b0 f i onlinebattlemsg.obj
 0001:000ba310       ??0OnlineCommonParser@@QAE@XZ 004bb310 f   OnlineCommonParser.obj
 0001:000ba360       ??1OnlineCommonParser@@QAE@XZ 004bb360 f   OnlineCommonParser.obj
 0001:000ba3b0       ?Initialize@OnlineCommonParser@@QAEHPAU_iobuf@@AAH1@Z 004bb3b0 f   OnlineCommonParser.obj
 0001:000ba9e0       ?Release@OnlineCommonParser@@QAEXXZ 004bb9e0 f   OnlineCommonParser.obj
 0001:000baaa0       ?ParseDataLine@OnlineCommonParser@@QAEHXZ 004bbaa0 f   OnlineCommonParser.obj
 0001:000baca0       ?GetValue@OnlineCommonParser@@QAEHPADHAAH1@Z 004bbca0 f   OnlineCommonParser.obj
 0001:000badf0       ?GetValue@OnlineCommonParser@@QAEHAADAAH1@Z 004bbdf0 f   OnlineCommonParser.obj
 0001:000baf10       ?GetValue@OnlineCommonParser@@QAEHAAFAAH1@Z 004bbf10 f   OnlineCommonParser.obj
 0001:000bb030       ?GetValue@OnlineCommonParser@@QAEHAAH00@Z 004bc030 f   OnlineCommonParser.obj
 0001:000bb150       ?GetValue@OnlineCommonParser@@QAEHAA_JAAH1@Z 004bc150 f   OnlineCommonParser.obj
 0001:000bb270       ?GetValue@OnlineCommonParser@@QAEHAANAAH1@Z 004bc270 f   OnlineCommonParser.obj
 0001:000bb390       ?PrintError@OnlineCommonParser@@SAXPADZZ 004bc390 f   OnlineCommonParser.obj
 0001:000bb430       ??0RegControl@@QAE@PAVSOServer@@@Z 004bc430 f   RegControl.obj
 0001:000bb4c0       ??_ERegControl@@UAEPAXI@Z  004bc4c0 f i RegControl.obj
 0001:000bb4c0       ??_GRegControl@@UAEPAXI@Z  004bc4c0 f i RegControl.obj
 0001:000bb530       ??1RegControl@@UAE@XZ      004bc530 f   RegControl.obj
 0001:000bb590       ?RegKeyInit@RegControl@@QAEHXZ 004bc590 f   RegControl.obj
 0001:000bb660       ?RegKeyServerInfo@RegControl@@QAEHXZ 004bc660 f   RegControl.obj
 0001:000bb840       ?RegKeyHeartBeat@RegControl@@QAEHHHH@Z 004bc840 f   RegControl.obj
 0001:000bb970       ?RegKeyClose@RegControl@@QAEHXZ 004bc970 f   RegControl.obj
 0001:000bb9d0       ?SetRegControlReady@RegControl@@QAEXH@Z 004bc9d0 f   RegControl.obj
 0001:000bbd00       ??0CBattle@@QAE@XZ         004bcd00 f   Battle.obj
 0001:000bbd60       ??_ECBattle@@UAEPAXI@Z     004bcd60 f i Battle.obj
 0001:000bbd60       ??_GCBattle@@UAEPAXI@Z     004bcd60 f i Battle.obj
 0001:000bbdd0       ??1CBattle@@UAE@XZ         004bcdd0 f   Battle.obj
 0001:000bbe20       ?ResetPlayerList@CBattle@@AAEXXZ 004bce20 f   Battle.obj
 0001:000bbe90       ?InitBattleProperty@CBattle@@QAEXXZ 004bce90 f   Battle.obj
 0001:000bbf20       ?AddPlayer@CBattle@@QAE_NPAVBaseChar@@@Z 004bcf20 f   Battle.obj
 0001:000bc060       ?RemovePlayer@CBattle@@QAEHPAVBaseChar@@@Z 004bd060 f   Battle.obj
 0001:000bc190       ?SetPlayer@CBattle@@AAEXHPAVBaseChar@@@Z 004bd190 f   Battle.obj
 0001:000bc1d0       ?GetPlayer@CBattle@@QAEPAVBaseChar@@H@Z 004bd1d0 f   Battle.obj
 0001:000bc220       ?GetFollower@CBattle@@QAEPAUOnlineFollower@@HH@Z 004bd220 f   Battle.obj
 0001:000bc2a0       ?GetFollowerParam@CBattle@@QAEPAV_ImportantParameta@@HH@Z 004bd2a0 f   Battle.obj
 0001:000bc320       ?GetBattleInfo@CBattle@@AAEHPAD@Z 004bd320 f   Battle.obj
 0001:000bc5b0       ?GetBattleFollowerInfo@CBattle@@AAEXPAUOnImjinBattlePlayerInfo@@H@Z 004bd5b0 f   Battle.obj
 0001:000bc6e0       ?SendBattleInfoToAll@CBattle@@AAEXXZ 004bd6e0 f   Battle.obj
 0001:000bc880       ?SendToAll@CBattle@@QAEXPADH@Z 004bd880 f   Battle.obj
 0001:000bc970       ?IsSingleMode@CBattle@@QAE_NXZ 004bd970 f   Battle.obj
 0001:000bc9b0       ?IsJoinable@CBattle@@QAE_NXZ 004bd9b0 f   Battle.obj
 0001:000bca10       ?PushData@CBattle@@QAEXPADH@Z 004bda10 f   Battle.obj
 0001:000bca80       ?Action@CBattle@@QAEXXZ    004bda80 f   Battle.obj
 0001:000bcb20       ?GetState@CBattle@@AAEHXZ  004bdb20 f   Battle.obj
 0001:000bcb60       ?SetState@CBattle@@AAEXH@Z 004bdb60 f   Battle.obj
 0001:000bcba0       ?LaunchBattle@CBattle@@QAEXXZ 004bdba0 f   Battle.obj
 0001:000bcc20       ?CleanupBattle@CBattle@@QAEXXZ 004bdc20 f   Battle.obj
 0001:000bcd00       ?PrepareBattle@CBattle@@QAEXXZ 004bdd00 f   Battle.obj
 0001:000bcda0       ?SetPartyID@CBattle@@QAEXG@Z 004bdda0 f   Battle.obj
 0001:000bcdf0       ?GetPartyID@CBattle@@QAEGXZ 004bddf0 f   Battle.obj
 0001:000bd0e0       ??0CBattleMgr@@QAE@XZ      004be0e0 f   BattleMgr.obj
 0001:000bd200       ??1CBattleMgr@@QAE@XZ      004be200 f   BattleMgr.obj
 0001:000bd2c0       ?GetBattle@CBattleMgr@@QAEPAVCBattle@@H@Z 004be2c0 f   BattleMgr.obj
 0001:000bd320       ?CreateBattle@CBattleMgr@@QAEHG@Z 004be320 f   BattleMgr.obj
 0001:000bd440       ?DestroyBattle@CBattleMgr@@QAEXH@Z 004be440 f   BattleMgr.obj
 0001:000bd4e0       ?ActionPoll@CBattleMgr@@QAEXXZ 004be4e0 f   BattleMgr.obj
 0001:000bd830       ??0CElement@@QAE@XZ        004be830 f   Element.obj
 0001:000bd890       ??_ECElement@@UAEPAXI@Z    004be890 f i Element.obj
 0001:000bd890       ??_GCElement@@UAEPAXI@Z    004be890 f i Element.obj
 0001:000bd900       ??1CElement@@UAE@XZ        004be900 f   Element.obj
 0001:000bd940       ?SetKey@CElement@@QAEXH@Z  004be940 f   Element.obj
 0001:000bd980       ?GetKey@CElement@@QAEHXZ   004be980 f   Element.obj
 0001:000bd9c0       ?SetUsed@CElement@@QAEX_N@Z 004be9c0 f   Element.obj
 0001:000bda00       ?GetUsed@CElement@@QAE_NXZ 004bea00 f   Element.obj
 0001:000bda40       ?SetUniqID@CElement@@AAEXK@Z 004bea40 f   Element.obj
 0001:000bda80       ?GetUniqID@CElement@@AAEKXZ 004bea80 f   Element.obj
 0001:000bdac0       ?LogPrintf@@YAXPBDZZ       004beac0 f   game.obj
 0001:000bdb60       ?SetDataSize@_ChatMsg@@QAEXH@Z 004beb60 f   game.obj
 0001:000bdbb0       ?GetDataSize@_ChatMsg@@QAEHXZ 004bebb0 f   game.obj
 0001:000bdbf0       ?CopyStrData@_ChatMsg@@QAEXPAD@Z 004bebf0 f   game.obj
 0001:000bdc50       ?IsAlly@_ChatMsg@@QAEHXZ   004bec50 f   game.obj
 0001:000bdca0       ?SetAlly@_ChatMsg@@QAEXD@Z 004beca0 f   game.obj
 0001:000bdd00       ?Init@_PlayerInfo@@QAEXF@Z 004bed00 f   game.obj
 0001:000bdd70       ?ChangePlayerGroup@_PlayerInfo@@QAEXF@Z 004bed70 f   game.obj
 0001:000bddb0       ?Init@_Game@@QAE_NPAVCBattle@@@Z 004bedb0 f   game.obj
 0001:000bdf60       ?PushData@_Game@@QAEHPADI@Z 004bef60 f   game.obj
 0001:000be020       ?PopData@_Game@@QAEHPADAAI@Z 004bf020 f   game.obj
 0001:000be150       ?DecideTransVary@_Game@@QAEXH@Z 004bf150 f   game.obj
 0001:000be220       ?GetIDFromInClientNoMsg@_Game@@QAEHPAUCLIENTNOMSG@@@Z 004bf220 f   game.obj
 0001:000be270       ?GetFrameInClientNoMsg@_Game@@QAEIPAUCLIENTNOMSG@@@Z 004bf270 f   game.obj
 0001:000be2c0       ?GetSignalInClientNoMsg@_Game@@QAEIPAUCLIENTNOMSG@@@Z 004bf2c0 f   game.obj
 0001:000be310       ?SetFrameInMyMsg@_Game@@QAEHPAUMYMSG@@I@Z 004bf310 f   game.obj
 0001:000be370       ?GetFrameInMyMsg@_Game@@QAEIPAUMYMSG@@@Z 004bf370 f   game.obj
 0001:000be3c0       ?SetDataSizeInMyMsg@_Game@@QAEHPAUMYMSG@@H@Z 004bf3c0 f   game.obj
 0001:000be430       ?GetDataSizeInMyMsg@_Game@@QAEHPAUMYMSG@@@Z 004bf430 f   game.obj
 0001:000be480       ?SetIDFromInMyMsg@_Game@@QAEHPAUMYMSG@@H@Z 004bf480 f   game.obj
 0001:000be4f0       ?GetIDFromInMyMsg@_Game@@QAEHPAUMYMSG@@@Z 004bf4f0 f   game.obj
 0001:000be540       ?SetFrameInNoMsg@_Game@@QAEHPAUNOMSG@@I@Z 004bf540 f   game.obj
 0001:000be5a0       ?GetFrameInNoMsg@_Game@@QAEIPAUNOMSG@@@Z 004bf5a0 f   game.obj
 0001:000be5f0       ?SetIDFromInNoMsg@_Game@@QAEHPAUNOMSG@@H@Z 004bf5f0 f   game.obj
 0001:000be660       ?SetOldFrameVaryInNoMsg@_Game@@QAEHPAUNOMSG@@HH@Z 004bf660 f   game.obj
 0001:000be730       ?DoApplicationMessage@_Game@@QAEXPAUGWMSG_GENERIC@@K@Z 004bf730 f   game.obj
 0001:000bfcd0       ?WaitForMessageFrom@_Game@@QAEHXZ 004c0cd0 f   game.obj
 0001:000bff50       ?SendGameMessage@_Game@@QAEHPAUGWMSG_GENERIC@@@Z 004c0f50 f   game.obj
 0001:000c00e0       ?DoLogoutAction@_Game@@QAEHK@Z 004c10e0 f   game.obj
 0001:000c0140       ?DeletePlayerNumber@_Game@@QAEHK@Z 004c1140 f   game.obj
 0001:000c0210       ?PushUserOrderBuffer@_Game@@QAEHV_OrderData@@@Z 004c1210 f   game.obj
 0001:000c02a0       ?PopUserOrderBuffer@_Game@@QAEHPAV_OrderData@@@Z 004c12a0 f   game.obj
 0001:000c0380       ?EncodeData@_Game@@QAEHPAD0H@Z 004c1380 f   game.obj
 0001:000c0490       ?DecodeData@_Game@@QAEHPAD0H@Z 004c1490 f   game.obj
 0001:000c05b0       ?Action@_Game@@QAEHXZ      004c15b0 f   game.obj
 0001:000c06f0       ?GetPlayerIndex@_Game@@QAEHH@Z 004c16f0 f   game.obj
 0001:000c0840       ?IsValidFollower@_Game@@QAEHHH@Z 004c1840 f   game.obj
 0001:000c08e0       ?PushBattleItemInfo@_Game@@QAEXHHHHH@Z 004c18e0 f   game.obj
 0001:000c09c0       ?GetType@_OnlineBattleMsg@@QAEKXZ 004c19c0 f i game.obj
 0001:000c0a10       ?Decr@?$cltCrypt@K@@QAEKK@Z 004c1a10 f i game.obj
 0001:000c0d00       ?Init@_NewID@@QAEXXZ       004c1d00 f i game.obj
 0001:000c0d50       ?GetOwnFactory@SOPlayer@@QAEPAUstFarmData@@XZ 004c1d50 f   SOPlayer_Farm.obj
 0001:000c0d80       ?RecvFarmInfo@SOPlayer@@QAEXXZ 004c1d80 f   SOPlayer_Farm.obj
 0001:000c0e50       ?RecvFarmBuy@SOPlayer@@QAEXXZ 004c1e50 f   SOPlayer_Farm.obj
 0001:000c0f40       ?RecvFarmSell@SOPlayer@@QAEXXZ 004c1f40 f   SOPlayer_Farm.obj
 0001:000c1020       ?RecvFarmSlotInfo@SOPlayer@@QAEXXZ 004c2020 f   SOPlayer_Farm.obj
 0001:000c10f0       ?RecvFarmBuildStruct@SOPlayer@@QAEXXZ 004c20f0 f   SOPlayer_Farm.obj
 0001:000c11d0       ?RecvFarmUpgradeSlot@SOPlayer@@QAEXXZ 004c21d0 f   SOPlayer_Farm.obj
 0001:000c12a0       ?RecvFarmExpandSlot@SOPlayer@@QAEXXZ 004c22a0 f   SOPlayer_Farm.obj
 0001:000c1370       ?RecvFarmDestroyStruct@SOPlayer@@QAEXXZ 004c2370 f   SOPlayer_Farm.obj
 0001:000c1430       ?RecvFarmSetEquipment@SOPlayer@@QAEXXZ 004c2430 f   SOPlayer_Farm.obj
 0001:000c14f0       ?RecvFarmItemProduct@SOPlayer@@QAEXXZ 004c24f0 f   SOPlayer_Farm.obj
 0001:000c15f0       ?RecvFarmWorkStart@SOPlayer@@QAEXXZ 004c25f0 f   SOPlayer_Farm.obj
 0001:000c16b0       ?RecvFarmWork@SOPlayer@@QAEXXZ 004c26b0 f   SOPlayer_Farm.obj
 0001:000c17c0       ?RecvFarmWorkHack@SOPlayer@@QAEXXZ 004c27c0 f   SOPlayer_Farm.obj
 0001:000c1860       ?CheckLaborHack@SOPlayer@@QAEHECI@Z 004c2860 f   SOPlayer_Farm.obj
 0001:000c1980       ?CheckLaborHack1@SOPlayer@@QAEHCI@Z 004c2980 f   SOPlayer_Farm.obj
 0001:000c1ae0       ?CheckLaborHack2@SOPlayer@@QAEHCI@Z 004c2ae0 f   SOPlayer_Farm.obj
 0001:000c1c50       ?CheckLaborHack3@SOPlayer@@QAEHCI@Z 004c2c50 f   SOPlayer_Farm.obj
 0001:000c1d90       ?RecvFarmWorkInfo@SOPlayer@@QAEXXZ 004c2d90 f   SOPlayer_Farm.obj
 0001:000c1e60       ?RecvStorageInfo@SOPlayer@@QAEXXZ 004c2e60 f   SOPlayer_Farm.obj
 0001:000c1f30       ?RecvStorageInputItem@SOPlayer@@QAEXXZ 004c2f30 f   SOPlayer_Farm.obj
 0001:000c2270       ?RecvStorageOutputItem@SOPlayer@@QAEXXZ 004c3270 f   SOPlayer_Farm.obj
 0001:000c25b0       ?RecvPlantChangPay@SOPlayer@@QAEXXZ 004c35b0 f   SOPlayer_Farm.obj
 0001:000c2680       ?RecvPlantCancelPlan@SOPlayer@@QAEXXZ 004c3680 f   SOPlayer_Farm.obj
 0001:000c2a00       ?GetFarmData@SOVillage@@QAEHXZ 004c3a00 f   SOVillage_Farm.obj
 0001:000c2af0       ?PlantWorkAble@SOVillage@@QAEHPAVSOPlayer@@@Z 004c3af0 f   SOVillage_Farm.obj
 0001:000c2b60       ?ExpandFarmSlot@SOVillage@@QAEHPAVSOPlayer@@EE@Z 004c3b60 f   SOVillage_Farm.obj
 0001:000c2c10       ?ConstructFactory@SOVillage@@QAEHPAVSOPlayer@@HQAD_J@Z 004c3c10 f   SOVillage_Farm.obj
 0001:000c2cc0       ?DestroyPlantSlot@SOVillage@@QAEHPAVSOPlayer@@E@Z 004c3cc0 f   SOVillage_Farm.obj
 0001:000c2d50       ?UpgradeSlot@SOVillage@@QAEKPAVSOPlayer@@EF@Z 004c3d50 f   SOVillage_Farm.obj
 0001:000c2e00       ?ProductItem@SOVillage@@QAEKPAVSOPlayer@@EEEGII@Z 004c3e00 f   SOVillage_Farm.obj
 0001:000c2ec0       ?StorageOutputItem@SOVillage@@QAEHPAVSOPlayer@@GG@Z 004c3ec0 f   SOVillage_Farm.obj
 0001:000c2f40       ?StorageInputItem@SOVillage@@QAEHPAVSOPlayer@@GG@Z 004c3f40 f   SOVillage_Farm.obj
 0001:000c2fc0       ?ChangePay@SOVillage@@QAEHPAVSOPlayer@@EF@Z 004c3fc0 f   SOVillage_Farm.obj
 0001:000c3050       ?EnterIndustrialComplexFactory@SOVillage@@QAEHPAVSOPlayer@@H@Z 004c4050 f   SOVillage_Farm.obj
 0001:000c30c0       ?LeaveIndustrialComplexFactory@SOVillage@@QAEHPAVSOPlayer@@@Z 004c40c0 f   SOVillage_Farm.obj
 0001:000c3130       ?IsIndustrialComplexOwner@SOVillage@@QAEHPAVSOPlayer@@@Z 004c4130 f   SOVillage_Farm.obj
 0001:000c31b0       ?GetIndustrialComplexOwner@SOVillage@@QAEPAVSOVillage_IndustrialComplex@@PAVSOPlayer@@@Z 004c41b0 f   SOVillage_Farm.obj
 0001:000c3230       ?CancelWork@SOVillage@@QAEHPAVSOPlayer@@H@Z 004c4230 f   SOVillage_Farm.obj
 0001:000c3570       ??0CBuriedItemParser@@QAE@XZ 004c4570 f   BuriedItemParser.obj
 0001:000c35f0       ??1CBuriedItemParser@@QAE@XZ 004c45f0 f   BuriedItemParser.obj
 0001:000c3620       ?isBuriedArea@CBuriedItemParser@@QAE_NK@Z 004c4620 f   BuriedItemParser.obj
 0001:000c36a0       ?findItem@CBuriedItemParser@@QAEPAU__ITEMINFO@BURIED@@K@Z 004c46a0 f   BuriedItemParser.obj
 0001:000c3760       ?readFile@CBuriedItemParser@@QAE_NPAD@Z 004c4760 f   BuriedItemParser.obj
 0001:000c3d90       ??0CSkill@@QAE@HH@Z        004c4d90 f   Skill.obj
 0001:000c3df0       ??1CSkill@@QAE@XZ          004c4df0 f   Skill.obj
 0001:000c3e20       ?getKind@CSkill@@QAEHXZ    004c4e20 f   Skill.obj
 0001:000c3e60       ?isLearnSkill@CSkill@@QAE_NXZ 004c4e60 f   Skill.obj
 0001:000c3ea0       ?LevelUp@CSkill@@QAEHXZ    004c4ea0 f   Skill.obj
 0001:000c3f10       ?setCurLevel@CSkill@@QAEXH@Z 004c4f10 f   Skill.obj
 0001:000c3f50       ?setUsed@CSkill@@QAEX_N@Z  004c4f50 f   Skill.obj
 0001:000c3f90       ?getUsed@CSkill@@QAE_NXZ   004c4f90 f   Skill.obj
 0001:000c4280       ??0CSkillMgr@@QAE@PAVSOPlayer@@@Z 004c5280 f   SkillMgr.obj
 0001:000c42c0       ??1CSkillMgr@@QAE@XZ       004c52c0 f   SkillMgr.obj
 0001:000c4370       ??_GCSkill@@QAEPAXI@Z      004c5370 f i SkillMgr.obj
 0001:000c43e0       ?getSkill@CSkillMgr@@QAEPAVCSkill@@H@Z 004c53e0 f   SkillMgr.obj
 0001:000c4470       ??0CAuctionList@@QAE@K@Z   004c5470 f   AuctionList.obj
 0001:000c4500       ??1CAuctionList@@QAE@XZ    004c5500 f   AuctionList.obj
 0001:000c4560       ?get@CAuctionList@@QAEPAUsBaseInfo@AUCTION@@K@Z 004c5560 f   AuctionList.obj
 0001:000c45c0       ?add@CAuctionList@@QAE_NPADEKUSOnlineTime@@10EKKGKKEE0G@Z 004c55c0 f   AuctionList.obj
 0001:000c48b0       ?add@CAuctionList@@QAE_NPAUsBaseInfo@AUCTION@@@Z 004c58b0 f   AuctionList.obj
 0001:000c4980       ?remove@CAuctionList@@QAEXK@Z 004c5980 f   AuctionList.obj
 0001:000c4a50       ?getNum@CAuctionList@@QAEHXZ 004c5a50 f   AuctionList.obj
 0001:000c4a90       ?getUniqID@CAuctionList@@AAEKXZ 004c5a90 f   AuctionList.obj
 0001:000c4dc0       ?setStrAuctioneer@sBaseInfo@AUCTION@@QAEXPAD@Z 004c5dc0 f i AuctionList.obj
 0001:000c4e50       ?setStrBidder@sBaseInfo@AUCTION@@QAEXPAD@Z 004c5e50 f i AuctionList.obj
 0001:000c4ee0       ??0CAuctionMarket@@QAE@PAVSOWorld@@@Z 004c5ee0 f   AuctionMarket.obj
 0001:000c50d0       ??_GCAuctionMarket@@UAEPAXI@Z 004c60d0 f i AuctionMarket.obj
 0001:000c50d0       ??_ECAuctionMarket@@UAEPAXI@Z 004c60d0 f i AuctionMarket.obj
 0001:000c5140       ??1CAuctionMarket@@UAE@XZ  004c6140 f   AuctionMarket.obj
 0001:000c5290       ??_GCAuctionList@@QAEPAXI@Z 004c6290 f i AuctionMarket.obj
 0001:000c5300       ??_GCPlayerList@@QAEPAXI@Z 004c6300 f i AuctionMarket.obj
 0001:000c5370       ?getNowAuctioneer@CAuctionMarket@@QAEPAVSOPlayer@@XZ 004c6370 f   AuctionMarket.obj
 0001:000c53e0       ?getAuction@CAuctionMarket@@QAEPAUsBaseInfo@AUCTION@@K@Z 004c63e0 f   AuctionMarket.obj
 0001:000c5430       ?getNumWait@CAuctionMarket@@QAEHXZ 004c6430 f   AuctionMarket.obj
 0001:000c54a0       ?getNowProgressAuction@CAuctionMarket@@QAEPAUsBaseInfo@AUCTION@@XZ 004c64a0 f   AuctionMarket.obj
 0001:000c54e0       ?getNowTime@CAuctionMarket@@QAE?AUSOnlineTime@@XZ 004c64e0 f   AuctionMarket.obj
 0001:000c5550       ?getAuctionExpireTime@CAuctionMarket@@QAE?AUSOnlineTime@@XZ 004c6550 f   AuctionMarket.obj
 0001:000c55e0       ?addNewAuction@CAuctionMarket@@QAE_NPAUsBaseInfo@AUCTION@@@Z 004c65e0 f   AuctionMarket.obj
 0001:000c5630       ?addNewAuction@CAuctionMarket@@QAE_NPADEKUSOnlineTime@@10EKKGKKEE0G@Z 004c6630 f   AuctionMarket.obj
 0001:000c5710       ?removeAuction@CAuctionMarket@@QAEXK@Z 004c6710 f   AuctionMarket.obj
 0001:000c5760       ?addBidder@CAuctionMarket@@QAE_NPAVSOPlayer@@@Z 004c6760 f   AuctionMarket.obj
 0001:000c57b0       ?removeBidder@CAuctionMarket@@QAEXPAVSOPlayer@@@Z 004c67b0 f   AuctionMarket.obj
 0001:000c5830       ?clearBidderList@CAuctionMarket@@QAEXXZ 004c6830 f   AuctionMarket.obj
 0001:000c5880       ?hasBidder@CAuctionMarket@@QAE_NXZ 004c6880 f   AuctionMarket.obj
 0001:000c58e0       ?addAudience@CAuctionMarket@@QAE_NPAVSOPlayer@@@Z 004c68e0 f   AuctionMarket.obj
 0001:000c5930       ?removeAudience@CAuctionMarket@@QAEXPAVSOPlayer@@@Z 004c6930 f   AuctionMarket.obj
 0001:000c5980       ?clearAudienceList@CAuctionMarket@@QAEXXZ 004c6980 f   AuctionMarket.obj
 0001:000c59d0       ?hasAudience@CAuctionMarket@@QAE_NXZ 004c69d0 f   AuctionMarket.obj
 0001:000c5a30       ?DB_addItemAuction@CAuctionMarket@@QAEXPADEKKKEEGGEK@Z 004c6a30 f   AuctionMarket.obj
 0001:000c5af0       ?DB_successfulBidItemAuction@CAuctionMarket@@QAEXGGGE@Z 004c6af0 f   AuctionMarket.obj
 0001:000c5bd0       ?DB_failBidItemAuction@CAuctionMarket@@QAEXXZ 004c6bd0 f   AuctionMarket.obj
 0001:000c5c60       ?DB_delItemAuction@CAuctionMarket@@QAEXXZ 004c6c60 f   AuctionMarket.obj
 0001:000c5cf0       ?setPrevBidderToHighestBidder@CAuctionMarket@@QAEXXZ 004c6cf0 f   AuctionMarket.obj
 0001:000c5e50       ?DoBidding@CAuctionMarket@@QAEHPAVSOPlayer@@PADEKKK@Z 004c6e50 f   AuctionMarket.obj
 0001:000c6010       ?DoFailBid@CAuctionMarket@@QAEXXZ 004c7010 f   AuctionMarket.obj
 0001:000c6160       ?DoSuccessfulBid@CAuctionMarket@@QAE_NXZ 004c7160 f   AuctionMarket.obj
 0001:000c63a0       ?isAlreadyAddAuction@CAuctionMarket@@QAE_NKE@Z 004c73a0 f   AuctionMarket.obj
 0001:000c6460       ?resetRemainTimeListPos@CAuctionMarket@@QAEXXZ 004c7460 f   AuctionMarket.obj
 0001:000c64f0       ?checkBiddingPrice@CAuctionMarket@@QAEHK@Z 004c74f0 f   AuctionMarket.obj
 0001:000c6610       ?getNowAuctionRemainTime@CAuctionMarket@@QAEKXZ 004c7610 f   AuctionMarket.obj
 0001:000c66e0       ?auctionDelay@CAuctionMarket@@QAE_NXZ 004c76e0 f   AuctionMarket.obj
 0001:000c6770       ?Poll@CAuctionMarket@@QAEXXZ 004c7770 f   AuctionMarket.obj
 0001:000c6980       ?sendNotifyAdvertise@CAuctionMarket@@QAEXXZ 004c7980 f   AuctionMarket.obj
 0001:000c6b10       ?sendNotifyResult@CAuctionMarket@@QAEXPAVSOPlayer@@@Z 004c7b10 f   AuctionMarket.obj
 0001:000c6c10       ?sendReportRemainTime@CAuctionMarket@@QAEXXZ 004c7c10 f   AuctionMarket.obj
 0001:000c6cc0       ?sendReportNewInfo@CAuctionMarket@@QAEXXZ 004c7cc0 f   AuctionMarket.obj
 0001:000c6e30       ?sendReportFailBid@CAuctionMarket@@QAEXXZ 004c7e30 f   AuctionMarket.obj
 0001:000c6ec0       ?sendReportSuccessfulBid@CAuctionMarket@@QAEXPAVSOPlayer@@PADG@Z 004c7ec0 f   AuctionMarket.obj
 0001:000c6fe0       ?sendReportBidding@CAuctionMarket@@QAEXXZ 004c7fe0 f   AuctionMarket.obj
 0001:000c7340       ?setStrBidder@sReportBidding@AUCTION@@QAEXPAD@Z 004c8340 f i AuctionMarket.obj
 0001:000c73d0       ?setData@sReportSuccessfulBid@AUCTION@@QAE_NPADG@Z 004c83d0 f i AuctionMarket.obj
 0001:000c7480       ?setData@sReportNewInfo@AUCTION@@QAE_NPADG@Z 004c8480 f i AuctionMarket.obj
 0001:000c7530       ?setStrAuctioneer@sReportNewInfo@AUCTION@@QAEXPAD@Z 004c8530 f i AuctionMarket.obj
 0001:000c75c0       ?setData@sNotifyAdvertise@AUCTION@@QAE_NPADG@Z 004c85c0 f i AuctionMarket.obj
 0001:000c7670       ?setData@sNotifyResult@AUCTION@@QAE_NPADG@Z 004c8670 f i AuctionMarket.obj
 0001:000c7720       ??0CAuctionMarketProc@@QAE@PAVSOPlayer@@@Z 004c8720 f   AuctionMarketProc.obj
 0001:000c7760       ??1CAuctionMarketProc@@QAE@XZ 004c8760 f   AuctionMarketProc.obj
 0001:000c7790       ?getStrID@CAuctionMarketProc@@AAEPADXZ 004c8790 f   AuctionMarketProc.obj
 0001:000c77d0       ?getCharSlot@CAuctionMarketProc@@AAEEXZ 004c87d0 f   AuctionMarketProc.obj
 0001:000c7810       ?getDBAccount@CAuctionMarketProc@@AAEKXZ 004c8810 f   AuctionMarketProc.obj
 0001:000c7850       ?getAuctionMarket@CAuctionMarketProc@@AAEPAVCAuctionMarket@@XZ 004c8850 f   AuctionMarketProc.obj
 0001:000c78a0       ?isValidFollower@CAuctionMarketProc@@AAE_NH@Z 004c88a0 f   AuctionMarketProc.obj
 0001:000c7900       ?isValidItem@CAuctionMarketProc@@AAE_NHHH@Z 004c8900 f   AuctionMarketProc.obj
 0001:000c7990       ?recvRequestNumWait@CAuctionMarketProc@@QAEXPAD@Z 004c8990 f   AuctionMarketProc.obj
 0001:000c7a10       ?sendResponseNumWait@CAuctionMarketProc@@AAEXH@Z 004c8a10 f   AuctionMarketProc.obj
 0001:000c7a90       ?checkMinMaxPrice@CAuctionMarketProc@@AAEKKK@Z 004c8a90 f   AuctionMarketProc.obj
 0001:000c7b70       ?recvRequestSellFollower@CAuctionMarketProc@@QAEXPAD@Z 004c8b70 f   AuctionMarketProc.obj
 0001:000c7da0       ?recvRequestSellItem@CAuctionMarketProc@@QAEXPAD@Z 004c8da0 f   AuctionMarketProc.obj
 0001:000c8080       ?sendResponseSellArticle@CAuctionMarketProc@@AAEXH@Z 004c9080 f   AuctionMarketProc.obj
 0001:000c8100       ?recvRequestEnter@CAuctionMarketProc@@QAEXPAD@Z 004c9100 f   AuctionMarketProc.obj
 0001:000c81d0       ?sendResponseEnter@CAuctionMarketProc@@AAEXH@Z 004c91d0 f   AuctionMarketProc.obj
 0001:000c83c0       ?recvRequestLeave@CAuctionMarketProc@@QAEXPAD@Z 004c93c0 f   AuctionMarketProc.obj
 0001:000c8450       ?recvRequestBidding@CAuctionMarketProc@@QAEXPAD@Z 004c9450 f   AuctionMarketProc.obj
 0001:000c8530       ?sendResponseBidding@CAuctionMarketProc@@AAEXH@Z 004c9530 f   AuctionMarketProc.obj
 0001:000c8860       ?set@sArticleFollowerInfo@AUCTION@@QAEHPAUOnlineFollower@@@Z 004c9860 f i AuctionMarketProc.obj
 0001:000c8ae0       ?setData@sResponseEnter@AUCTION@@QAE_NPADG@Z 004c9ae0 f i AuctionMarketProc.obj
 0001:000c8b90       ?setStrAuctioneer@sResponseEnter@AUCTION@@QAEXPAD@Z 004c9b90 f i AuctionMarketProc.obj
 0001:000c8c10       ?setStrBidder@sResponseEnter@AUCTION@@QAEXPAD@Z 004c9c10 f i AuctionMarketProc.obj
 0001:000c8c90       ??0CPlayerList@@QAE@H@Z    004c9c90 f   PlayerList.obj
 0001:000c8d50       ??1CPlayerList@@QAE@XZ     004c9d50 f   PlayerList.obj
 0001:000c8db0       ?add@CPlayerList@@QAE_NPAVSOPlayer@@@Z 004c9db0 f   PlayerList.obj
 0001:000c8e50       ?remove@CPlayerList@@QAEXPAVSOPlayer@@@Z 004c9e50 f   PlayerList.obj
 0001:000c8f40       ?clear@CPlayerList@@QAEXXZ 004c9f40 f   PlayerList.obj
 0001:000c8fc0       ?get@CPlayerList@@QAEPAVSOPlayer@@H@Z 004c9fc0 f   PlayerList.obj
 0001:000c9020       ?getLast@CPlayerList@@QAEPAVSOPlayer@@XZ 004ca020 f   PlayerList.obj
 0001:000c9090       ?getNum@CPlayerList@@QAEHXZ 004ca090 f   PlayerList.obj
 0001:000c90d0       ?write@CPlayerList@@QAEXPAXH@Z 004ca0d0 f   PlayerList.obj
 0001:000c9150       ?write@CPlayerList@@QAEXPAXHPAVSOPlayer@@@Z 004ca150 f   PlayerList.obj
 0001:000c94a0       ?InitStaticVariable@SOVillage_Bank@@SAXPAVSODatabase@@PAVOnlineEconomy@@@Z 004ca4a0 f   SOVillage_BankStructure.obj
 0001:000c94e0       ?Init@SOVillage_Bank@@QAEHG@Z 004ca4e0 f   SOVillage_BankStructure.obj
 0001:000c95c0       ??0SOVillage_Bank@@QAE@XZ  004ca5c0 f   SOVillage_BankStructure.obj
 0001:000c9620       ??_ESOVillage_Bank@@UAEPAXI@Z 004ca620 f i SOVillage_BankStructure.obj
 0001:000c9620       ??_GSOVillage_Bank@@UAEPAXI@Z 004ca620 f i SOVillage_BankStructure.obj
 0001:000c9690       ??1SOVillage_Bank@@UAE@XZ  004ca690 f   SOVillage_BankStructure.obj
 0001:000c96e0       ?SendBankInfo@SOVillage_Bank@@QAEXPAVSOPlayer@@@Z 004ca6e0 f   SOVillage_BankStructure.obj
 0001:000c9770       ?OpenSavingAccount@SOVillage_Bank@@QAEHPAVSOPlayer@@G_J@Z 004ca770 f   SOVillage_BankStructure.obj
 0001:000c9970       ?Deposit@SOVillage_Bank@@QAEHPAVSOPlayer@@PAUOnAccountNumber@@_J@Z 004ca970 f   SOVillage_BankStructure.obj
 0001:000c9a50       ?Drawing@SOVillage_Bank@@QAEHPAVSOPlayer@@PAUOnAccountNumber@@_J@Z 004caa50 f   SOVillage_BankStructure.obj
 0001:000c9dd0       ??0SOVillage_Barrack@@QAE@XZ 004cadd0 f   SOVillage_BarrackStructure.obj
 0001:000c9e40       ??_ESOVillage_Barrack@@UAEPAXI@Z 004cae40 f i SOVillage_BarrackStructure.obj
 0001:000c9e40       ??_GSOVillage_Barrack@@UAEPAXI@Z 004cae40 f i SOVillage_BarrackStructure.obj
 0001:000c9eb0       ??1SOVillage_Barrack@@UAE@XZ 004caeb0 f   SOVillage_BarrackStructure.obj
 0001:000c9f50       ?Init@SOVillage_Barrack@@QAEHGKPAVSOVillage@@@Z 004caf50 f   SOVillage_BarrackStructure.obj
 0001:000c9fc0       ?Free@SOVillage_Barrack@@UAEXXZ 004cafc0 f   SOVillage_BarrackStructure.obj
 0001:000ca020       ?BarrackGetSolderList@SOVillage_Barrack@@QAEHPAVSOPlayer@@@Z 004cb020 f   SOVillage_BarrackStructure.obj
 0001:000ca520       ?BarrackBuySolder@SOVillage_Barrack@@QAEHPAVSOPlayer@@HPAE@Z 004cb520 f   SOVillage_BarrackStructure.obj
 0001:000cac80       ?BarrackGetDismissalSolderList@SOVillage_Barrack@@QAEHPAVSOPlayer@@@Z 004cbc80 f   SOVillage_BarrackStructure.obj
 0001:000cae00       ?BarrackDismissalSolder@SOVillage_Barrack@@QAEHPAVSOPlayer@@H@Z 004cbe00 f   SOVillage_BarrackStructure.obj
 0001:000caff0       ?BarrackDismissalSolderMoney@SOVillage_Barrack@@QAE_JPAVSOPlayer@@H@Z 004cbff0 f   SOVillage_BarrackStructure.obj
 0001:000cb190       ?GBarrackGetSolderList@SOVillage_Barrack@@QAEHPAVSOPlayer@@@Z 004cc190 f   SOVillage_BarrackStructure.obj
 0001:000cb590       ?GBarrackBuySolder@SOVillage_Barrack@@QAEHPAVSOPlayer@@HPAE@Z 004cc590 f   SOVillage_BarrackStructure.obj
 0001:000cbe50       ?GBarrackGetChangeJobSolderList@SOVillage_Barrack@@QAEHPAVSOPlayer@@@Z 004cce50 f   SOVillage_BarrackStructure.obj
 0001:000cc380       ?GBarrackChangeJobSolder@SOVillage_Barrack@@QAEHPAVSOPlayer@@HH@Z 004cd380 f   SOVillage_BarrackStructure.obj
 0001:000ccbf0       ?GBarrackGetDismissalSolderList@SOVillage_Barrack@@QAEHPAVSOPlayer@@@Z 004cdbf0 f   SOVillage_BarrackStructure.obj
 0001:000ccd70       ?GBarrackDismissalSolder@SOVillage_Barrack@@QAEHPAVSOPlayer@@H@Z 004cdd70 f   SOVillage_BarrackStructure.obj
 0001:000ccf70       ?GBarrack_CheckChangeJob@SOVillage_Barrack@@QAEHPAUGeneralHeader@@PAVSOPlayer@@H@Z 004cdf70 f   SOVillage_BarrackStructure.obj
 0001:000cd0c0       ?GBarrack_ChangeJobBonus@SOVillage_Barrack@@QAEHPAVSOPlayer@@H@Z 004ce0c0 f   SOVillage_BarrackStructure.obj
 0001:000cd190       ?GBarrackDismissalSolderMoney@SOVillage_Barrack@@QAE_JPAVSOPlayer@@HH@Z 004ce190 f   SOVillage_BarrackStructure.obj
 0001:000cd330       ?GBarrackGetGeneralExList@SOVillage_Barrack@@QAEHPAVSOPlayer@@@Z 004ce330 f   SOVillage_BarrackStructure.obj
 0001:000cd730       ?GBarrackBuyGeneralEx@SOVillage_Barrack@@QAEHPAVSOPlayer@@HPAE@Z 004ce730 f   SOVillage_BarrackStructure.obj
 0001:000cdff0       ?GBarrackGetChangeGeneralExList@SOVillage_Barrack@@QAEHPAVSOPlayer@@@Z 004ceff0 f   SOVillage_BarrackStructure.obj
 0001:000ce520       ?GBarrackChangeGeneralEx@SOVillage_Barrack@@QAEHPAVSOPlayer@@HH@Z 004cf520 f   SOVillage_BarrackStructure.obj
 0001:000cec60       ?GBarrackGetDismissalGeneralExList@SOVillage_Barrack@@QAEHPAVSOPlayer@@@Z 004cfc60 f   SOVillage_BarrackStructure.obj
 0001:000cede0       ?GBarrackSellDismissalGeneralEx@SOVillage_Barrack@@QAEHPAVSOPlayer@@H@Z 004cfde0 f   SOVillage_BarrackStructure.obj
 0001:000cefe0       ?GBarrackGetChangeGeneralExBonus@SOVillage_Barrack@@QAEHPAVSOPlayer@@H@Z 004cffe0 f   SOVillage_BarrackStructure.obj
 0001:000cf0b0       ?MBarrackGetMonsterList@SOVillage_Barrack@@QAEHPAVSOPlayer@@@Z 004d00b0 f   SOVillage_BarrackStructure.obj
 0001:000cf4e0       ?MBarrackBuyMonster@SOVillage_Barrack@@QAEHPAVSOPlayer@@HPAE@Z 004d04e0 f   SOVillage_BarrackStructure.obj
 0001:000cfda0       ?MBarrackGetDismissMonsterList@SOVillage_Barrack@@QAEHPAVSOPlayer@@@Z 004d0da0 f   SOVillage_BarrackStructure.obj
 0001:000cff20       ?MBarrackDismissMonster@SOVillage_Barrack@@QAEHPAVSOPlayer@@H@Z 004d0f20 f   SOVillage_BarrackStructure.obj
 0001:000d0110       ?MBarrackDismissMonsterMoney@SOVillage_Barrack@@QAE_JPAVSOPlayer@@H@Z 004d1110 f   SOVillage_BarrackStructure.obj
 0001:000d02b0       ?GetRequiredSealingBeadNum@SOVillage_Barrack@@QAEHF@Z 004d12b0 f   SOVillage_BarrackStructure.obj
 0001:000d05b0       ??0SOVillage_BaseStructure@@QAE@XZ 004d15b0 f   SOVillage_BaseStructure.obj
 0001:000d0610       ??_GSOVillage_BaseStructure@@UAEPAXI@Z 004d1610 f i SOVillage_BaseStructure.obj
 0001:000d0610       ??_ESOVillage_BaseStructure@@UAEPAXI@Z 004d1610 f i SOVillage_BaseStructure.obj
 0001:000d0680       ??1SOVillage_BaseStructure@@UAE@XZ 004d1680 f   SOVillage_BaseStructure.obj
 0001:000d0720       ?Init@SOVillage_BaseStructure@@UAEXGK@Z 004d1720 f   SOVillage_BaseStructure.obj
 0001:000d0790       ?Free@SOVillage_BaseStructure@@UAEXXZ 004d1790 f   SOVillage_BaseStructure.obj
 0001:000d07f0       ?EnterPlayer@SOVillage_BaseStructure@@UAEHPAVSOPlayer@@@Z 004d17f0 f   SOVillage_BaseStructure.obj
 0001:000d0880       ?LeavePlayer@SOVillage_BaseStructure@@UAEHPAVSOPlayer@@@Z 004d1880 f   SOVillage_BaseStructure.obj
 0001:000d08f0       ?GetEnteredPlayerList@SOVillage_BaseStructure@@QAEHPAG@Z 004d18f0 f   SOVillage_BaseStructure.obj
 0001:000d0950       ?SendMsgToAllPlayer@SOVillage_BaseStructure@@QAEHHPAX000@Z 004d1950 f   SOVillage_BaseStructure.obj
 0001:000d0a30       ?IsEntered@SOVillage_BaseStructure@@QAEHPAVSOPlayer@@@Z 004d1a30 f   SOVillage_BaseStructure.obj
 0001:000d0d40       ??0SOVillage_Government@@QAE@XZ 004d1d40 f   SOVillage_GovernmentStructure.obj
 0001:000d0dc0       ??_ESOVillage_Government@@UAEPAXI@Z 004d1dc0 f i SOVillage_GovernmentStructure.obj
 0001:000d0dc0       ??_GSOVillage_Government@@UAEPAXI@Z 004d1dc0 f i SOVillage_GovernmentStructure.obj
 0001:000d0e30       ??1SOVillage_Government@@UAE@XZ 004d1e30 f   SOVillage_GovernmentStructure.obj
 0001:000d0ed0       ?Init@SOVillage_Government@@QAEHGKPAVSOVillage@@@Z 004d1ed0 f   SOVillage_GovernmentStructure.obj
 0001:000d0f90       ?Free@SOVillage_Government@@UAEXXZ 004d1f90 f   SOVillage_GovernmentStructure.obj
 0001:000d1020       ?VillageInvestment_DBGetData@SOVillage_Government@@QAEHXZ 004d2020 f   SOVillage_GovernmentStructure.obj
 0001:000d1590       ?VillageInvestment_ReLoad@SOVillage_Government@@QAEHXZ 004d2590 f   SOVillage_GovernmentStructure.obj
 0001:000d19c0       ?VillageInvestment_Updata@SOVillage_Government@@QAEHXZ 004d29c0 f   SOVillage_GovernmentStructure.obj
 0001:000d2010       ?CheckInHourPitchDay@SOVillage_Government@@QAEHUSOnlineTime@@0H@Z 004d3010 f   SOVillage_GovernmentStructure.obj
 0001:000d2100       ?VillageInvestment_CheckBestInvestmentor@SOVillage_Government@@QAEHXZ 004d3100 f   SOVillage_GovernmentStructure.obj
 0001:000d2450       ?GovernmentInvestmentEnter@SOVillage_Government@@QAEHPAVSOPlayer@@@Z 004d3450 f   SOVillage_GovernmentStructure.obj
 0001:000d24f0       ?GovernmentInvestmentLeave@SOVillage_Government@@QAEHPAVSOPlayer@@@Z 004d34f0 f   SOVillage_GovernmentStructure.obj
 0001:000d2570       ?GovernmentInvestmentGetList@SOVillage_Government@@QAEHPAVSOPlayer@@@Z 004d3570 f   SOVillage_GovernmentStructure.obj
 0001:000d2650       ?GovernmentInvestmentSetInvestment@SOVillage_Government@@QAEHPAVSOPlayer@@_J1@Z 004d3650 f   SOVillage_GovernmentStructure.obj
 0001:000d2e40       ?GovernmentInvestmentClearInvestment@SOVillage_Government@@QAE_JXZ 004d3e40 f   SOVillage_GovernmentStructure.obj
 0001:000d3010       ?GetGainingsMoney@SOVillage_Government@@QAE_JXZ 004d4010 f   SOVillage_GovernmentStructure.obj
 0001:000d3060       ?GetInvestmentMinPercent@SOVillage_Government@@QAEHXZ 004d4060 f   SOVillage_GovernmentStructure.obj
 0001:000d30a0       ?GetInvestmentMaxPercent@SOVillage_Government@@QAEHXZ 004d40a0 f   SOVillage_GovernmentStructure.obj
 0001:000d30e0       ?GetBaseInvestment@SOVillage_Government@@QAE_JXZ 004d40e0 f   SOVillage_GovernmentStructure.obj
 0001:000d3130       ?GetDeleteInvestment@SOVillage_Government@@QAE_JXZ 004d4130 f   SOVillage_GovernmentStructure.obj
 0001:000d3170       ?GetNowAllInvestment@SOVillage_Government@@QAE_JXZ 004d4170 f   SOVillage_GovernmentStructure.obj
 0001:000d31c0       ?GetNowAllInvestmentP@SOVillage_Government@@QAE_JH@Z 004d41c0 f   SOVillage_GovernmentStructure.obj
 0001:000d3230       ?GetInvestmentMaxInvestmentorName@SOVillage_Government@@QAEPADXZ 004d4230 f   SOVillage_GovernmentStructure.obj
 0001:000d3290       ?GetInvestmentMaxInvestmentorAccountSlot@SOVillage_Government@@QAEHPAHPAE@Z 004d4290 f   SOVillage_GovernmentStructure.obj
 0001:000d3320       ?GetInvestmentMaxInvestmentorGuild@SOVillage_Government@@QAEIXZ 004d4320 f   SOVillage_GovernmentStructure.obj
 0001:000d3450       ?GetInvestmentMaxInvestmentorMoney@SOVillage_Government@@QAE_JXZ 004d4450 f   SOVillage_GovernmentStructure.obj
 0001:000d34c0       ?CheckInvestmentMaxInvestmentorName@SOVillage_Government@@QAEHPADH@Z 004d44c0 f   SOVillage_GovernmentStructure.obj
 0001:000d3570       ?GetInvestmentDataByID@SOVillage_Government@@QAEPAUstVillageInvestorData@@PAD@Z 004d4570 f   SOVillage_GovernmentStructure.obj
 0001:000d3640       ?WriteDescription@SOVillage_Government@@QAEHPAVSOPlayer@@PAD@Z 004d4640 f   SOVillage_GovernmentStructure.obj
 0001:000d3790       ?GetVillageCapital@SOVillage_Government@@QAEPAUstCapital@@XZ 004d4790 f   SOVillage_GovernmentStructure.obj
 0001:000d37d0       ?SendVillageReqMaxVillageDefenceInvestment@SOVillage_Government@@QAEXPAVSOPlayer@@@Z 004d47d0 f   SOVillage_GovernmentStructure.obj
 0001:000d38e0       ?SendVillageReqSetVillageDefenceInvestment@SOVillage_Government@@QAEXPAVSOPlayer@@_J@Z 004d48e0 f   SOVillage_GovernmentStructure.obj
 0001:000d3d70       ?InvestmentGetOut@SOVillage_Government@@QAEHPAVSOPlayer@@_J@Z 004d4d70 f   SOVillage_GovernmentStructure.obj
 0001:000d41d0       ?InvestmentGetOutF@SOVillage_Government@@QAEEXZ 004d51d0 f   SOVillage_GovernmentStructure.obj
 0001:000d4200       ?InvestmentGetOutTexP@SOVillage_Government@@QAEEXZ 004d5200 f   SOVillage_GovernmentStructure.obj
 0001:000d4230       ?CheckBestInvestment@SOVillage_Government@@QAEHPAD_J@Z 004d5230 f   SOVillage_GovernmentStructure.obj
 0001:000d4660       ?GetOldBestInvestIndex@SOVillage_Government@@QAEHXZ 004d5660 f   SOVillage_GovernmentStructure.obj
 0001:000d46a0       ?DelInvestMoney@SOVillage_Government@@QAE_JIGH@Z 004d56a0 f   SOVillage_GovernmentStructure.obj
 0001:000d4ac0       ??0SOVillage_Hospital@@QAE@XZ 004d5ac0 f   SOVillage_HospitalStructure.obj
 0001:000d4b30       ??_ESOVillage_Hospital@@UAEPAXI@Z 004d5b30 f i SOVillage_HospitalStructure.obj
 0001:000d4b30       ??_GSOVillage_Hospital@@UAEPAXI@Z 004d5b30 f i SOVillage_HospitalStructure.obj
 0001:000d4ba0       ??1SOVillage_Hospital@@UAE@XZ 004d5ba0 f   SOVillage_HospitalStructure.obj
 0001:000d4c40       ?Init@SOVillage_Hospital@@QAEHGKPAVSOVillage@@@Z 004d5c40 f   SOVillage_HospitalStructure.obj
 0001:000d4cb0       ?Free@SOVillage_Hospital@@UAEXXZ 004d5cb0 f   SOVillage_HospitalStructure.obj
 0001:000d4d10       ?HospitalGetCureList@SOVillage_Hospital@@QAEHPAVSOPlayer@@@Z 004d5d10 f   SOVillage_HospitalStructure.obj
 0001:000d4f90       ?HospitalCureSolder@SOVillage_Hospital@@QAEHPAVSOPlayer@@E@Z 004d5f90 f   SOVillage_HospitalStructure.obj
 0001:000d56a0       ?HospitalCureAllSolder@SOVillage_Hospital@@QAEHPAVSOPlayer@@@Z 004d66a0 f   SOVillage_HospitalStructure.obj
 0001:000d5ee0       ?HospitalGetCureMoney@SOVillage_Hospital@@QAEHPAVSOPlayer@@EH@Z 004d6ee0 f   SOVillage_HospitalStructure.obj
 0001:000d6130       ?HospitalGetRevivalMoney@SOVillage_Hospital@@QAEHPAVSOPlayer@@EH@Z 004d7130 f   SOVillage_HospitalStructure.obj
 0001:000d6420       ?InitStaticVariable@SOVillage_IndustrialComplex@@SAXPAVCItem@@PAVSODatabase@@PAVOnlineBuilding@@@Z 004d7420 f   SOVillage_IndustrialComplex.obj
 0001:000d6470       ??0SOVillage_IndustrialComplex@@QAE@XZ 004d7470 f   SOVillage_IndustrialComplex.obj
 0001:000d6520       ??1SOVillage_IndustrialComplex@@QAE@XZ 004d7520 f   SOVillage_IndustrialComplex.obj
 0001:000d65c0       ?Init@SOVillage_IndustrialComplex@@QAEXHG@Z 004d75c0 f   SOVillage_IndustrialComplex.obj
 0001:000d66b0       ?InitIndustrialComplex@SOVillage_IndustrialComplex@@QAEXXZ 004d76b0 f   SOVillage_IndustrialComplex.obj
 0001:000d6790       ?Free@SOVillage_IndustrialComplex@@QAEXXZ 004d7790 f   SOVillage_IndustrialComplex.obj
 0001:000d6820       ?GetFactory@SOVillage_IndustrialComplex@@QAEPAVSOVillage_IndustrialComplex_Factory@@H@Z 004d7820 f   SOVillage_IndustrialComplex.obj
 0001:000d6890       ?GetFactoryConstructed@SOVillage_IndustrialComplex@@QAEPAVSOVillage_IndustrialComplex_Factory@@H@Z 004d7890 f   SOVillage_IndustrialComplex.obj
 0001:000d6910       ?GetEnteredFactory@SOVillage_IndustrialComplex@@QAEPAVSOVillage_IndustrialComplex_Factory@@PAVSOPlayer@@@Z 004d7910 f   SOVillage_IndustrialComplex.obj
 0001:000d69b0       ?GetEnteredFactoryIndex@SOVillage_IndustrialComplex@@QAEHPAVSOPlayer@@@Z 004d79b0 f   SOVillage_IndustrialComplex.obj
 0001:000d6a40       ?IsValidFactoryID@SOVillage_IndustrialComplex@@QAEHH@Z 004d7a40 f   SOVillage_IndustrialComplex.obj
 0001:000d6a90       ?EnterPlayer@SOVillage_IndustrialComplex@@QAEHPAVSOPlayer@@@Z 004d7a90 f   SOVillage_IndustrialComplex.obj
 0001:000d6b70       ?LeavePlayer@SOVillage_IndustrialComplex@@QAEHPAVSOPlayer@@@Z 004d7b70 f   SOVillage_IndustrialComplex.obj
 0001:000d6be0       ?GetInfo@SOVillage_IndustrialComplex@@QAEKPAUOnFarmSlotList@@PAH@Z 004d7be0 f   SOVillage_IndustrialComplex.obj
 0001:000d6ca0       ?GetInfo@SOVillage_IndustrialComplex@@QAEKPAUOnIndustrialComplexInfo@@@Z 004d7ca0 f   SOVillage_IndustrialComplex.obj
 0001:000d6e50       ?HasOwner@SOVillage_IndustrialComplex@@QAEHXZ 004d7e50 f   SOVillage_IndustrialComplex.obj
 0001:000d6ea0       ?InitFromDB@SOVillage_IndustrialComplex@@QAEXHEPADHH@Z 004d7ea0 f   SOVillage_IndustrialComplex.obj
 0001:000d6f40       ?InitStorageFromDB@SOVillage_IndustrialComplex@@QAEHHE_JIGGGGGGGGGGGGGGGGGGGG@Z 004d7f40 f   SOVillage_IndustrialComplex.obj
 0001:000d7040       ?InitFactoryFromDB@SOVillage_IndustrialComplex@@QAEHHE_JIQADGII@Z 004d8040 f   SOVillage_IndustrialComplex.obj
 0001:000d70d0       ?SellFactory@SOVillage_IndustrialComplex@@QAEHPAVSOPlayer@@H@Z 004d80d0 f   SOVillage_IndustrialComplex.obj
 0001:000d7140       ?GetOwner@SOVillage_IndustrialComplex@@QAEHPAHPAE@Z 004d8140 f   SOVillage_IndustrialComplex.obj
 0001:000d71c0       ?IsPlayerIn@SOVillage_IndustrialComplex@@QAEHPAVSOPlayer@@@Z 004d81c0 f   SOVillage_IndustrialComplex.obj
 0001:000d7220       ?FinishWork@SOVillage_IndustrialComplex@@QAEHPAVSOPlayer@@PAUOnReqFarmWorkMsg@@@Z 004d8220 f   SOVillage_IndustrialComplex.obj
 0001:000d72c0       ?GetFactoryPlayerIn@SOVillage_IndustrialComplex@@AAEPAVSOVillage_IndustrialComplex_Factory@@PAVSOPlayer@@@Z 004d82c0 f   SOVillage_IndustrialComplex.obj
 0001:000d7360       ?IsMaterialItemEnoughToProduce@SOVillage_IndustrialComplex@@AAEHGI@Z 004d8360 f   SOVillage_IndustrialComplex.obj
 0001:000d7520       ?IsMaterialToolEnoughToProduce@SOVillage_IndustrialComplex@@AAEHG@Z 004d8520 f   SOVillage_IndustrialComplex.obj
 0001:000d7690       ?DeleteMaterialItem@SOVillage_IndustrialComplex@@AAEHGI@Z 004d8690 f   SOVillage_IndustrialComplex.obj
 0001:000d7880       ?DestroyToolItemRandomly@SOVillage_IndustrialComplex@@AAEHG@Z 004d8880 f   SOVillage_IndustrialComplex.obj
 0001:000d7a20       ?BuyIndustrialComplex@SOVillage_IndustrialComplex@@QAEHPAVSOPlayer@@H@Z 004d8a20 f   SOVillage_IndustrialComplex.obj
 0001:000d7ae0       ?Reclamation@SOVillage_IndustrialComplex@@QAEHPAVSOPlayer@@H@Z 004d8ae0 f   SOVillage_IndustrialComplex.obj
 0001:000d7be0       ?IsOwner@SOVillage_IndustrialComplex@@QAEHPAVSOPlayer@@@Z 004d8be0 f   SOVillage_IndustrialComplex.obj
 0001:000d7c50       ?ChangeOwner@SOVillage_IndustrialComplex@@QAEHPAVSOPlayer@@@Z 004d8c50 f   SOVillage_IndustrialComplex.obj
 0001:000d7ce0       ?ConstructFactory@SOVillage_IndustrialComplex@@QAEHPAVSOPlayer@@HQAD_JPA_J@Z 004d8ce0 f   SOVillage_IndustrialComplex.obj
 0001:000d7d80       ?DestroyFactory@SOVillage_IndustrialComplex@@QAEHPAVSOPlayer@@HPA_J@Z 004d8d80 f   SOVillage_IndustrialComplex.obj
 0001:000d7e00       ?CanWork@SOVillage_IndustrialComplex@@QAEHPAVSOPlayer@@@Z 004d8e00 f   SOVillage_IndustrialComplex.obj
 0001:000d7e70       ?CanWork@SOVillage_IndustrialComplex@@QAEHPAVSOVillage_IndustrialComplex_Factory@@@Z 004d8e70 f   SOVillage_IndustrialComplex.obj
 0001:000d7f50       ?EnterFactory@SOVillage_IndustrialComplex@@QAEHPAVSOPlayer@@H@Z 004d8f50 f   SOVillage_IndustrialComplex.obj
 0001:000d7ff0       ?LeaveFactory@SOVillage_IndustrialComplex@@QAEHPAVSOPlayer@@@Z 004d8ff0 f   SOVillage_IndustrialComplex.obj
 0001:000d8060       ?BeginWork@SOVillage_IndustrialComplex@@QAEHPAVSOPlayer@@@Z 004d9060 f   SOVillage_IndustrialComplex.obj
 0001:000d80f0       ?ChangeFactoryPay@SOVillage_IndustrialComplex@@QAEHPAVSOPlayer@@_JPA_J@Z 004d90f0 f   SOVillage_IndustrialComplex.obj
 0001:000d8170       ?CancelWork@SOVillage_IndustrialComplex@@QAEHPAVSOPlayer@@HPA_J@Z 004d9170 f   SOVillage_IndustrialComplex.obj
 0001:000d81f0       ?UpgradeFactory@SOVillage_IndustrialComplex@@QAEHPAVSOPlayer@@H_JPA_J@Z 004d91f0 f   SOVillage_IndustrialComplex.obj
 0001:000d8270       ?ProduceItem@SOVillage_IndustrialComplex@@QAEKPAVSOPlayer@@HGI_JDPA_J@Z 004d9270 f   SOVillage_IndustrialComplex.obj
 0001:000d8380       ?AddItem@SOVillage_IndustrialComplex@@QAEHPAVSOPlayer@@GGH@Z 004d9380 f   SOVillage_IndustrialComplex.obj
 0001:000d8400       ?DeleteItem@SOVillage_IndustrialComplex@@QAEHPAVSOPlayer@@GGH@Z 004d9400 f   SOVillage_IndustrialComplex.obj
 0001:000d8480       ?AddItem@SOVillage_IndustrialComplex@@QAEHGGH@Z 004d9480 f   SOVillage_IndustrialComplex.obj
 0001:000d8550       ?CanAddItem@SOVillage_IndustrialComplex@@QAEHGGPAH0@Z 004d9550 f   SOVillage_IndustrialComplex.obj
 0001:000d8620       ?DestroyIndustrialComplexNotWork@SOVillage_IndustrialComplex@@QAEXPA_J_J@Z 004d9620 f   SOVillage_IndustrialComplex.obj
 0001:000d86e0       ?DayChanged@SOVillage_IndustrialComplex@@QAEXPAVSOPlayer@@_J@Z 004d96e0 f   SOVillage_IndustrialComplex.obj
 0001:000d87d0       ?DoNPCWork@SOVillage_IndustrialComplex@@QAEXI@Z 004d97d0 f   SOVillage_IndustrialComplex.obj
 0001:000d88e0       ?GetTradeInfo@SOVillage_IndustrialComplex@@QAEXPAUOnIndustrialComplexTradeInfo@@@Z 004d98e0 f   SOVillage_IndustrialComplex.obj
 0001:000d8c50       ?GetProducingItemNumber@SOVillage_IndustrialComplex_Factory@@QAEIXZ 004d9c50 f i SOVillage_IndustrialComplex.obj
 0001:000d8c90       ?GetPay@SOVillage_IndustrialComplex_Factory@@QAE_JXZ 004d9c90 f i SOVillage_IndustrialComplex.obj
 0001:000d8cd0       ?GetFactoryKind@SOVillage_IndustrialComplex_Factory@@QAEPBDXZ 004d9cd0 f i SOVillage_IndustrialComplex.obj
 0001:000d8d10       ??0SOVillage_IndustrialComplex_Factory@@QAE@XZ 004d9d10 f   SOVillage_IndustrialComplex_Factory.obj
 0001:000d8e90       ??1SOVillage_IndustrialComplex_Factory@@QAE@XZ 004d9e90 f   SOVillage_IndustrialComplex_Factory.obj
 0001:000d8f20       ?Init@SOVillage_IndustrialComplex_Factory@@QAEXGHH@Z 004d9f20 f   SOVillage_IndustrialComplex_Factory.obj
 0001:000d9030       ?InitFactory@SOVillage_IndustrialComplex_Factory@@QAEXXZ 004da030 f   SOVillage_IndustrialComplex_Factory.obj
 0001:000d9130       ?Free@SOVillage_IndustrialComplex_Factory@@QAEXXZ 004da130 f   SOVillage_IndustrialComplex_Factory.obj
 0001:000d91b0       ?InitWork@SOVillage_IndustrialComplex_Factory@@QAEXXZ 004da1b0 f   SOVillage_IndustrialComplex_Factory.obj
 0001:000d9220       ?EnterPlayer@SOVillage_IndustrialComplex_Factory@@QAEHPAVSOPlayer@@H@Z 004da220 f   SOVillage_IndustrialComplex_Factory.obj
 0001:000d92d0       ?LeavePlayer@SOVillage_IndustrialComplex_Factory@@QAEHPAVSOPlayer@@@Z 004da2d0 f   SOVillage_IndustrialComplex_Factory.obj
 0001:000d93c0       ?GetInfo@SOVillage_IndustrialComplex_Factory@@QAEKPAUOnFarmSlotList@@@Z 004da3c0 f   SOVillage_IndustrialComplex_Factory.obj
 0001:000d9480       ?DidConstructFactory@SOVillage_IndustrialComplex_Factory@@QAEHXZ 004da480 f   SOVillage_IndustrialComplex_Factory.obj
 0001:000d94d0       ?InitStorageFromDB@SOVillage_IndustrialComplex_Factory@@QAEHE_JIGGGGGGGGGGGGGGGGGGGG@Z 004da4d0 f   SOVillage_IndustrialComplex_Factory.obj
 0001:000d96e0       ?InitFactoryFromDB@SOVillage_IndustrialComplex_Factory@@QAEHE_JIQADGII@Z 004da6e0 f   SOVillage_IndustrialComplex_Factory.obj
 0001:000d97f0       ?InitStaticVariable@SOVillage_IndustrialComplex_Factory@@SAXPAVCItem@@PAVSODatabase@@PAVOnlineBuilding@@@Z 004da7f0 f   SOVillage_IndustrialComplex_Factory.obj
 0001:000d9840       ?SellFactory@SOVillage_IndustrialComplex_Factory@@QAEHPAVSOPlayer@@@Z 004da840 f   SOVillage_IndustrialComplex_Factory.obj
 0001:000d9880       ?IsPlayerIn@SOVillage_IndustrialComplex_Factory@@QAEHPAVSOPlayer@@@Z 004da880 f   SOVillage_IndustrialComplex_Factory.obj
 0001:000d98e0       ?FinishWork@SOVillage_IndustrialComplex_Factory@@QAEHPAVSOPlayer@@PAVSOVillage_IndustrialComplex@@PAUOnReqFarmWorkMsg@@@Z 004da8e0 f   SOVillage_IndustrialComplex_Factory.obj
 0001:000d9f90       ?FinishWorkByNPC@SOVillage_IndustrialComplex_Factory@@QAEHPAVSOVillage_IndustrialComplex@@I@Z 004daf90 f   SOVillage_IndustrialComplex_Factory.obj
 0001:000da400       ?LevelUp@SOVillage_IndustrialComplex_Factory@@AAEXPAVSOPlayer@@@Z 004db400 f   SOVillage_IndustrialComplex_Factory.obj
 0001:000da460       ?SendFactoryInfo@SOVillage_IndustrialComplex_Factory@@AAEHPAVSOPlayer@@H@Z 004db460 f   SOVillage_IndustrialComplex_Factory.obj
 0001:000da5c0       ?IsUpgradeCompleted@SOVillage_IndustrialComplex_Factory@@AAEHXZ 004db5c0 f   SOVillage_IndustrialComplex_Factory.obj
 0001:000da610       ?CanWork@SOVillage_IndustrialComplex_Factory@@QAEHXZ 004db610 f   SOVillage_IndustrialComplex_Factory.obj
 0001:000da680       ?IsStorage@SOVillage_IndustrialComplex_Factory@@QAEHXZ 004db680 f   SOVillage_IndustrialComplex_Factory.obj
 0001:000da6c0       ?IsFactory@SOVillage_IndustrialComplex_Factory@@QAEHXZ 004db6c0 f   SOVillage_IndustrialComplex_Factory.obj
 0001:000da700       ?GetAmountOfWork@SOVillage_IndustrialComplex_Factory@@QAEIXZ 004db700 f   SOVillage_IndustrialComplex_Factory.obj
 0001:000da760       ?ConstructFactory@SOVillage_IndustrialComplex_Factory@@QAEHPAVSOPlayer@@HQAD_JPA_J@Z 004db760 f   SOVillage_IndustrialComplex_Factory.obj
 0001:000da9f0       ?DestroyFactory@SOVillage_IndustrialComplex_Factory@@QAEXPAVSOPlayer@@PA_J@Z 004db9f0 f   SOVillage_IndustrialComplex_Factory.obj
 0001:000dab50       ?BeginWork@SOVillage_IndustrialComplex_Factory@@QAEHPAVSOPlayer@@@Z 004dbb50 f   SOVillage_IndustrialComplex_Factory.obj
 0001:000dac10       ?ChangeFactoryPay@SOVillage_IndustrialComplex_Factory@@QAEHPAVSOPlayer@@_JPA_J@Z 004dbc10 f   SOVillage_IndustrialComplex_Factory.obj
 0001:000daec0       ?CancelWork@SOVillage_IndustrialComplex_Factory@@QAEHPAVSOPlayer@@HPA_J@Z 004dbec0 f   SOVillage_IndustrialComplex_Factory.obj
 0001:000db070       ?IsConstructing@SOVillage_IndustrialComplex_Factory@@QAEHXZ 004dc070 f   SOVillage_IndustrialComplex_Factory.obj
 0001:000db0e0       ?IsUpgrading@SOVillage_IndustrialComplex_Factory@@QAEHXZ 004dc0e0 f   SOVillage_IndustrialComplex_Factory.obj
 0001:000db130       ?UpgradeFactory@SOVillage_IndustrialComplex_Factory@@QAEHPAVSOPlayer@@_JPA_J@Z 004dc130 f   SOVillage_IndustrialComplex_Factory.obj
 0001:000db3a0       ?ProduceItem@SOVillage_IndustrialComplex_Factory@@QAEKPAVSOPlayer@@GI_JDPA_J@Z 004dc3a0 f   SOVillage_IndustrialComplex_Factory.obj
 0001:000db6b0       ?GetAmountOfWorkByQuantity@SOVillage_IndustrialComplex_Factory@@AAEIGI@Z 004dc6b0 f   SOVillage_IndustrialComplex_Factory.obj
 0001:000db790       ?GetItemQuantityByAmountOfWork@SOVillage_IndustrialComplex_Factory@@AAEIGPAI@Z 004dc790 f   SOVillage_IndustrialComplex_Factory.obj
 0001:000db860       ?GetItem@SOVillage_IndustrialComplex_Factory@@QAEPAUSTORAGE_ITEM@@GPAH@Z 004dc860 f   SOVillage_IndustrialComplex_Factory.obj
 0001:000db930       ?GetEmptyItem@SOVillage_IndustrialComplex_Factory@@AAEPAUSTORAGE_ITEM@@PAH@Z 004dc930 f   SOVillage_IndustrialComplex_Factory.obj
 0001:000db9e0       ?SetItemInfoToDB@SOVillage_IndustrialComplex_Factory@@AAEXHGG@Z 004dc9e0 f   SOVillage_IndustrialComplex_Factory.obj
 0001:000dba80       ?DelItemInfoToDB@SOVillage_IndustrialComplex_Factory@@AAEXHGG@Z 004dca80 f   SOVillage_IndustrialComplex_Factory.obj
 0001:000dbb20       ?WorkCompleted@SOVillage_IndustrialComplex_Factory@@AAEXPAVSOPlayer@@@Z 004dcb20 f   SOVillage_IndustrialComplex_Factory.obj
 0001:000dbc70       ?HasItem@SOVillage_IndustrialComplex_Factory@@QAEHGG@Z 004dcc70 f   SOVillage_IndustrialComplex_Factory.obj
 0001:000dbd10       ?AddItem@SOVillage_IndustrialComplex_Factory@@QAEHGGH@Z 004dcd10 f   SOVillage_IndustrialComplex_Factory.obj
 0001:000dbe90       ?DeleteItem@SOVillage_IndustrialComplex_Factory@@QAEHGGH@Z 004dce90 f   SOVillage_IndustrialComplex_Factory.obj
 0001:000dbfb0       ?AddItem@SOVillage_IndustrialComplex_Factory@@QAEHPAVSOPlayer@@GGH@Z 004dcfb0 f   SOVillage_IndustrialComplex_Factory.obj
 0001:000dc020       ?DeleteItem@SOVillage_IndustrialComplex_Factory@@QAEHPAVSOPlayer@@GGH@Z 004dd020 f   SOVillage_IndustrialComplex_Factory.obj
 0001:000dc090       ?CanAddItem@SOVillage_IndustrialComplex_Factory@@QAEHGGPAH@Z 004dd090 f   SOVillage_IndustrialComplex_Factory.obj
 0001:000dc180       ?GetProducingItemID@SOVillage_IndustrialComplex_Factory@@QAEGXZ 004dd180 f   SOVillage_IndustrialComplex_Factory.obj
 0001:000dc470       ?GetVillageCode@SOVillage_IndustrialComplex@@QAEIXZ 004dd470 f i SOVillage_IndustrialComplex_Factory.obj
 0001:000dc4b0       ?InitStaticVariable@SOVillage_IndustrialComplexs@@SAXPAVCItem@@PAVSODatabase@@PAVOnlineBuilding@@@Z 004dd4b0 f   SOVillage_IndustrialComplexsStructure.obj
 0001:000dc540       ??0SOVillage_IndustrialComplexs@@QAE@XZ 004dd540 f   SOVillage_IndustrialComplexsStructure.obj
 0001:000dc5f0       ??_ESOVillage_IndustrialComplexs@@UAEPAXI@Z 004dd5f0 f i SOVillage_IndustrialComplexsStructure.obj
 0001:000dc5f0       ??_GSOVillage_IndustrialComplexs@@UAEPAXI@Z 004dd5f0 f i SOVillage_IndustrialComplexsStructure.obj
 0001:000dc660       ??1SOVillage_IndustrialComplexs@@UAE@XZ 004dd660 f   SOVillage_IndustrialComplexsStructure.obj
 0001:000dc710       ?Init@SOVillage_IndustrialComplexs@@QAEHGQAD@Z 004dd710 f   SOVillage_IndustrialComplexsStructure.obj
 0001:000dc820       ?Free@SOVillage_IndustrialComplexs@@UAEXXZ 004dd820 f   SOVillage_IndustrialComplexsStructure.obj
 0001:000dc8a0       ?EnterPlayer@SOVillage_IndustrialComplexs@@QAEHPAVSOPlayer@@H@Z 004dd8a0 f   SOVillage_IndustrialComplexsStructure.obj
 0001:000dc950       ?LeavePlayer@SOVillage_IndustrialComplexs@@UAEHPAVSOPlayer@@@Z 004dd950 f   SOVillage_IndustrialComplexsStructure.obj
 0001:000dc9d0       ?SendIndustrialComplexList@SOVillage_IndustrialComplexs@@QAEHPAVSOPlayer@@@Z 004dd9d0 f   SOVillage_IndustrialComplexsStructure.obj
 0001:000dca90       ?GetFactories@SOVillage_IndustrialComplexs@@QAEPAUstFarmGroup@@XZ 004dda90 f   SOVillage_IndustrialComplexsStructure.obj
 0001:000dcac0       ?CanWork@SOVillage_IndustrialComplexs@@QAEHPAVSOPlayer@@@Z 004ddac0 f   SOVillage_IndustrialComplexsStructure.obj
 0001:000dcb30       ?IsValidIndustrialComplexID@SOVillage_IndustrialComplexs@@QAEHH@Z 004ddb30 f   SOVillage_IndustrialComplexsStructure.obj
 0001:000dcb80       ?GetIndustrialComplex@SOVillage_IndustrialComplexs@@QAEPAVSOVillage_IndustrialComplex@@H@Z 004ddb80 f   SOVillage_IndustrialComplexsStructure.obj
 0001:000dcbf0       ?GetIndustrialComplexOwned@SOVillage_IndustrialComplexs@@QAEPAVSOVillage_IndustrialComplex@@H@Z 004ddbf0 f   SOVillage_IndustrialComplexsStructure.obj
 0001:000dcc70       ?GetOwnIndustrialComplex@SOVillage_IndustrialComplexs@@QAEPAVSOVillage_IndustrialComplex@@PAVSOPlayer@@@Z 004ddc70 f   SOVillage_IndustrialComplexsStructure.obj
 0001:000dcd10       ?GetEnteredIndustrialComplex@SOVillage_IndustrialComplexs@@QAEPAVSOVillage_IndustrialComplex@@PAVSOPlayer@@@Z 004ddd10 f   SOVillage_IndustrialComplexsStructure.obj
 0001:000dcdb0       ?GetEnteredIndustrialComplexIndex@SOVillage_IndustrialComplexs@@QAEHPAVSOPlayer@@@Z 004dddb0 f   SOVillage_IndustrialComplexsStructure.obj
 0001:000dce40       ?GetAllIndustrialComplexInfo@SOVillage_IndustrialComplexs@@AAEKPAUOnIndustrialComplexInfo@@PAI@Z 004dde40 f   SOVillage_IndustrialComplexsStructure.obj
 0001:000dcf00       ?InitIndustrialComplexFromDB@SOVillage_IndustrialComplexs@@QAEHHHEPADHH@Z 004ddf00 f   SOVillage_IndustrialComplexsStructure.obj
 0001:000dcf90       ?InitStorageFromDB@SOVillage_IndustrialComplexs@@QAEHHHE_JIGGGGGGGGGGGGGGGGGGGG@Z 004ddf90 f   SOVillage_IndustrialComplexsStructure.obj
 0001:000dd090       ?InitFactoryFromDB@SOVillage_IndustrialComplexs@@QAEHHHE_JIQADGII@Z 004de090 f   SOVillage_IndustrialComplexsStructure.obj
 0001:000dd130       ?SellFactory@SOVillage_IndustrialComplexs@@QAEHPAVSOPlayer@@H@Z 004de130 f   SOVillage_IndustrialComplexsStructure.obj
 0001:000dd240       ?FinishWork@SOVillage_IndustrialComplexs@@QAEHPAVSOPlayer@@PAUOnReqFarmWorkMsg@@@Z 004de240 f   SOVillage_IndustrialComplexsStructure.obj
 0001:000dd310       ?BuyIndustrialComplex@SOVillage_IndustrialComplexs@@QAEHPAVSOPlayer@@H@Z 004de310 f   SOVillage_IndustrialComplexsStructure.obj
 0001:000dd4e0       ?Reclamation@SOVillage_IndustrialComplexs@@QAEHPAVSOPlayer@@HPA_J@Z 004de4e0 f   SOVillage_IndustrialComplexsStructure.obj
 0001:000dd5d0       ?ConstructFactory@SOVillage_IndustrialComplexs@@QAEHPAVSOPlayer@@HQAD_JPA_J@Z 004de5d0 f   SOVillage_IndustrialComplexsStructure.obj
 0001:000dd6a0       ?EnterFactory@SOVillage_IndustrialComplexs@@QAEHPAVSOPlayer@@H@Z 004de6a0 f   SOVillage_IndustrialComplexsStructure.obj
 0001:000dd710       ?LeaveFactory@SOVillage_IndustrialComplexs@@QAEHPAVSOPlayer@@@Z 004de710 f   SOVillage_IndustrialComplexsStructure.obj
 0001:000dd780       ?BeginWork@SOVillage_IndustrialComplexs@@QAEHPAVSOPlayer@@@Z 004de780 f   SOVillage_IndustrialComplexsStructure.obj
 0001:000dd7f0       ?ChangeFactoryPay@SOVillage_IndustrialComplexs@@QAEHPAVSOPlayer@@_JPA_J@Z 004de7f0 f   SOVillage_IndustrialComplexsStructure.obj
 0001:000dd890       ?CancelWork@SOVillage_IndustrialComplexs@@QAEHPAVSOPlayer@@HPA_J@Z 004de890 f   SOVillage_IndustrialComplexsStructure.obj
 0001:000dd920       ?UpgradeFactory@SOVillage_IndustrialComplexs@@QAEHPAVSOPlayer@@H_JPA_J@Z 004de920 f   SOVillage_IndustrialComplexsStructure.obj
 0001:000dd9c0       ?ProduceItem@SOVillage_IndustrialComplexs@@QAEKPAVSOPlayer@@HGI_JDPA_J@Z 004de9c0 f   SOVillage_IndustrialComplexsStructure.obj
 0001:000dda70       ?AddItem@SOVillage_IndustrialComplexs@@QAEHPAVSOPlayer@@GGH@Z 004dea70 f   SOVillage_IndustrialComplexsStructure.obj
 0001:000ddb10       ?DeleteItem@SOVillage_IndustrialComplexs@@QAEHPAVSOPlayer@@GGH@Z 004deb10 f   SOVillage_IndustrialComplexsStructure.obj
 0001:000ddbb0       ?DestroyFactory@SOVillage_IndustrialComplexs@@QAEHPAVSOPlayer@@HPA_J@Z 004debb0 f   SOVillage_IndustrialComplexsStructure.obj
 0001:000ddc40       ?DayChanged@SOVillage_IndustrialComplexs@@QAEXPAVSOWorld@@I@Z 004dec40 f   SOVillage_IndustrialComplexsStructure.obj
 0001:000de360       ?InitStaticVariable@SOVillage_Market@@SAXPAVCItem@@PAVcltIProfit@@PAVSODatabase@@@Z 004df360 f   SOVillage_MarketStructure.obj
 0001:000de3b0       ??0SOVillage_Market@@QAE@XZ 004df3b0 f   SOVillage_MarketStructure.obj
 0001:000de410       ??_ESOVillage_Market@@UAEPAXI@Z 004df410 f i SOVillage_MarketStructure.obj
 0001:000de410       ??_GSOVillage_Market@@UAEPAXI@Z 004df410 f i SOVillage_MarketStructure.obj
 0001:000de480       ??1SOVillage_Market@@UAE@XZ 004df480 f   SOVillage_MarketStructure.obj
 0001:000de4d0       ?Init@SOVillage_Market@@QAEHGQAIQAH0@Z 004df4d0 f   SOVillage_MarketStructure.obj
 0001:000de6e0       ?Free@SOVillage_Market@@UAEXXZ 004df6e0 f   SOVillage_MarketStructure.obj
 0001:000de730       ?SetItemQuantity@SOVillage_Market@@QAEHGG@Z 004df730 f   SOVillage_MarketStructure.obj
 0001:000de7a0       ?GetItemQuantity@SOVillage_Market@@QAEHGPAG@Z 004df7a0 f   SOVillage_MarketStructure.obj
 0001:000de820       ?FindItem@SOVillage_Market@@QAEPAUMARKET_ITEM@@G@Z 004df820 f   SOVillage_MarketStructure.obj
 0001:000de8c0       ?GetItemID@SOVillage_Market@@QAEHHPAG@Z 004df8c0 f   SOVillage_MarketStructure.obj
 0001:000de960       ?IsValidItemIndex@SOVillage_Market@@AAEHH@Z 004df960 f   SOVillage_MarketStructure.obj
 0001:000de9b0       ?UpdateAllItemsPrice@SOVillage_Market@@QAEHXZ 004df9b0 f   SOVillage_MarketStructure.obj
 0001:000dea60       ?UpdateItemPrice@SOVillage_Market@@QAEHGPA_J@Z 004dfa60 f   SOVillage_MarketStructure.obj
 0001:000deb20       ?IncreaseItemQuantity@SOVillage_Market@@QAEHGGH@Z 004dfb20 f   SOVillage_MarketStructure.obj
 0001:000dec50       ?DecreaseItemQuantity@SOVillage_Market@@QAEHGGH@Z 004dfc50 f   SOVillage_MarketStructure.obj
 0001:000ded60       ?GetSellItemList@SOVillage_Market@@QAEFPAUOnlineReceivedItemInfo@@@Z 004dfd60 f   SOVillage_MarketStructure.obj
 0001:000dee90       ?GetItemBasePrice@SOVillage_Market@@QAEHGPA_J@Z 004dfe90 f   SOVillage_MarketStructure.obj
 0001:000def10       ?GetBuyItemPrice@SOVillage_Market@@QAEHGHPA_J@Z 004dff10 f   SOVillage_MarketStructure.obj
 0001:000deff0       ?GetSellItemPrice@SOVillage_Market@@QAEHGHPA_J@Z 004dfff0 f   SOVillage_MarketStructure.obj
 0001:000df0d0       ?GetBuySellItemPrice@SOVillage_Market@@QAEHGPA_J0@Z 004e00d0 f   SOVillage_MarketStructure.obj
 0001:000df170       ?SendChangedItemInfogMsgToPlayer@SOVillage_Market@@QAEXGG_J@Z 004e0170 f   SOVillage_MarketStructure.obj
 0001:000df1e0       ?UpdateItemInfoInDB@SOVillage_Market@@QAEXGG@Z 004e01e0 f   SOVillage_MarketStructure.obj
 0001:000df260       ?ProcessProduceReduceItem@SOVillage_Market@@QAEXI@Z 004e0260 f   SOVillage_MarketStructure.obj
 0001:000df700       ?BuyItem@SOVillage_Market@@QAEKPAVSOPlayer@@EGGFHPA_J1@Z 004e0700 f   SOVillage_MarketStructure.obj
 0001:000df840       ?SellItem@SOVillage_Market@@QAEKPAVSOPlayer@@EGGHPA_J1@Z 004e0840 f   SOVillage_MarketStructure.obj
 0001:000dfc20       ??0SOVillage_Wharf@@QAE@XZ 004e0c20 f   SOVillage_WharfStructure.obj
 0001:000dfca0       ??_GSOVillage_Wharf@@UAEPAXI@Z 004e0ca0 f i SOVillage_WharfStructure.obj
 0001:000dfca0       ??_ESOVillage_Wharf@@UAEPAXI@Z 004e0ca0 f i SOVillage_WharfStructure.obj
 0001:000dfd10       ??1SOVillage_Wharf@@UAE@XZ 004e0d10 f   SOVillage_WharfStructure.obj
 0001:000dfdb0       ?Init@SOVillage_Wharf@@QAEHGKPAVSOVillage@@@Z 004e0db0 f   SOVillage_WharfStructure.obj
 0001:000dfff0       ??0stWharfData@@QAE@XZ     004e0ff0 f i SOVillage_WharfStructure.obj
 0001:000e0090       ?Free@SOVillage_Wharf@@UAEXXZ 004e1090 f   SOVillage_WharfStructure.obj
 0001:000e0150       ??_GstWharfData@@QAEPAXI@Z 004e1150 f i SOVillage_WharfStructure.obj
 0001:000e01c0       ??1stWharfData@@QAE@XZ     004e11c0 f i SOVillage_WharfStructure.obj
 0001:000e0260       ?WharfEnter@SOVillage_Wharf@@QAEHPAVSOPlayer@@@Z 004e1260 f   SOVillage_WharfStructure.obj
 0001:000e04e0       ?WharfBuyTicket@SOVillage_Wharf@@QAEHPAVSOPlayer@@H@Z 004e14e0 f   SOVillage_WharfStructure.obj
 0001:000e08e0       ?WharfExit@SOVillage_Wharf@@QAEHPAVSOPlayer@@@Z 004e18e0 f   SOVillage_WharfStructure.obj
 0001:000e0980       ?WharfWaitRoomEnter@SOVillage_Wharf@@QAEHPAVSOPlayer@@@Z 004e1980 f   SOVillage_WharfStructure.obj
 0001:000e0ae0       ?WharfWaitRoomExit@SOVillage_Wharf@@QAEHPAVSOPlayer@@@Z 004e1ae0 f   SOVillage_WharfStructure.obj
 0001:000e0b90       ??0?$SStack@G@@QAE@XZ      004e1b90 f i SOVillage_WharfStructure.obj
 0001:000e0c00       ??1?$SStack@G@@UAE@XZ      004e1c00 f i SOVillage_WharfStructure.obj
 0001:000e0c50       ?Create@?$SStack@G@@QAEHH@Z 004e1c50 f i SOVillage_WharfStructure.obj
 0001:000e0ce0       ?Add@?$SStack@G@@QAEHG@Z   004e1ce0 f i SOVillage_WharfStructure.obj
 0001:000e0d80       ?DeleteType@?$SStack@G@@QAEHG@Z 004e1d80 f i SOVillage_WharfStructure.obj
 0001:000e0e20       ??_G?$SStack@G@@UAEPAXI@Z  004e1e20 f i SOVillage_WharfStructure.obj
 0001:000e0e20       ??_E?$SStack@G@@UAEPAXI@Z  004e1e20 f i SOVillage_WharfStructure.obj
 0001:000e0e90       ?Release@?$SStack@G@@QAEXXZ 004e1e90 f i SOVillage_WharfStructure.obj
 0001:000e0f20       ?Delete@?$SStack@G@@QAEHH@Z 004e1f20 f i SOVillage_WharfStructure.obj
 0001:000e1280       ??0CSmith@@QAE@PAVSOWorld@@@Z 004e2280 f   Smith.obj
 0001:000e12c0       ??1CSmith@@QAE@XZ          004e22c0 f   Smith.obj
 0001:000e12f0       ?RecvSmithItem@CSmith@@SAXPAVSOPlayer@@GG@Z 004e22f0 f   Smith.obj
 0001:000e1980       ?connect_send@@YGIPAX@Z    004e2980 f   JWConnect.obj
 0001:000e1b90       ?connect_run@@YGIPAX@Z     004e2b90 f   JWConnect.obj
 0001:000e1c60       ?process_state_attempting@JWConnect@@AAEHXZ 004e2c60 f   JWConnect.obj
 0001:000e1f60       ?process_state_established@JWConnect@@AAEHXZ 004e2f60 f   JWConnect.obj
 0001:000e2360       ?IsReadyToSend@JWSendBuffer@@QAEHXZ 004e3360 f i JWConnect.obj
 0001:000e23b0       ?process_state_closed@JWConnect@@AAEHXZ 004e33b0 f   JWConnect.obj
 0001:000e24b0       ??0JWConnect@@QAE@XZ       004e34b0 f   JWConnect.obj
 0001:000e2610       ??_GJWConnect@@UAEPAXI@Z   004e3610 f i JWConnect.obj
 0001:000e2610       ??_EJWConnect@@UAEPAXI@Z   004e3610 f i JWConnect.obj
 0001:000e2680       ??1JWConnect@@UAE@XZ       004e3680 f   JWConnect.obj
 0001:000e2740       ?InitConnect@JWConnect@@QAEXPADGHH@Z 004e3740 f   JWConnect.obj
 0001:000e28e0       ?Connect@JWConnect@@QAEXXZ 004e38e0 f   JWConnect.obj
 0001:000e2970       ?Stop@JWConnect@@QAEXXZ    004e3970 f   JWConnect.obj
 0001:000e29f0       ?Close@JWConnect@@UAEXXZ   004e39f0 f   JWConnect.obj
 0001:000e2a70       ??0JWFQueueMISO@@QAE@XZ    004e3a70 f   JWFQueueMISO.obj
 0001:000e2af0       ??1JWFQueueMISO@@QAE@XZ    004e3af0 f   JWFQueueMISO.obj
 0001:000e2b70       ?ClearQueue@JWFQueueMISO@@QAEXXZ 004e3b70 f   JWFQueueMISO.obj
 0001:000e2c10       ?CreateQueue@JWFQueueMISO@@QAEXH@Z 004e3c10 f   JWFQueueMISO.obj
 0001:000e2d00       ?Enqueue@JWFQueueMISO@@QAEHK@Z 004e3d00 f   JWFQueueMISO.obj
 0001:000e2e10       ?Dequeue@JWFQueueMISO@@QAEHPAK@Z 004e3e10 f   JWFQueueMISO.obj
 0001:000e2ed0       ?iocpserver_send@@YGIPAX@Z 004e3ed0 f   JWIOCPServer.obj
 0001:000e30b0       ?iocpserver_run@@YGIPAX@Z  004e40b0 f   JWIOCPServer.obj
 0001:000e3370       ??0JWIOCPServer@@QAE@XZ    004e4370 f   JWIOCPServer.obj
 0001:000e33d0       ??_GJWIOCPServer@@UAEPAXI@Z 004e43d0 f i JWIOCPServer.obj
 0001:000e33d0       ??_EJWIOCPServer@@UAEPAXI@Z 004e43d0 f i JWIOCPServer.obj
 0001:000e3440       ??1JWIOCPServer@@UAE@XZ    004e4440 f   JWIOCPServer.obj
 0001:000e34c0       ?InitServer@JWIOCPServer@@UAEXHHH@Z 004e44c0 f   JWIOCPServer.obj
 0001:000e35c0       ?AddClient@JWIOCPServer@@UAEXPAVJWSocket@@PAVJWList@@@Z 004e45c0 f   JWIOCPServer.obj
 0001:000e3760       ?SetFriend@JWObject@@QAEXPAV1@@Z 004e4760 f i JWIOCPServer.obj
 0001:000e37a0       ?DelClient@JWIOCPServer@@UAEXPAVJWSocket@@PAVJWList@@@Z 004e47a0 f   JWIOCPServer.obj
 0001:000e3830       ??0JWList@@QAE@XZ          004e4830 f   JWList.obj
 0001:000e3ad0       ??_GJWList@@UAEPAXI@Z      004e4ad0 f i JWList.obj
 0001:000e3ad0       ??_EJWList@@UAEPAXI@Z      004e4ad0 f i JWList.obj
 0001:000e3b40       ??1JWList@@UAE@XZ          004e4b40 f   JWList.obj
 0001:000e3d00       ?CanPush@JWList@@QAEHXZ    004e4d00 f   JWList.obj
 0001:000e3d40       ?PushFront@JWList@@QAEPAVJWObject@@XZ 004e4d40 f   JWList.obj
 0001:000e3e60       ?PushBack@JWList@@QAEPAVJWObject@@XZ 004e4e60 f   JWList.obj
 0001:000e3f80       ?RemoveFront@JWList@@QAEPAVJWObject@@XZ 004e4f80 f   JWList.obj
 0001:000e40b0       ?RemoveBack@JWList@@QAEPAVJWObject@@XZ 004e50b0 f   JWList.obj
 0001:000e41e0       ?Remove@JWList@@QAEXPAVJWObject@@@Z 004e51e0 f   JWList.obj
 0001:000e42c0       ?RemoveAll@JWList@@QAEXXZ  004e52c0 f   JWList.obj
 0001:000e43d0       ?NewObject@JWList@@QAEPAVJWObject@@PAV2@@Z 004e53d0 f   JWList.obj
 0001:000e4470       ?PushFrontAll@JWList@@QAEIPAV1@@Z 004e5470 f   JWList.obj
 0001:000e4580       ?PushBackAll@JWList@@QAEIPAV1@@Z 004e5580 f   JWList.obj
 0001:000e4690       ?Wait@JWList@@QAEIXZ       004e5690 f   JWList.obj
 0001:000e46f0       ?Wait@JWList@@QAEII@Z      004e56f0 f   JWList.obj
 0001:000e4750       ?Release@JWList@@QAEHXZ    004e5750 f   JWList.obj
 0001:000e47b0       ?listen_run@@YGIPAX@Z      004e57b0 f   JWListen.obj
 0001:000e4b30       ??0JWListen@@QAE@XZ        004e5b30 f   JWListen.obj
 0001:000e4bd0       ??_GJWListen@@UAEPAXI@Z    004e5bd0 f i JWListen.obj
 0001:000e4bd0       ??_EJWListen@@UAEPAXI@Z    004e5bd0 f i JWListen.obj
 0001:000e4c40       ??1JWListen@@UAE@XZ        004e5c40 f   JWListen.obj
 0001:000e4ca0       ?Init@JWListen@@QAEXPAVJWServer@@G@Z 004e5ca0 f   JWListen.obj
 0001:000e4d60       ?SetListenPort@JWListen@@QAEXG@Z 004e5d60 f   JWListen.obj
 0001:000e4e00       ?Start@JWListen@@QAEXXZ    004e5e00 f   JWListen.obj
 0001:000e4e70       ?Stop@JWListen@@QAEXXZ     004e5e70 f   JWListen.obj
 0001:000e4ee0       ?Close@JWListen@@QAEXXZ    004e5ee0 f   JWListen.obj
 0001:000e4f50       ??0JWPacket@@QAE@XZ        004e5f50 f   JWPacket.obj
 0001:000e4f80       ??1JWPacket@@QAE@XZ        004e5f80 f   JWPacket.obj
 0001:000e4fb0       ?SetPacket@JWPacket@@QAEXPAD@Z 004e5fb0 f   JWPacket.obj
 0001:000e5040       ?ClearPacket@JWPacket@@QAEXXZ 004e6040 f   JWPacket.obj
 0001:000e50a0       ?CompletePacket@JWPacket@@QAEXXZ 004e60a0 f   JWPacket.obj
 0001:000e50f0       ?WriteValue@JWPacket@@QAEXPAXH@Z 004e60f0 f   JWPacket.obj
 0001:000e5170       ?WriteString@JWPacket@@QAEXPADH@Z 004e6170 f   JWPacket.obj
 0001:000e5290       ?ReadValue@JWPacket@@QAEHPAXH@Z 004e6290 f   JWPacket.obj
 0001:000e5310       ?ReadString@JWPacket@@QAEHPADH@Z 004e6310 f   JWPacket.obj
 0001:000e5450       ??0JWRecvBuffer@@QAE@XZ    004e6450 f   JWRecvBuffer.obj
 0001:000e5510       ??1JWRecvBuffer@@QAE@XZ    004e6510 f   JWRecvBuffer.obj
 0001:000e5590       ?ClearBuffer@JWRecvBuffer@@QAEXXZ 004e6590 f   JWRecvBuffer.obj
 0001:000e5650       ?CreateRecvBuffer@JWRecvBuffer@@QAEXH@Z 004e6650 f   JWRecvBuffer.obj
 0001:000e5770       ?GetRecvParam@JWRecvBuffer@@QAEXPAPADPAH@Z 004e6770 f   JWRecvBuffer.obj
 0001:000e5880       ?Completion@JWRecvBuffer@@QAEHH@Z 004e6880 f   JWRecvBuffer.obj
 0001:000e5be0       ?GetFirstPacket@JWRecvBuffer@@QAEPADXZ 004e6be0 f   JWRecvBuffer.obj
 0001:000e5d60       ?RemoveFirstPacket@JWRecvBuffer@@QAEXXZ 004e6d60 f   JWRecvBuffer.obj
 0001:000e5e40       ??0JWSendBuffer@@QAE@XZ    004e6e40 f   JWSendBuffer.obj
 0001:000e5eb0       ??1JWSendBuffer@@QAE@XZ    004e6eb0 f   JWSendBuffer.obj
 0001:000e5f30       ?ClearBuffer@JWSendBuffer@@QAEXXZ 004e6f30 f   JWSendBuffer.obj
 0001:000e5fe0       ?CreateSendBuffer@JWSendBuffer@@QAEXH@Z 004e6fe0 f   JWSendBuffer.obj
 0001:000e60d0       ?GetSendParam@JWSendBuffer@@QAEHPAPADPAH@Z 004e70d0 f   JWSendBuffer.obj
 0001:000e61f0       ?Completion@JWSendBuffer@@QAEXH@Z 004e71f0 f   JWSendBuffer.obj
 0001:000e62c0       ?Write@JWSendBuffer@@QAEHPAD@Z 004e72c0 f   JWSendBuffer.obj
 0001:000e6530       ??0JWServer@@QAE@XZ        004e7530 f   JWServer.obj
 0001:000e65a0       ??_GJWServer@@UAEPAXI@Z    004e75a0 f i JWServer.obj
 0001:000e65a0       ??_EJWServer@@UAEPAXI@Z    004e75a0 f i JWServer.obj
 0001:000e6610       ??1JWServer@@UAE@XZ        004e7610 f   JWServer.obj
 0001:000e6790       ??_GJWFQueueMISO@@QAEPAXI@Z 004e7790 f i JWServer.obj
 0001:000e6800       ?InitServer@JWServer@@UAEXHHH@Z 004e7800 f   JWServer.obj
 0001:000e6d10       ?AddClient@JWServer@@UAEXPAVJWSocket@@PAVJWList@@@Z 004e7d10 f i JWServer.obj
 0001:000e6d40       ?DelClient@JWServer@@UAEXPAVJWSocket@@PAVJWList@@@Z 004e7d40 f i JWServer.obj
 0001:000e6d70       ??_EJWSocket@@UAEPAXI@Z    004e7d70 f i JWServer.obj
 0001:000e6e30       ?Accept@JWServer@@UAEHIUsockaddr_in@@@Z 004e7e30 f   JWServer.obj
 0001:000e6ef0       ?UpdateServer@JWServer@@UAEXPAVJWList@@@Z 004e7ef0 f   JWServer.obj
 0001:000e70a0       ?CompleteLogOut@JWServer@@UAEXPAVJWSocket@@@Z 004e80a0 f   JWServer.obj
 0001:000e70f0       ?RequestLogOut@JWServer@@UAEXPAVJWSocket@@@Z 004e80f0 f   JWServer.obj
 0001:000e7140       ??0JWSocketMgr@@QAE@XZ     004e8140 f i JWServer.obj
 0001:000e71a0       ??_EJWSocketMgr@@UAEPAXI@Z 004e81a0 f i JWServer.obj
 0001:000e71a0       ??_GJWSocketMgr@@UAEPAXI@Z 004e81a0 f i JWServer.obj
 0001:000e7210       ??1JWSocketMgr@@UAE@XZ     004e8210 f i JWServer.obj
 0001:000e7260       ?GetNumberOfItems@JWFQueueMISO@@QAEHXZ 004e8260 f i JWServer.obj
 0001:000e72a0       ??0JWSocket@@QAE@XZ        004e82a0 f   JWSocket.obj
 0001:000e7320       ??_GJWSocket@@UAEPAXI@Z    004e8320 f i JWSocket.obj
 0001:000e7390       ??1JWSocket@@UAE@XZ        004e8390 f   JWSocket.obj
 0001:000e74a0       ??_GJWRecvBuffer@@QAEPAXI@Z 004e84a0 f i JWSocket.obj
 0001:000e7510       ??_GJWSendBuffer@@QAEPAXI@Z 004e8510 f i JWSocket.obj
 0001:000e7580       ?CreateSocket@JWSocket@@QAEXHH@Z 004e8580 f   JWSocket.obj
 0001:000e7750       ?SetSocket@JWSocket@@QAEHIUsockaddr_in@@@Z 004e8750 f   JWSocket.obj
 0001:000e77f0       ?CloseSocket@JWSocket@@QAEHXZ 004e87f0 f   JWSocket.obj
 0001:000e78a0       ??0CChallengeMode@@QAE@PAVSOWorld@@@Z 004e88a0 f   ChallengeMode.obj
 0001:000e78e0       ??1CChallengeMode@@QAE@XZ  004e88e0 f   ChallengeMode.obj
 0001:000e7bc0       ?GetInstance@BindJXFile@@SAPAV1@XZ 004e8bc0 f   bindJXFile.obj
 0001:000e7c80       ?openJX@BindJXFile@@QAEHV?$basic_string@DU?$char_traits@D@std@@V?$allocator@D@2@@std@@PAD@Z 004e8c80 f   bindJXFile.obj
 0001:000e7ff0       ?create@BindJXFile@@QAEHPADV?$basic_string@DU?$char_traits@D@std@@V?$allocator@D@2@@std@@@Z 004e8ff0 f   bindJXFile.obj
 0001:000e8140       ?GetFile@BindJXFile@@QAEPAEV?$basic_string@DU?$char_traits@D@std@@V?$allocator@D@2@@std@@AAK@Z 004e9140 f   bindJXFile.obj
 0001:000e8580       ?GetFile@BindJXFile@@QAEPAU_iobuf@@V?$basic_string@DU?$char_traits@D@std@@V?$allocator@D@2@@std@@@Z 004e9580 f   bindJXFile.obj
 0001:000e8850       ?Restoration@BindJXFile@@QAEXXZ 004e9850 f   bindJXFile.obj
 0001:000e8ad0       ?destroy@BindJXFile@@QAEXXZ 004e9ad0 f   bindJXFile.obj
 0001:000e8db0       ??_GBindJXFile@@QAEPAXI@Z  004e9db0 f i bindJXFile.obj
 0001:000e8e20       ??1BindJXFile@@QAE@XZ      004e9e20 f i bindJXFile.obj
 0001:000e8ec0       ?findFile@BindJXFile@@AAEXPAD@Z 004e9ec0 f   bindJXFile.obj
 0001:000e9310       ?makeJxFile@BindJXFile@@AAEXAAV?$basic_string@DU?$char_traits@D@std@@V?$allocator@D@2@@std@@@Z 004ea310 f   bindJXFile.obj
 0001:000e94b0       ?makeJxFile_writeToFile@BindJXFile@@AAEXViterator@?$_Tree@V?$basic_string@DU?$char_traits@D@std@@V?$allocator@D@2@@std@@U?$pair@$$CBV?$basic_string@DU?$char_traits@D@std@@V?$allocator@D@2@@std@@VJXHeader@@@2@U_Kfn@?$map@V?$basic_string@DU?$char_traits@D@std@@V?$allocator@D@2@@std@@VJXHeader@@U?$less@V?$basic_string@DU?$char_traits@D@std@@V?$allocator@D@2@@std@@@2@V?$allocator@VJXHeader@@@2@@2@U?$less@V?$basic_string@DU?$char_traits@D@std@@V?$allocator@D@2@@std@@@2@V?$allocator@VJXHeader@@@2@@std@@@Z 004ea4b0 f   bindJXFile.obj
 0001:000e9850       ?getTotalFileSize@BindJXFile@@AAEJPAU_iobuf@@@Z 004ea850 f   bindJXFile.obj
 0001:000e98e0       ?createFolder@BindJXFile@@AAEXV?$basic_string@DU?$char_traits@D@std@@V?$allocator@D@2@@std@@@Z 004ea8e0 f   bindJXFile.obj
 0001:000e9ab0       ??0?$basic_string@DU?$char_traits@D@std@@V?$allocator@D@2@@std@@QAE@ABV01@@Z 004eaab0 f i bindJXFile.obj
 0001:000e9b30       ??4?$basic_string@DU?$char_traits@D@std@@V?$allocator@D@2@@std@@QAEAAV01@ABV01@@Z 004eab30 f i bindJXFile.obj
 0001:000e9b80       ??4?$basic_string@DU?$char_traits@D@std@@V?$allocator@D@2@@std@@QAEAAV01@PBD@Z 004eab80 f i bindJXFile.obj
 0001:000e9bd0       ?c_str@?$basic_string@DU?$char_traits@D@std@@V?$allocator@D@2@@std@@QBEPBDXZ 004eabd0 f i bindJXFile.obj
 0001:000e9c30       ?size@?$basic_string@DU?$char_traits@D@std@@V?$allocator@D@2@@std@@QBEIXZ 004eac30 f i bindJXFile.obj
 0001:000e9c70       ?empty@?$basic_string@DU?$char_traits@D@std@@V?$allocator@D@2@@std@@QBE_NXZ 004eac70 f i bindJXFile.obj
 0001:000e9cb0       ?begin@?$map@V?$basic_string@DU?$char_traits@D@std@@V?$allocator@D@2@@std@@VJXHeader@@U?$less@V?$basic_string@DU?$char_traits@D@std@@V?$allocator@D@2@@std@@@2@V?$allocator@VJXHeader@@@2@@std@@QAE?AViterator@?$_Tree@V?$basic_string@DU?$char_traits@D@std@@V?$allocator@D@2@@std@@U?$pair@$$CBV?$basic_string@DU?$char_traits@D@std@@V?$allocator@D@2@@std@@VJXHeader@@@2@U_Kfn@?$map@V?$basic_string@DU?$char_traits@D@std@@V?$allocator@D@2@@std@@VJXHeader@@U?$less@V?$basic_string@DU?$char_traits@D@std@@V?$allocator@D@2@@std@@@2@V?$allocator@VJXHeader@@@2@@2@U?$less@V?$basic_string@DU?$char_traits@D@std@@V?$allocator@D@2@@std@@@2@V?$allocator@VJXHeader@@@2@@2@XZ 004eacb0 f i bindJXFile.obj
 0001:000e9d00       ?end@?$map@V?$basic_string@DU?$char_traits@D@std@@V?$allocator@D@2@@std@@VJXHeader@@U?$less@V?$basic_string@DU?$char_traits@D@std@@V?$allocator@D@2@@std@@@2@V?$allocator@VJXHeader@@@2@@std@@QAE?AViterator@?$_Tree@V?$basic_string@DU?$char_traits@D@std@@V?$allocator@D@2@@std@@U?$pair@$$CBV?$basic_string@DU?$char_traits@D@std@@V?$allocator@D@2@@std@@VJXHeader@@@2@U_Kfn@?$map@V?$basic_string@DU?$char_traits@D@std@@V?$allocator@D@2@@std@@VJXHeader@@U?$less@V?$basic_string@DU?$char_traits@D@std@@V?$allocator@D@2@@std@@@2@V?$allocator@VJXHeader@@@2@@2@U?$less@V?$basic_string@DU?$char_traits@D@std@@V?$allocator@D@2@@std@@@2@V?$allocator@VJXHeader@@@2@@2@XZ 004ead00 f i bindJXFile.obj
 0001:000e9d50       ?size@?$map@V?$basic_string@DU?$char_traits@D@std@@V?$allocator@D@2@@std@@VJXHeader@@U?$less@V?$basic_string@DU?$char_traits@D@std@@V?$allocator@D@2@@std@@@2@V?$allocator@VJXHeader@@@2@@std@@QBEIXZ 004ead50 f i bindJXFile.obj
 0001:000e9da0       ?empty@?$map@V?$basic_string@DU?$char_traits@D@std@@V?$allocator@D@2@@std@@VJXHeader@@U?$less@V?$basic_string@DU?$char_traits@D@std@@V?$allocator@D@2@@std@@@2@V?$allocator@VJXHeader@@@2@@std@@QBE_NXZ 004eada0 f i bindJXFile.obj
 0001:000e9df0       ?clear@?$map@V?$basic_string@DU?$char_traits@D@std@@V?$allocator@D@2@@std@@VJXHeader@@U?$less@V?$basic_string@DU?$char_traits@D@std@@V?$allocator@D@2@@std@@@2@V?$allocator@VJXHeader@@@2@@std@@QAEXXZ 004eadf0 f i bindJXFile.obj
 0001:000e9e40       ?equal_range@?$map@V?$basic_string@DU?$char_traits@D@std@@V?$allocator@D@2@@std@@VJXHeader@@U?$less@V?$basic_string@DU?$char_traits@D@std@@V?$allocator@D@2@@std@@@2@V?$allocator@VJXHeader@@@2@@std@@QAE?AU?$pair@Viterator@?$_Tree@V?$basic_string@DU?$char_traits@D@std@@V?$allocator@D@2@@std@@U?$pair@$$CBV?$basic_string@DU?$char_traits@D@std@@V?$allocator@D@2@@std@@VJXHeader@@@2@U_Kfn@?$map@V?$basic_string@DU?$char_traits@D@std@@V?$allocator@D@2@@std@@VJXHeader@@U?$less@V?$basic_string@DU?$char_traits@D@std@@V?$allocator@D@2@@std@@@2@V?$allocator@VJXHeader@@@2@@2@U?$less@V?$basic_string@DU?$char_traits@D@std@@V?$allocator@D@2@@std@@@2@V?$allocator@VJXHeader@@@2@@std@@V123@@2@ABV?$basic_string@DU?$char_traits@D@std@@V?$allocator@D@2@@2@@Z 004eae40 f i bindJXFile.obj
 0001:000e9ea0       ??Citerator@?$_Tree@V?$basic_string@DU?$char_traits@D@std@@V?$allocator@D@2@@std@@U?$pair@$$CBV?$basic_string@DU?$char_traits@D@std@@V?$allocator@D@2@@std@@VJXHeader@@@2@U_Kfn@?$map@V?$basic_string@DU?$char_traits@D@std@@V?$allocator@D@2@@std@@VJXHeader@@U?$less@V?$basic_string@DU?$char_traits@D@std@@V?$allocator@D@2@@std@@@2@V?$allocator@VJXHeader@@@2@@2@U?$less@V?$basic_string@DU?$char_traits@D@std@@V?$allocator@D@2@@std@@@2@V?$allocator@VJXHeader@@@2@@std@@QBEPAU?$pair@$$CBV?$basic_string@DU?$char_traits@D@std@@V?$allocator@D@2@@std@@VJXHeader@@@2@XZ 004eaea0 f i bindJXFile.obj
 0001:000e9ef0       ??Eiterator@?$_Tree@V?$basic_string@DU?$char_traits@D@std@@V?$allocator@D@2@@std@@U?$pair@$$CBV?$basic_string@DU?$char_traits@D@std@@V?$allocator@D@2@@std@@VJXHeader@@@2@U_Kfn@?$map@V?$basic_string@DU?$char_traits@D@std@@V?$allocator@D@2@@std@@VJXHeader@@U?$less@V?$basic_string@DU?$char_traits@D@std@@V?$allocator@D@2@@std@@@2@V?$allocator@VJXHeader@@@2@@2@U?$less@V?$basic_string@DU?$char_traits@D@std@@V?$allocator@D@2@@std@@@2@V?$allocator@VJXHeader@@@2@@std@@QAEAAV012@XZ 004eaef0 f i bindJXFile.obj
 0001:000e9f40       ??9iterator@?$_Tree@V?$basic_string@DU?$char_traits@D@std@@V?$allocator@D@2@@std@@U?$pair@$$CBV?$basic_string@DU?$char_traits@D@std@@V?$allocator@D@2@@std@@VJXHeader@@@2@U_Kfn@?$map@V?$basic_string@DU?$char_traits@D@std@@V?$allocator@D@2@@std@@VJXHeader@@U?$less@V?$basic_string@DU?$char_traits@D@std@@V?$allocator@D@2@@std@@@2@V?$allocator@VJXHeader@@@2@@2@U?$less@V?$basic_string@DU?$char_traits@D@std@@V?$allocator@D@2@@std@@@2@V?$allocator@VJXHeader@@@2@@std@@QBE_NABV012@@Z 004eaf40 f i bindJXFile.obj
 0001:000e9fa0       ?assign@?$basic_string@DU?$char_traits@D@std@@V?$allocator@D@2@@std@@QAEAAV12@ABV12@@Z 004eafa0 f i bindJXFile.obj
 0001:000ea000       ?assign@?$basic_string@DU?$char_traits@D@std@@V?$allocator@D@2@@std@@QAEAAV12@ABV12@II@Z 004eb000 f i bindJXFile.obj
 0001:000ea1e0       ?_Nullstr@?$basic_string@DU?$char_traits@D@std@@V?$allocator@D@2@@std@@CAPBDXZ 004eb1e0 f i bindJXFile.obj
 0001:000ea210       ?begin@?$_Tree@V?$basic_string@DU?$char_traits@D@std@@V?$allocator@D@2@@std@@U?$pair@$$CBV?$basic_string@DU?$char_traits@D@std@@V?$allocator@D@2@@std@@VJXHeader@@@2@U_Kfn@?$map@V?$basic_string@DU?$char_traits@D@std@@V?$allocator@D@2@@std@@VJXHeader@@U?$less@V?$basic_string@DU?$char_traits@D@std@@V?$allocator@D@2@@std@@@2@V?$allocator@VJXHeader@@@2@@2@U?$less@V?$basic_string@DU?$char_traits@D@std@@V?$allocator@D@2@@std@@@2@V?$allocator@VJXHeader@@@2@@std@@QAE?AViterator@12@XZ 004eb210 f i bindJXFile.obj
 0001:000ea270       ?end@?$_Tree@V?$basic_string@DU?$char_traits@D@std@@V?$allocator@D@2@@std@@U?$pair@$$CBV?$basic_string@DU?$char_traits@D@std@@V?$allocator@D@2@@std@@VJXHeader@@@2@U_Kfn@?$map@V?$basic_string@DU?$char_traits@D@std@@V?$allocator@D@2@@std@@VJXHeader@@U?$less@V?$basic_string@DU?$char_traits@D@std@@V?$allocator@D@2@@std@@@2@V?$allocator@VJXHeader@@@2@@2@U?$less@V?$basic_string@DU?$char_traits@D@std@@V?$allocator@D@2@@std@@@2@V?$allocator@VJXHeader@@@2@@std@@QAE?AViterator@12@XZ 004eb270 f i bindJXFile.obj
 0001:000ea2d0       ?size@?$_Tree@V?$basic_string@DU?$char_traits@D@std@@V?$allocator@D@2@@std@@U?$pair@$$CBV?$basic_string@DU?$char_traits@D@std@@V?$allocator@D@2@@std@@VJXHeader@@@2@U_Kfn@?$map@V?$basic_string@DU?$char_traits@D@std@@V?$allocator@D@2@@std@@VJXHeader@@U?$less@V?$basic_string@DU?$char_traits@D@std@@V?$allocator@D@2@@std@@@2@V?$allocator@VJXHeader@@@2@@2@U?$less@V?$basic_string@DU?$char_traits@D@std@@V?$allocator@D@2@@std@@@2@V?$allocator@VJXHeader@@@2@@std@@QBEIXZ 004eb2d0 f i bindJXFile.obj
 0001:000ea310       ?empty@?$_Tree@V?$basic_string@DU?$char_traits@D@std@@V?$allocator@D@2@@std@@U?$pair@$$CBV?$basic_string@DU?$char_traits@D@std@@V?$allocator@D@2@@std@@VJXHeader@@@2@U_Kfn@?$map@V?$basic_string@DU?$char_traits@D@std@@V?$allocator@D@2@@std@@VJXHeader@@U?$less@V?$basic_string@DU?$char_traits@D@std@@V?$allocator@D@2@@std@@@2@V?$allocator@VJXHeader@@@2@@2@U?$less@V?$basic_string@DU?$char_traits@D@std@@V?$allocator@D@2@@std@@@2@V?$allocator@VJXHeader@@@2@@std@@QBE_NXZ 004eb310 f i bindJXFile.obj
 0001:000ea360       ?clear@?$_Tree@V?$basic_string@DU?$char_traits@D@std@@V?$allocator@D@2@@std@@U?$pair@$$CBV?$basic_string@DU?$char_traits@D@std@@V?$allocator@D@2@@std@@VJXHeader@@@2@U_Kfn@?$map@V?$basic_string@DU?$char_traits@D@std@@V?$allocator@D@2@@std@@VJXHeader@@U?$less@V?$basic_string@DU?$char_traits@D@std@@V?$allocator@D@2@@std@@@2@V?$allocator@VJXHeader@@@2@@2@U?$less@V?$basic_string@DU?$char_traits@D@std@@V?$allocator@D@2@@std@@@2@V?$allocator@VJXHeader@@@2@@std@@QAEXXZ 004eb360 f i bindJXFile.obj
 0001:000ea3d0       ?erase@?$_Tree@V?$basic_string@DU?$char_traits@D@std@@V?$allocator@D@2@@std@@U?$pair@$$CBV?$basic_string@DU?$char_traits@D@std@@V?$allocator@D@2@@std@@VJXHeader@@@2@U_Kfn@?$map@V?$basic_string@DU?$char_traits@D@std@@V?$allocator@D@2@@std@@VJXHeader@@U?$less@V?$basic_string@DU?$char_traits@D@std@@V?$allocator@D@2@@std@@@2@V?$allocator@VJXHeader@@@2@@2@U?$less@V?$basic_string@DU?$char_traits@D@std@@V?$allocator@D@2@@std@@@2@V?$allocator@VJXHeader@@@2@@std@@QAE?AViterator@12@V312@0@Z 004eb3d0 f i bindJXFile.obj
 0001:000ea530       ?equal_range@?$_Tree@V?$basic_string@DU?$char_traits@D@std@@V?$allocator@D@2@@std@@U?$pair@$$CBV?$basic_string@DU?$char_traits@D@std@@V?$allocator@D@2@@std@@VJXHeader@@@2@U_Kfn@?$map@V?$basic_string@DU?$char_traits@D@std@@V?$allocator@D@2@@std@@VJXHeader@@U?$less@V?$basic_string@DU?$char_traits@D@std@@V?$allocator@D@2@@std@@@2@V?$allocator@VJXHeader@@@2@@2@U?$less@V?$basic_string@DU?$char_traits@D@std@@V?$allocator@D@2@@std@@@2@V?$allocator@VJXHeader@@@2@@std@@QAE?AU?$pair@Viterator@?$_Tree@V?$basic_string@DU?$char_traits@D@std@@V?$allocator@D@2@@std@@U?$pair@$$CBV?$basic_string@DU?$char_traits@D@std@@V?$allocator@D@2@@std@@VJXHeader@@@2@U_Kfn@?$map@V?$basic_string@DU?$char_traits@D@std@@V?$allocator@D@2@@std@@VJXHeader@@U?$less@V?$basic_string@DU?$char_traits@D@std@@V?$allocator@D@2@@std@@@2@V?$allocator@VJXHeader@@@2@@2@U?$less@V?$basic_string@DU?$char_traits@D@std@@V?$allocator@D@2@@std@@@2@V?$allocator@VJXHeader@@@2@@std@@V123@@2@ABV?$basic_string@DU?$char_traits@D@std@@V?$allocator@D@2@@2@@Z 004eb530 f i bindJXFile.obj
 0001:000ea5b0       ?_Inc@const_iterator@?$_Tree@V?$basic_string@DU?$char_traits@D@std@@V?$allocator@D@2@@std@@U?$pair@$$CBV?$basic_string@DU?$char_traits@D@std@@V?$allocator@D@2@@std@@VJXHeader@@@2@U_Kfn@?$map@V?$basic_string@DU?$char_traits@D@std@@V?$allocator@D@2@@std@@VJXHeader@@U?$less@V?$basic_string@DU?$char_traits@D@std@@V?$allocator@D@2@@std@@@2@V?$allocator@VJXHeader@@@2@@2@U?$less@V?$basic_string@DU?$char_traits@D@std@@V?$allocator@D@2@@std@@@2@V?$allocator@VJXHeader@@@2@@std@@QAEXXZ 004eb5b0 f i bindJXFile.obj
 0001:000ea6a0       ??Diterator@?$_Tree@V?$basic_string@DU?$char_traits@D@std@@V?$allocator@D@2@@std@@U?$pair@$$CBV?$basic_string@DU?$char_traits@D@std@@V?$allocator@D@2@@std@@VJXHeader@@@2@U_Kfn@?$map@V?$basic_string@DU?$char_traits@D@std@@V?$allocator@D@2@@std@@VJXHeader@@U?$less@V?$basic_string@DU?$char_traits@D@std@@V?$allocator@D@2@@std@@@2@V?$allocator@VJXHeader@@@2@@2@U?$less@V?$basic_string@DU?$char_traits@D@std@@V?$allocator@D@2@@std@@@2@V?$allocator@VJXHeader@@@2@@std@@QBEAAU?$pair@$$CBV?$basic_string@DU?$char_traits@D@std@@V?$allocator@D@2@@std@@VJXHeader@@@2@XZ 004eb6a0 f i bindJXFile.obj
 0001:000ea6f0       ??8iterator@?$_Tree@V?$basic_string@DU?$char_traits@D@std@@V?$allocator@D@2@@std@@U?$pair@$$CBV?$basic_string@DU?$char_traits@D@std@@V?$allocator@D@2@@std@@VJXHeader@@@2@U_Kfn@?$map@V?$basic_string@DU?$char_traits@D@std@@V?$allocator@D@2@@std@@VJXHeader@@U?$less@V?$basic_string@DU?$char_traits@D@std@@V?$allocator@D@2@@std@@@2@V?$allocator@VJXHeader@@@2@@2@U?$less@V?$basic_string@DU?$char_traits@D@std@@V?$allocator@D@2@@std@@@2@V?$allocator@VJXHeader@@@2@@std@@QBE_NABV012@@Z 004eb6f0 f i bindJXFile.obj
 0001:000ea740       ?erase@?$basic_string@DU?$char_traits@D@std@@V?$allocator@D@2@@std@@QAEAAV12@II@Z 004eb740 f i bindJXFile.obj
 0001:000ea840       ?move@?$char_traits@D@std@@SAPADPADPBDI@Z 004eb840 f i bindJXFile.obj
 0001:000ea890       ?capacity@?$basic_string@DU?$char_traits@D@std@@V?$allocator@D@2@@std@@QBEIXZ 004eb890 f i bindJXFile.obj
 0001:000ea8d0       ?_Parent@?$_Tree@V?$basic_string@DU?$char_traits@D@std@@V?$allocator@D@2@@std@@U?$pair@$$CBV?$basic_string@DU?$char_traits@D@std@@V?$allocator@D@2@@std@@VJXHeader@@@2@U_Kfn@?$map@V?$basic_string@DU?$char_traits@D@std@@V?$allocator@D@2@@std@@VJXHeader@@U?$less@V?$basic_string@DU?$char_traits@D@std@@V?$allocator@D@2@@std@@@2@V?$allocator@VJXHeader@@@2@@2@U?$less@V?$basic_string@DU?$char_traits@D@std@@V?$allocator@D@2@@std@@@2@V?$allocator@VJXHeader@@@2@@std@@KAAAPAU_Node@12@PAU312@@Z 004eb8d0 f i bindJXFile.obj
 0001:000ea900       ?_Right@?$_Tree@V?$basic_string@DU?$char_traits@D@std@@V?$allocator@D@2@@std@@U?$pair@$$CBV?$basic_string@DU?$char_traits@D@std@@V?$allocator@D@2@@std@@VJXHeader@@@2@U_Kfn@?$map@V?$basic_string@DU?$char_traits@D@std@@V?$allocator@D@2@@std@@VJXHeader@@U?$less@V?$basic_string@DU?$char_traits@D@std@@V?$allocator@D@2@@std@@@2@V?$allocator@VJXHeader@@@2@@2@U?$less@V?$basic_string@DU?$char_traits@D@std@@V?$allocator@D@2@@std@@@2@V?$allocator@VJXHeader@@@2@@std@@KAAAPAU_Node@12@PAU312@@Z 004eb900 f i bindJXFile.obj
 0001:000ea930       ?_Value@?$_Tree@V?$basic_string@DU?$char_traits@D@std@@V?$allocator@D@2@@std@@U?$pair@$$CBV?$basic_string@DU?$char_traits@D@std@@V?$allocator@D@2@@std@@VJXHeader@@@2@U_Kfn@?$map@V?$basic_string@DU?$char_traits@D@std@@V?$allocator@D@2@@std@@VJXHeader@@U?$less@V?$basic_string@DU?$char_traits@D@std@@V?$allocator@D@2@@std@@@2@V?$allocator@VJXHeader@@@2@@2@U?$less@V?$basic_string@DU?$char_traits@D@std@@V?$allocator@D@2@@std@@@2@V?$allocator@VJXHeader@@@2@@std@@KAAAU?$pair@$$CBV?$basic_string@DU?$char_traits@D@std@@V?$allocator@D@2@@std@@VJXHeader@@@2@PAU_Node@12@@Z 004eb930 f i bindJXFile.obj
 0001:000ea960       ?erase@?$_Tree@V?$basic_string@DU?$char_traits@D@std@@V?$allocator@D@2@@std@@U?$pair@$$CBV?$basic_string@DU?$char_traits@D@std@@V?$allocator@D@2@@std@@VJXHeader@@@2@U_Kfn@?$map@V?$basic_string@DU?$char_traits@D@std@@V?$allocator@D@2@@std@@VJXHeader@@U?$less@V?$basic_string@DU?$char_traits@D@std@@V?$allocator@D@2@@std@@@2@V?$allocator@VJXHeader@@@2@@2@U?$less@V?$basic_string@DU?$char_traits@D@std@@V?$allocator@D@2@@std@@@2@V?$allocator@VJXHeader@@@2@@std@@QAE?AViterator@12@V312@@Z 004eb960 f i bindJXFile.obj
 0001:000eb3f0       ?_Freenode@?$_Tree@V?$basic_string@DU?$char_traits@D@std@@V?$allocator@D@2@@std@@U?$pair@$$CBV?$basic_string@DU?$char_traits@D@std@@V?$allocator@D@2@@std@@VJXHeader@@@2@U_Kfn@?$map@V?$basic_string@DU?$char_traits@D@std@@V?$allocator@D@2@@std@@VJXHeader@@U?$less@V?$basic_string@DU?$char_traits@D@std@@V?$allocator@D@2@@std@@@2@V?$allocator@VJXHeader@@@2@@2@U?$less@V?$basic_string@DU?$char_traits@D@std@@V?$allocator@D@2@@std@@@2@V?$allocator@VJXHeader@@@2@@std@@IAEXPAU_Node@12@@Z 004ec3f0 f i bindJXFile.obj
 0001:000eb440       ?deallocate@?$allocator@VJXHeader@@@std@@QAEXPAXI@Z 004ec440 f i bindJXFile.obj
 0001:000eb490       ?lower_bound@?$_Tree@V?$basic_string@DU?$char_traits@D@std@@V?$allocator@D@2@@std@@U?$pair@$$CBV?$basic_string@DU?$char_traits@D@std@@V?$allocator@D@2@@std@@VJXHeader@@@2@U_Kfn@?$map@V?$basic_string@DU?$char_traits@D@std@@V?$allocator@D@2@@std@@VJXHeader@@U?$less@V?$basic_string@DU?$char_traits@D@std@@V?$allocator@D@2@@std@@@2@V?$allocator@VJXHeader@@@2@@2@U?$less@V?$basic_string@DU?$char_traits@D@std@@V?$allocator@D@2@@std@@@2@V?$allocator@VJXHeader@@@2@@std@@QAE?AViterator@12@ABV?$basic_string@DU?$char_traits@D@std@@V?$allocator@D@2@@2@@Z 004ec490 f i bindJXFile.obj
 0001:000eb4f0       ?upper_bound@?$_Tree@V?$basic_string@DU?$char_traits@D@std@@V?$allocator@D@2@@std@@U?$pair@$$CBV?$basic_string@DU?$char_traits@D@std@@V?$allocator@D@2@@std@@VJXHeader@@@2@U_Kfn@?$map@V?$basic_string@DU?$char_traits@D@std@@V?$allocator@D@2@@std@@VJXHeader@@U?$less@V?$basic_string@DU?$char_traits@D@std@@V?$allocator@D@2@@std@@@2@V?$allocator@VJXHeader@@@2@@2@U?$less@V?$basic_string@DU?$char_traits@D@std@@V?$allocator@D@2@@std@@@2@V?$allocator@VJXHeader@@@2@@std@@QAE?AViterator@12@ABV?$basic_string@DU?$char_traits@D@std@@V?$allocator@D@2@@2@@Z 004ec4f0 f i bindJXFile.obj
 0001:000eb550       ?_Erase@?$_Tree@V?$basic_string@DU?$char_traits@D@std@@V?$allocator@D@2@@std@@U?$pair@$$CBV?$basic_string@DU?$char_traits@D@std@@V?$allocator@D@2@@std@@VJXHeader@@@2@U_Kfn@?$map@V?$basic_string@DU?$char_traits@D@std@@V?$allocator@D@2@@std@@VJXHeader@@U?$less@V?$basic_string@DU?$char_traits@D@std@@V?$allocator@D@2@@std@@@2@V?$allocator@VJXHeader@@@2@@2@U?$less@V?$basic_string@DU?$char_traits@D@std@@V?$allocator@D@2@@std@@@2@V?$allocator@VJXHeader@@@2@@std@@IAEXPAU_Node@12@@Z 004ec550 f i bindJXFile.obj
 0001:000eb610       ?_Lmost@?$_Tree@V?$basic_string@DU?$char_traits@D@std@@V?$allocator@D@2@@std@@U?$pair@$$CBV?$basic_string@DU?$char_traits@D@std@@V?$allocator@D@2@@std@@VJXHeader@@@2@U_Kfn@?$map@V?$basic_string@DU?$char_traits@D@std@@V?$allocator@D@2@@std@@VJXHeader@@U?$less@V?$basic_string@DU?$char_traits@D@std@@V?$allocator@D@2@@std@@@2@V?$allocator@VJXHeader@@@2@@2@U?$less@V?$basic_string@DU?$char_traits@D@std@@V?$allocator@D@2@@std@@@2@V?$allocator@VJXHeader@@@2@@std@@IAEAAPAU_Node@12@XZ 004ec610 f i bindJXFile.obj
 0001:000eb660       ?_Min@?$_Tree@V?$basic_string@DU?$char_traits@D@std@@V?$allocator@D@2@@std@@U?$pair@$$CBV?$basic_string@DU?$char_traits@D@std@@V?$allocator@D@2@@std@@VJXHeader@@@2@U_Kfn@?$map@V?$basic_string@DU?$char_traits@D@std@@V?$allocator@D@2@@std@@VJXHeader@@U?$less@V?$basic_string@DU?$char_traits@D@std@@V?$allocator@D@2@@std@@@2@V?$allocator@VJXHeader@@@2@@2@U?$less@V?$basic_string@DU?$char_traits@D@std@@V?$allocator@D@2@@std@@@2@V?$allocator@VJXHeader@@@2@@std@@KAPAU_Node@12@PAU312@@Z 004ec660 f i bindJXFile.obj
 0001:000eb6d0       ?_Rmost@?$_Tree@V?$basic_string@DU?$char_traits@D@std@@V?$allocator@D@2@@std@@U?$pair@$$CBV?$basic_string@DU?$char_traits@D@std@@V?$allocator@D@2@@std@@VJXHeader@@@2@U_Kfn@?$map@V?$basic_string@DU?$char_traits@D@std@@V?$allocator@D@2@@std@@VJXHeader@@U?$less@V?$basic_string@DU?$char_traits@D@std@@V?$allocator@D@2@@std@@@2@V?$allocator@VJXHeader@@@2@@2@U?$less@V?$basic_string@DU?$char_traits@D@std@@V?$allocator@D@2@@std@@@2@V?$allocator@VJXHeader@@@2@@std@@IAEAAPAU_Node@12@XZ 004ec6d0 f i bindJXFile.obj
 0001:000eb720       ?_Root@?$_Tree@V?$basic_string@DU?$char_traits@D@std@@V?$allocator@D@2@@std@@U?$pair@$$CBV?$basic_string@DU?$char_traits@D@std@@V?$allocator@D@2@@std@@VJXHeader@@@2@U_Kfn@?$map@V?$basic_string@DU?$char_traits@D@std@@V?$allocator@D@2@@std@@VJXHeader@@U?$less@V?$basic_string@DU?$char_traits@D@std@@V?$allocator@D@2@@std@@@2@V?$allocator@VJXHeader@@@2@@2@U?$less@V?$basic_string@DU?$char_traits@D@std@@V?$allocator@D@2@@std@@@2@V?$allocator@VJXHeader@@@2@@std@@IAEAAPAU_Node@12@XZ 004ec720 f i bindJXFile.obj
 0001:000eb770       ??0iterator@?$_Tree@V?$basic_string@DU?$char_traits@D@std@@V?$allocator@D@2@@std@@U?$pair@$$CBV?$basic_string@DU?$char_traits@D@std@@V?$allocator@D@2@@std@@VJXHeader@@@2@U_Kfn@?$map@V?$basic_string@DU?$char_traits@D@std@@V?$allocator@D@2@@std@@VJXHeader@@U?$less@V?$basic_string@DU?$char_traits@D@std@@V?$allocator@D@2@@std@@@2@V?$allocator@VJXHeader@@@2@@2@U?$less@V?$basic_string@DU?$char_traits@D@std@@V?$allocator@D@2@@std@@@2@V?$allocator@VJXHeader@@@2@@std@@QAE@PAU_Node@12@@Z 004ec770 f i bindJXFile.obj
 0001:000eb7c0       ??Eiterator@?$_Tree@V?$basic_string@DU?$char_traits@D@std@@V?$allocator@D@2@@std@@U?$pair@$$CBV?$basic_string@DU?$char_traits@D@std@@V?$allocator@D@2@@std@@VJXHeader@@@2@U_Kfn@?$map@V?$basic_string@DU?$char_traits@D@std@@V?$allocator@D@2@@std@@VJXHeader@@U?$less@V?$basic_string@DU?$char_traits@D@std@@V?$allocator@D@2@@std@@@2@V?$allocator@VJXHeader@@@2@@2@U?$less@V?$basic_string@DU?$char_traits@D@std@@V?$allocator@D@2@@std@@@2@V?$allocator@VJXHeader@@@2@@std@@QAE?AV012@H@Z 004ec7c0 f i bindJXFile.obj
 0001:000eb820       ??0?$pair@Viterator@?$_Tree@V?$basic_string@DU?$char_traits@D@std@@V?$allocator@D@2@@std@@U?$pair@$$CBV?$basic_string@DU?$char_traits@D@std@@V?$allocator@D@2@@std@@VJXHeader@@@2@U_Kfn@?$map@V?$basic_string@DU?$char_traits@D@std@@V?$allocator@D@2@@std@@VJXHeader@@U?$less@V?$basic_string@DU?$char_traits@D@std@@V?$allocator@D@2@@std@@@2@V?$allocator@VJXHeader@@@2@@2@U?$less@V?$basic_string@DU?$char_traits@D@std@@V?$allocator@D@2@@std@@@2@V?$allocator@VJXHeader@@@2@@std@@V123@@std@@QAE@ABViterator@?$_Tree@V?$basic_string@DU?$char_traits@D@std@@V?$allocator@D@2@@std@@U?$pair@$$CBV?$basic_string@DU?$char_traits@D@std@@V?$allocator@D@2@@std@@VJXHeader@@@2@U_Kfn@?$map@V?$basic_string@DU?$char_traits@D@std@@V?$allocator@D@2@@std@@VJXHeader@@U?$less@V?$basic_string@DU?$char_traits@D@std@@V?$allocator@D@2@@std@@@2@V?$allocator@VJXHeader@@@2@@2@U?$less@V?$basic_string@DU?$char_traits@D@std@@V?$allocator@D@2@@std@@@2@V?$allocator@VJXHeader@@@2@@1@0@Z 004ec820 f i bindJXFile.obj
 0001:000eb980       ?_Split@?$basic_string@DU?$char_traits@D@std@@V?$allocator@D@2@@std@@AAEXXZ 004ec980 f i bindJXFile.obj
 0001:000ebb40       ??0JXHeader@@QAE@XZ        004ecb40 f i bindJXFile.obj
 0001:000ebb70       ?_Color@?$_Tree@V?$basic_string@DU?$char_traits@D@std@@V?$allocator@D@2@@std@@U?$pair@$$CBV?$basic_string@DU?$char_traits@D@std@@V?$allocator@D@2@@std@@VJXHeader@@@2@U_Kfn@?$map@V?$basic_string@DU?$char_traits@D@std@@V?$allocator@D@2@@std@@VJXHeader@@U?$less@V?$basic_string@DU?$char_traits@D@std@@V?$allocator@D@2@@std@@@2@V?$allocator@VJXHeader@@@2@@2@U?$less@V?$basic_string@DU?$char_traits@D@std@@V?$allocator@D@2@@std@@@2@V?$allocator@VJXHeader@@@2@@std@@KAAAW4_Redbl@12@PAU_Node@12@@Z 004ecb70 f i bindJXFile.obj
 0001:000ebba0       ?create@JXHeader@@QAEXKK@Z 004ecba0 f i bindJXFile.obj
 0001:000ebbf0       ?_Left@?$_Tree@V?$basic_string@DU?$char_traits@D@std@@V?$allocator@D@2@@std@@U?$pair@$$CBV?$basic_string@DU?$char_traits@D@std@@V?$allocator@D@2@@std@@VJXHeader@@@2@U_Kfn@?$map@V?$basic_string@DU?$char_traits@D@std@@V?$allocator@D@2@@std@@VJXHeader@@U?$less@V?$basic_string@DU?$char_traits@D@std@@V?$allocator@D@2@@std@@@2@V?$allocator@VJXHeader@@@2@@2@U?$less@V?$basic_string@DU?$char_traits@D@std@@V?$allocator@D@2@@std@@@2@V?$allocator@VJXHeader@@@2@@std@@KAAAPAU_Node@12@PAU312@@Z 004ecbf0 f i bindJXFile.obj
 0001:000ebc20       ?_Lbound@?$_Tree@V?$basic_string@DU?$char_traits@D@std@@V?$allocator@D@2@@std@@U?$pair@$$CBV?$basic_string@DU?$char_traits@D@std@@V?$allocator@D@2@@std@@VJXHeader@@@2@U_Kfn@?$map@V?$basic_string@DU?$char_traits@D@std@@V?$allocator@D@2@@std@@VJXHeader@@U?$less@V?$basic_string@DU?$char_traits@D@std@@V?$allocator@D@2@@std@@@2@V?$allocator@VJXHeader@@@2@@2@U?$less@V?$basic_string@DU?$char_traits@D@std@@V?$allocator@D@2@@std@@@2@V?$allocator@VJXHeader@@@2@@std@@IBEPAU_Node@12@ABV?$basic_string@DU?$char_traits@D@std@@V?$allocator@D@2@@2@@Z 004ecc20 f i bindJXFile.obj
 0001:000ebcf0       ?GetFileSize@JXHeader@@QAEAAKXZ 004eccf0 f i bindJXFile.obj
 0001:000ebd20       ?GetFilePos@JXHeader@@QAEAAKXZ 004ecd20 f i bindJXFile.obj
 0001:000ebd60       ?GetCompress@JXHeader@@QAEAAKXZ 004ecd60 f i bindJXFile.obj
 0001:000ebda0       ?SetCompressSize@JXHeader@@QAEXAAK@Z 004ecda0 f i bindJXFile.obj
 0001:000ebde0       ??0BindJXFile@@QAE@XZ      004ecde0 f i bindJXFile.obj
 0001:000ebeb0       ??0?$basic_string@DU?$char_traits@D@std@@V?$allocator@D@2@@std@@QAE@ABV?$allocator@D@1@@Z 004eceb0 f i bindJXFile.obj
 0001:000ebf10       ??0?$map@V?$basic_string@DU?$char_traits@D@std@@V?$allocator@D@2@@std@@VJXHeader@@U?$less@V?$basic_string@DU?$char_traits@D@std@@V?$allocator@D@2@@std@@@2@V?$allocator@VJXHeader@@@2@@std@@QAE@ABU?$less@V?$basic_string@DU?$char_traits@D@std@@V?$allocator@D@2@@std@@@1@ABV?$allocator@VJXHeader@@@1@@Z 004ecf10 f i bindJXFile.obj
 0001:000ebf70       ??0?$_Tree@V?$basic_string@DU?$char_traits@D@std@@V?$allocator@D@2@@std@@U?$pair@$$CBV?$basic_string@DU?$char_traits@D@std@@V?$allocator@D@2@@std@@VJXHeader@@@2@U_Kfn@?$map@V?$basic_string@DU?$char_traits@D@std@@V?$allocator@D@2@@std@@VJXHeader@@U?$less@V?$basic_string@DU?$char_traits@D@std@@V?$allocator@D@2@@std@@@2@V?$allocator@VJXHeader@@@2@@2@U?$less@V?$basic_string@DU?$char_traits@D@std@@V?$allocator@D@2@@std@@@2@V?$allocator@VJXHeader@@@2@@std@@QAE@ABU?$less@V?$basic_string@DU?$char_traits@D@std@@V?$allocator@D@2@@std@@@1@_NABV?$allocator@VJXHeader@@@1@@Z 004ecf70 f i bindJXFile.obj
 0001:000ebfe0       ?_Init@?$_Tree@V?$basic_string@DU?$char_traits@D@std@@V?$allocator@D@2@@std@@U?$pair@$$CBV?$basic_string@DU?$char_traits@D@std@@V?$allocator@D@2@@std@@VJXHeader@@@2@U_Kfn@?$map@V?$basic_string@DU?$char_traits@D@std@@V?$allocator@D@2@@std@@VJXHeader@@U?$less@V?$basic_string@DU?$char_traits@D@std@@V?$allocator@D@2@@std@@@2@V?$allocator@VJXHeader@@@2@@2@U?$less@V?$basic_string@DU?$char_traits@D@std@@V?$allocator@D@2@@std@@@2@V?$allocator@VJXHeader@@@2@@std@@IAEXXZ 004ecfe0 f i bindJXFile.obj
 0001:000ec150       ?_Lrotate@?$_Tree@V?$basic_string@DU?$char_traits@D@std@@V?$allocator@D@2@@std@@U?$pair@$$CBV?$basic_string@DU?$char_traits@D@std@@V?$allocator@D@2@@std@@VJXHeader@@@2@U_Kfn@?$map@V?$basic_string@DU?$char_traits@D@std@@V?$allocator@D@2@@std@@VJXHeader@@U?$less@V?$basic_string@DU?$char_traits@D@std@@V?$allocator@D@2@@std@@@2@V?$allocator@VJXHeader@@@2@@2@U?$less@V?$basic_string@DU?$char_traits@D@std@@V?$allocator@D@2@@std@@@2@V?$allocator@VJXHeader@@@2@@std@@IAEXPAU_Node@12@@Z 004ed150 f i bindJXFile.obj
 0001:000ec2f0       ??1?$map@V?$basic_string@DU?$char_traits@D@std@@V?$allocator@D@2@@std@@VJXHeader@@U?$less@V?$basic_string@DU?$char_traits@D@std@@V?$allocator@D@2@@std@@@2@V?$allocator@VJXHeader@@@2@@std@@QAE@XZ 004ed2f0 f i bindJXFile.obj
 0001:000ec340       ??1?$_Tree@V?$basic_string@DU?$char_traits@D@std@@V?$allocator@D@2@@std@@U?$pair@$$CBV?$basic_string@DU?$char_traits@D@std@@V?$allocator@D@2@@std@@VJXHeader@@@2@U_Kfn@?$map@V?$basic_string@DU?$char_traits@D@std@@V?$allocator@D@2@@std@@VJXHeader@@U?$less@V?$basic_string@DU?$char_traits@D@std@@V?$allocator@D@2@@std@@@2@V?$allocator@VJXHeader@@@2@@2@U?$less@V?$basic_string@DU?$char_traits@D@std@@V?$allocator@D@2@@std@@@2@V?$allocator@VJXHeader@@@2@@std@@QAE@XZ 004ed340 f i bindJXFile.obj
 0001:000ec440       ?_Max@?$_Tree@V?$basic_string@DU?$char_traits@D@std@@V?$allocator@D@2@@std@@U?$pair@$$CBV?$basic_string@DU?$char_traits@D@std@@V?$allocator@D@2@@std@@VJXHeader@@@2@U_Kfn@?$map@V?$basic_string@DU?$char_traits@D@std@@V?$allocator@D@2@@std@@VJXHeader@@U?$less@V?$basic_string@DU?$char_traits@D@std@@V?$allocator@D@2@@std@@@2@V?$allocator@VJXHeader@@@2@@2@U?$less@V?$basic_string@DU?$char_traits@D@std@@V?$allocator@D@2@@std@@@2@V?$allocator@VJXHeader@@@2@@std@@KAPAU_Node@12@PAU312@@Z 004ed440 f i bindJXFile.obj
 0001:000ec4b0       ?_Rrotate@?$_Tree@V?$basic_string@DU?$char_traits@D@std@@V?$allocator@D@2@@std@@U?$pair@$$CBV?$basic_string@DU?$char_traits@D@std@@V?$allocator@D@2@@std@@VJXHeader@@@2@U_Kfn@?$map@V?$basic_string@DU?$char_traits@D@std@@V?$allocator@D@2@@std@@VJXHeader@@U?$less@V?$basic_string@DU?$char_traits@D@std@@V?$allocator@D@2@@std@@@2@V?$allocator@VJXHeader@@@2@@2@U?$less@V?$basic_string@DU?$char_traits@D@std@@V?$allocator@D@2@@std@@@2@V?$allocator@VJXHeader@@@2@@std@@IAEXPAU_Node@12@@Z 004ed4b0 f i bindJXFile.obj
 0001:000ec650       ?_Ubound@?$_Tree@V?$basic_string@DU?$char_traits@D@std@@V?$allocator@D@2@@std@@U?$pair@$$CBV?$basic_string@DU?$char_traits@D@std@@V?$allocator@D@2@@std@@VJXHeader@@@2@U_Kfn@?$map@V?$basic_string@DU?$char_traits@D@std@@V?$allocator@D@2@@std@@VJXHeader@@U?$less@V?$basic_string@DU?$char_traits@D@std@@V?$allocator@D@2@@std@@@2@V?$allocator@VJXHeader@@@2@@2@U?$less@V?$basic_string@DU?$char_traits@D@std@@V?$allocator@D@2@@std@@@2@V?$allocator@VJXHeader@@@2@@std@@IBEPAU_Node@12@ABV?$basic_string@DU?$char_traits@D@std@@V?$allocator@D@2@@2@@Z 004ed650 f i bindJXFile.obj
 0001:000ec720       ?_Buynode@?$_Tree@V?$basic_string@DU?$char_traits@D@std@@V?$allocator@D@2@@std@@U?$pair@$$CBV?$basic_string@DU?$char_traits@D@std@@V?$allocator@D@2@@std@@VJXHeader@@@2@U_Kfn@?$map@V?$basic_string@DU?$char_traits@D@std@@V?$allocator@D@2@@std@@VJXHeader@@U?$less@V?$basic_string@DU?$char_traits@D@std@@V?$allocator@D@2@@std@@@2@V?$allocator@VJXHeader@@@2@@2@U?$less@V?$basic_string@DU?$char_traits@D@std@@V?$allocator@D@2@@std@@@2@V?$allocator@VJXHeader@@@2@@std@@IAEPAU_Node@12@PAU312@W4_Redbl@12@@Z 004ed720 f i bindJXFile.obj
 0001:000ec7a0       ?_Destval@?$_Tree@V?$basic_string@DU?$char_traits@D@std@@V?$allocator@D@2@@std@@U?$pair@$$CBV?$basic_string@DU?$char_traits@D@std@@V?$allocator@D@2@@std@@VJXHeader@@@2@U_Kfn@?$map@V?$basic_string@DU?$char_traits@D@std@@V?$allocator@D@2@@std@@VJXHeader@@U?$less@V?$basic_string@DU?$char_traits@D@std@@V?$allocator@D@2@@std@@@2@V?$allocator@VJXHeader@@@2@@2@U?$less@V?$basic_string@DU?$char_traits@D@std@@V?$allocator@D@2@@std@@@2@V?$allocator@VJXHeader@@@2@@std@@IAEXPAU?$pair@$$CBV?$basic_string@DU?$char_traits@D@std@@V?$allocator@D@2@@std@@VJXHeader@@@2@@Z 004ed7a0 f i bindJXFile.obj
 0001:000ec7f0       ??0const_iterator@?$_Tree@V?$basic_string@DU?$char_traits@D@std@@V?$allocator@D@2@@std@@U?$pair@$$CBV?$basic_string@DU?$char_traits@D@std@@V?$allocator@D@2@@std@@VJXHeader@@@2@U_Kfn@?$map@V?$basic_string@DU?$char_traits@D@std@@V?$allocator@D@2@@std@@VJXHeader@@U?$less@V?$basic_string@DU?$char_traits@D@std@@V?$allocator@D@2@@std@@@2@V?$allocator@VJXHeader@@@2@@2@U?$less@V?$basic_string@DU?$char_traits@D@std@@V?$allocator@D@2@@std@@@2@V?$allocator@VJXHeader@@@2@@std@@QAE@PAU_Node@12@@Z 004ed7f0 f i bindJXFile.obj
 0001:000ec830       ?_Mynode@const_iterator@?$_Tree@V?$basic_string@DU?$char_traits@D@std@@V?$allocator@D@2@@std@@U?$pair@$$CBV?$basic_string@DU?$char_traits@D@std@@V?$allocator@D@2@@std@@VJXHeader@@@2@U_Kfn@?$map@V?$basic_string@DU?$char_traits@D@std@@V?$allocator@D@2@@std@@VJXHeader@@U?$less@V?$basic_string@DU?$char_traits@D@std@@V?$allocator@D@2@@std@@@2@V?$allocator@VJXHeader@@@2@@2@U?$less@V?$basic_string@DU?$char_traits@D@std@@V?$allocator@D@2@@std@@@2@V?$allocator@VJXHeader@@@2@@std@@QBEPAU_Node@23@XZ 004ed830 f i bindJXFile.obj
 0001:000ec870       ??R?$less@V?$basic_string@DU?$char_traits@D@std@@V?$allocator@D@2@@std@@@std@@QBE_NABV?$basic_string@DU?$char_traits@D@std@@V?$allocator@D@2@@1@0@Z 004ed870 f i bindJXFile.obj
 0001:000ec8c0       ?_Charalloc@?$allocator@VJXHeader@@@std@@QAEPADI@Z 004ed8c0 f i bindJXFile.obj
 0001:000ec910       ?_Key@?$_Tree@V?$basic_string@DU?$char_traits@D@std@@V?$allocator@D@2@@std@@U?$pair@$$CBV?$basic_string@DU?$char_traits@D@std@@V?$allocator@D@2@@std@@VJXHeader@@@2@U_Kfn@?$map@V?$basic_string@DU?$char_traits@D@std@@V?$allocator@D@2@@std@@VJXHeader@@U?$less@V?$basic_string@DU?$char_traits@D@std@@V?$allocator@D@2@@std@@@2@V?$allocator@VJXHeader@@@2@@2@U?$less@V?$basic_string@DU?$char_traits@D@std@@V?$allocator@D@2@@std@@@2@V?$allocator@VJXHeader@@@2@@std@@KAABV?$basic_string@DU?$char_traits@D@std@@V?$allocator@D@2@@2@PAU_Node@12@@Z 004ed910 f i bindJXFile.obj
 0001:000ec960       ?_Root@?$_Tree@V?$basic_string@DU?$char_traits@D@std@@V?$allocator@D@2@@std@@U?$pair@$$CBV?$basic_string@DU?$char_traits@D@std@@V?$allocator@D@2@@std@@VJXHeader@@@2@U_Kfn@?$map@V?$basic_string@DU?$char_traits@D@std@@V?$allocator@D@2@@std@@VJXHeader@@U?$less@V?$basic_string@DU?$char_traits@D@std@@V?$allocator@D@2@@std@@@2@V?$allocator@VJXHeader@@@2@@2@U?$less@V?$basic_string@DU?$char_traits@D@std@@V?$allocator@D@2@@std@@@2@V?$allocator@VJXHeader@@@2@@std@@IBEAAPAU_Node@12@XZ 004ed960 f i bindJXFile.obj
 0001:000ec9b0       ??R_Kfn@?$map@V?$basic_string@DU?$char_traits@D@std@@V?$allocator@D@2@@std@@VJXHeader@@U?$less@V?$basic_string@DU?$char_traits@D@std@@V?$allocator@D@2@@std@@@2@V?$allocator@VJXHeader@@@2@@std@@QBEABV?$basic_string@DU?$char_traits@D@std@@V?$allocator@D@2@@2@ABU?$pair@$$CBV?$basic_string@DU?$char_traits@D@std@@V?$allocator@D@2@@std@@VJXHeader@@@2@@Z 004ed9b0 f i bindJXFile.obj
 0001:000ec9f0       ??Hstd@@YA?AV?$basic_string@DU?$char_traits@D@std@@V?$allocator@D@2@@0@ABV10@PBD@Z 004ed9f0 f i bindJXFile.obj
 0001:000ecab0       ??Hstd@@YA?AV?$basic_string@DU?$char_traits@D@std@@V?$allocator@D@2@@0@ABV10@0@Z 004edab0 f i bindJXFile.obj
 0001:000ecb70       ?efficientAddOrUpdata@@YA?AViterator@?$_Tree@V?$basic_string@DU?$char_traits@D@std@@V?$allocator@D@2@@std@@U?$pair@$$CBV?$basic_string@DU?$char_traits@D@std@@V?$allocator@D@2@@std@@VJXHeader@@@2@U_Kfn@?$map@V?$basic_string@DU?$char_traits@D@std@@V?$allocator@D@2@@std@@VJXHeader@@U?$less@V?$basic_string@DU?$char_traits@D@std@@V?$allocator@D@2@@std@@@2@V?$allocator@VJXHeader@@@2@@2@U?$less@V?$basic_string@DU?$char_traits@D@std@@V?$allocator@D@2@@std@@@2@V?$allocator@VJXHeader@@@2@@std@@AAV?$map@V?$basic_string@DU?$char_traits@D@std@@V?$allocator@D@2@@std@@VJXHeader@@U?$less@V?$basic_string@DU?$char_traits@D@std@@V?$allocator@D@2@@std@@@2@V?$allocator@VJXHeader@@@2@@3@AAY0BAE@$$CBDABVJXHeader@@@Z 004edb70 f i bindJXFile.obj
 0001:000ecd70       ??8std@@YA_NABV?$allocator@D@0@0@Z 004edd70 f i bindJXFile.obj
 0001:000ecda0       ?swap@std@@YAXAAW4_Redbl@?$_Tree@V?$basic_string@DU?$char_traits@D@std@@V?$allocator@D@2@@std@@U?$pair@$$CBV?$basic_string@DU?$char_traits@D@std@@V?$allocator@D@2@@std@@VJXHeader@@@2@U_Kfn@?$map@V?$basic_string@DU?$char_traits@D@std@@V?$allocator@D@2@@std@@VJXHeader@@U?$less@V?$basic_string@DU?$char_traits@D@std@@V?$allocator@D@2@@std@@@2@V?$allocator@VJXHeader@@@2@@2@U?$less@V?$basic_string@DU?$char_traits@D@std@@V?$allocator@D@2@@std@@@2@V?$allocator@VJXHeader@@@2@@1@0@Z 004edda0 f i bindJXFile.obj
 0001:000ecdf0       ?_Destroy@std@@YAXPAU?$pair@$$CBV?$basic_string@DU?$char_traits@D@std@@V?$allocator@D@2@@std@@VJXHeader@@@1@@Z 004eddf0 f i bindJXFile.obj
 0001:000ece30       ??Mstd@@YA_NABV?$basic_string@DU?$char_traits@D@std@@V?$allocator@D@2@@0@0@Z 004ede30 f i bindJXFile.obj
 0001:000ece80       ??1?$pair@$$CBV?$basic_string@DU?$char_traits@D@std@@V?$allocator@D@2@@std@@VJXHeader@@@std@@QAE@XZ 004ede80 f i bindJXFile.obj
 0001:000eced0       ??_G?$pair@$$CBV?$basic_string@DU?$char_traits@D@std@@V?$allocator@D@2@@std@@VJXHeader@@@std@@QAEPAXI@Z 004eded0 f i bindJXFile.obj
 0001:000ecf40       ??Y?$basic_string@DU?$char_traits@D@std@@V?$allocator@D@2@@std@@QAEAAV01@ABV01@@Z 004edf40 f i bindJXFile.obj
 0001:000ecf90       ??Y?$basic_string@DU?$char_traits@D@std@@V?$allocator@D@2@@std@@QAEAAV01@PBD@Z 004edf90 f i bindJXFile.obj
 0001:000ecfe0       ?compare@?$basic_string@DU?$char_traits@D@std@@V?$allocator@D@2@@std@@QBEHABV12@@Z 004edfe0 f i bindJXFile.obj
 0001:000ed050       ?insert@?$map@V?$basic_string@DU?$char_traits@D@std@@V?$allocator@D@2@@std@@VJXHeader@@U?$less@V?$basic_string@DU?$char_traits@D@std@@V?$allocator@D@2@@std@@@2@V?$allocator@VJXHeader@@@2@@std@@QAE?AViterator@?$_Tree@V?$basic_string@DU?$char_traits@D@std@@V?$allocator@D@2@@std@@U?$pair@$$CBV?$basic_string@DU?$char_traits@D@std@@V?$allocator@D@2@@std@@VJXHeader@@@2@U_Kfn@?$map@V?$basic_string@DU?$char_traits@D@std@@V?$allocator@D@2@@std@@VJXHeader@@U?$less@V?$basic_string@DU?$char_traits@D@std@@V?$allocator@D@2@@std@@@2@V?$allocator@VJXHeader@@@2@@2@U?$less@V?$basic_string@DU?$char_traits@D@std@@V?$allocator@D@2@@std@@@2@V?$allocator@VJXHeader@@@2@@2@V342@ABU?$pair@$$CBV?$basic_string@DU?$char_traits@D@std@@V?$allocator@D@2@@std@@VJXHeader@@@2@@Z 004ee050 f i bindJXFile.obj
 0001:000ed0b0       ?key_comp@?$map@V?$basic_string@DU?$char_traits@D@std@@V?$allocator@D@2@@std@@VJXHeader@@U?$less@V?$basic_string@DU?$char_traits@D@std@@V?$allocator@D@2@@std@@@2@V?$allocator@VJXHeader@@@2@@std@@QBE?AU?$less@V?$basic_string@DU?$char_traits@D@std@@V?$allocator@D@2@@std@@@2@XZ 004ee0b0 f i bindJXFile.obj
 0001:000ed100       ?lower_bound@?$map@V?$basic_string@DU?$char_traits@D@std@@V?$allocator@D@2@@std@@VJXHeader@@U?$less@V?$basic_string@DU?$char_traits@D@std@@V?$allocator@D@2@@std@@@2@V?$allocator@VJXHeader@@@2@@std@@QAE?AViterator@?$_Tree@V?$basic_string@DU?$char_traits@D@std@@V?$allocator@D@2@@std@@U?$pair@$$CBV?$basic_string@DU?$char_traits@D@std@@V?$allocator@D@2@@std@@VJXHeader@@@2@U_Kfn@?$map@V?$basic_string@DU?$char_traits@D@std@@V?$allocator@D@2@@std@@VJXHeader@@U?$less@V?$basic_string@DU?$char_traits@D@std@@V?$allocator@D@2@@std@@@2@V?$allocator@VJXHeader@@@2@@2@U?$less@V?$basic_string@DU?$char_traits@D@std@@V?$allocator@D@2@@std@@@2@V?$allocator@VJXHeader@@@2@@2@ABV?$basic_string@DU?$char_traits@D@std@@V?$allocator@D@2@@2@@Z 004ee100 f i bindJXFile.obj
 0001:000ed160       ??0?$pair@$$CBV?$basic_string@DU?$char_traits@D@std@@V?$allocator@D@2@@std@@VJXHeader@@@std@@QAE@ABV?$basic_string@DU?$char_traits@D@std@@V?$allocator@D@2@@1@ABVJXHeader@@@Z 004ee160 f i bindJXFile.obj
 0001:000ed1d0       ?append@?$basic_string@DU?$char_traits@D@std@@V?$allocator@D@2@@std@@QAEAAV12@ABV12@@Z 004ee1d0 f i bindJXFile.obj
 0001:000ed220       ?append@?$basic_string@DU?$char_traits@D@std@@V?$allocator@D@2@@std@@QAEAAV12@PBD@Z 004ee220 f i bindJXFile.obj
 0001:000ed280       ?compare@?$basic_string@DU?$char_traits@D@std@@V?$allocator@D@2@@std@@QBEHIIPBDI@Z 004ee280 f i bindJXFile.obj
 0001:000ed380       ?compare@?$char_traits@D@std@@SAHPBD0I@Z 004ee380 f i bindJXFile.obj
 0001:000ed3d0       ?key_comp@?$_Tree@V?$basic_string@DU?$char_traits@D@std@@V?$allocator@D@2@@std@@U?$pair@$$CBV?$basic_string@DU?$char_traits@D@std@@V?$allocator@D@2@@std@@VJXHeader@@@2@U_Kfn@?$map@V?$basic_string@DU?$char_traits@D@std@@V?$allocator@D@2@@std@@VJXHeader@@U?$less@V?$basic_string@DU?$char_traits@D@std@@V?$allocator@D@2@@std@@@2@V?$allocator@VJXHeader@@@2@@2@U?$less@V?$basic_string@DU?$char_traits@D@std@@V?$allocator@D@2@@std@@@2@V?$allocator@VJXHeader@@@2@@std@@QBE?AU?$less@V?$basic_string@DU?$char_traits@D@std@@V?$allocator@D@2@@std@@@2@XZ 004ee3d0 f i bindJXFile.obj
 0001:000ed420       ?insert@?$_Tree@V?$basic_string@DU?$char_traits@D@std@@V?$allocator@D@2@@std@@U?$pair@$$CBV?$basic_string@DU?$char_traits@D@std@@V?$allocator@D@2@@std@@VJXHeader@@@2@U_Kfn@?$map@V?$basic_string@DU?$char_traits@D@std@@V?$allocator@D@2@@std@@VJXHeader@@U?$less@V?$basic_string@DU?$char_traits@D@std@@V?$allocator@D@2@@std@@@2@V?$allocator@VJXHeader@@@2@@2@U?$less@V?$basic_string@DU?$char_traits@D@std@@V?$allocator@D@2@@std@@@2@V?$allocator@VJXHeader@@@2@@std@@QAE?AViterator@12@V312@ABU?$pair@$$CBV?$basic_string@DU?$char_traits@D@std@@V?$allocator@D@2@@std@@VJXHeader@@@2@@Z 004ee420 f i bindJXFile.obj
 0001:000ed6f0       ?append@?$basic_string@DU?$char_traits@D@std@@V?$allocator@D@2@@std@@QAEAAV12@ABV12@II@Z 004ee6f0 f i bindJXFile.obj
 0001:000ed800       ?append@?$basic_string@DU?$char_traits@D@std@@V?$allocator@D@2@@std@@QAEAAV12@PBDI@Z 004ee800 f i bindJXFile.obj
 0001:000ed8c0       ?_Psum@?$basic_string@DU?$char_traits@D@std@@V?$allocator@D@2@@std@@CAPADPADI@Z 004ee8c0 f i bindJXFile.obj
 0001:000ed910       ?insert@?$_Tree@V?$basic_string@DU?$char_traits@D@std@@V?$allocator@D@2@@std@@U?$pair@$$CBV?$basic_string@DU?$char_traits@D@std@@V?$allocator@D@2@@std@@VJXHeader@@@2@U_Kfn@?$map@V?$basic_string@DU?$char_traits@D@std@@V?$allocator@D@2@@std@@VJXHeader@@U?$less@V?$basic_string@DU?$char_traits@D@std@@V?$allocator@D@2@@std@@@2@V?$allocator@VJXHeader@@@2@@2@U?$less@V?$basic_string@DU?$char_traits@D@std@@V?$allocator@D@2@@std@@@2@V?$allocator@VJXHeader@@@2@@std@@QAE?AU?$pair@Viterator@?$_Tree@V?$basic_string@DU?$char_traits@D@std@@V?$allocator@D@2@@std@@U?$pair@$$CBV?$basic_string@DU?$char_traits@D@std@@V?$allocator@D@2@@std@@VJXHeader@@@2@U_Kfn@?$map@V?$basic_string@DU?$char_traits@D@std@@V?$allocator@D@2@@std@@VJXHeader@@U?$less@V?$basic_string@DU?$char_traits@D@std@@V?$allocator@D@2@@std@@@2@V?$allocator@VJXHeader@@@2@@2@U?$less@V?$basic_string@DU?$char_traits@D@std@@V?$allocator@D@2@@std@@@2@V?$allocator@VJXHeader@@@2@@std@@_N@2@ABU?$pair@$$CBV?$basic_string@DU?$char_traits@D@std@@V?$allocator@D@2@@std@@VJXHeader@@@2@@Z 004ee910 f i bindJXFile.obj
 0001:000edb80       ?_Insert@?$_Tree@V?$basic_string@DU?$char_traits@D@std@@V?$allocator@D@2@@std@@U?$pair@$$CBV?$basic_string@DU?$char_traits@D@std@@V?$allocator@D@2@@std@@VJXHeader@@@2@U_Kfn@?$map@V?$basic_string@DU?$char_traits@D@std@@V?$allocator@D@2@@std@@VJXHeader@@U?$less@V?$basic_string@DU?$char_traits@D@std@@V?$allocator@D@2@@std@@@2@V?$allocator@VJXHeader@@@2@@2@U?$less@V?$basic_string@DU?$char_traits@D@std@@V?$allocator@D@2@@std@@@2@V?$allocator@VJXHeader@@@2@@std@@IAE?AViterator@12@PAU_Node@12@0ABU?$pair@$$CBV?$basic_string@DU?$char_traits@D@std@@V?$allocator@D@2@@std@@VJXHeader@@@2@@Z 004eeb80 f i bindJXFile.obj
 0001:000ee150       ??Fiterator@?$_Tree@V?$basic_string@DU?$char_traits@D@std@@V?$allocator@D@2@@std@@U?$pair@$$CBV?$basic_string@DU?$char_traits@D@std@@V?$allocator@D@2@@std@@VJXHeader@@@2@U_Kfn@?$map@V?$basic_string@DU?$char_traits@D@std@@V?$allocator@D@2@@std@@VJXHeader@@U?$less@V?$basic_string@DU?$char_traits@D@std@@V?$allocator@D@2@@std@@@2@V?$allocator@VJXHeader@@@2@@2@U?$less@V?$basic_string@DU?$char_traits@D@std@@V?$allocator@D@2@@std@@@2@V?$allocator@VJXHeader@@@2@@std@@QAEAAV012@XZ 004ef150 f i bindJXFile.obj
 0001:000ee1a0       ?_Consval@?$_Tree@V?$basic_string@DU?$char_traits@D@std@@V?$allocator@D@2@@std@@U?$pair@$$CBV?$basic_string@DU?$char_traits@D@std@@V?$allocator@D@2@@std@@VJXHeader@@@2@U_Kfn@?$map@V?$basic_string@DU?$char_traits@D@std@@V?$allocator@D@2@@std@@VJXHeader@@U?$less@V?$basic_string@DU?$char_traits@D@std@@V?$allocator@D@2@@std@@@2@V?$allocator@VJXHeader@@@2@@2@U?$less@V?$basic_string@DU?$char_traits@D@std@@V?$allocator@D@2@@std@@@2@V?$allocator@VJXHeader@@@2@@std@@IAEXPAU?$pair@$$CBV?$basic_string@DU?$char_traits@D@std@@V?$allocator@D@2@@std@@VJXHeader@@@2@ABU32@@Z 004ef1a0 f i bindJXFile.obj
 0001:000ee1f0       ?_Dec@const_iterator@?$_Tree@V?$basic_string@DU?$char_traits@D@std@@V?$allocator@D@2@@std@@U?$pair@$$CBV?$basic_string@DU?$char_traits@D@std@@V?$allocator@D@2@@std@@VJXHeader@@@2@U_Kfn@?$map@V?$basic_string@DU?$char_traits@D@std@@V?$allocator@D@2@@std@@VJXHeader@@U?$less@V?$basic_string@DU?$char_traits@D@std@@V?$allocator@D@2@@std@@@2@V?$allocator@VJXHeader@@@2@@2@U?$less@V?$basic_string@DU?$char_traits@D@std@@V?$allocator@D@2@@std@@@2@V?$allocator@VJXHeader@@@2@@std@@QAEXXZ 004ef1f0 f i bindJXFile.obj
 0001:000ee320       ??0?$pair@Viterator@?$_Tree@V?$basic_string@DU?$char_traits@D@std@@V?$allocator@D@2@@std@@U?$pair@$$CBV?$basic_string@DU?$char_traits@D@std@@V?$allocator@D@2@@std@@VJXHeader@@@2@U_Kfn@?$map@V?$basic_string@DU?$char_traits@D@std@@V?$allocator@D@2@@std@@VJXHeader@@U?$less@V?$basic_string@DU?$char_traits@D@std@@V?$allocator@D@2@@std@@@2@V?$allocator@VJXHeader@@@2@@2@U?$less@V?$basic_string@DU?$char_traits@D@std@@V?$allocator@D@2@@std@@@2@V?$allocator@VJXHeader@@@2@@std@@_N@std@@QAE@ABViterator@?$_Tree@V?$basic_string@DU?$char_traits@D@std@@V?$allocator@D@2@@std@@U?$pair@$$CBV?$basic_string@DU?$char_traits@D@std@@V?$allocator@D@2@@std@@VJXHeader@@@2@U_Kfn@?$map@V?$basic_string@DU?$char_traits@D@std@@V?$allocator@D@2@@std@@VJXHeader@@U?$less@V?$basic_string@DU?$char_traits@D@std@@V?$allocator@D@2@@std@@@2@V?$allocator@VJXHeader@@@2@@2@U?$less@V?$basic_string@DU?$char_traits@D@std@@V?$allocator@D@2@@std@@@2@V?$allocator@VJXHeader@@@2@@1@AB_N@Z 004ef320 f i bindJXFile.obj
 0001:000ee370       ?_Construct@std@@YAXPAU?$pair@$$CBV?$basic_string@DU?$char_traits@D@std@@V?$allocator@D@2@@std@@VJXHeader@@@1@ABU21@@Z 004ef370 f i bindJXFile.obj
 0001:000ee420       ??3@YAXPAX0@Z              004ef420 f i bindJXFile.obj
 0001:000ee4e0       ??0?$pair@$$CBV?$basic_string@DU?$char_traits@D@std@@V?$allocator@D@2@@std@@VJXHeader@@@std@@QAE@ABU01@@Z 004ef4e0 f i bindJXFile.obj
 0001:000ee560       _unzStringFileNameCompare@12 004ef560 f   unzip.obj
 0001:000ee6e0       _unzOpen@4                 004ef6e0 f   unzip.obj
 0001:000eeea0       _unzClose@4                004efea0 f   unzip.obj
 0001:000eef30       _unzGetGlobalInfo@8        004eff30 f   unzip.obj
 0001:000eef90       _unzGetCurrentFileInfo@32  004eff90 f   unzip.obj
 0001:000ef640       _unzGoToFirstFile@4        004f0640 f   unzip.obj
 0001:000ef700       _unzGoToNextFile@4         004f0700 f   unzip.obj
 0001:000ef810       _unzLocateFile@12          004f0810 f   unzip.obj
 0001:000ef950       _unzOpenCurrentFile@4      004f0950 f   unzip.obj
 0001:000eff30       _unzReadCurrentFile@12     004f0f30 f   unzip.obj
 0001:000f0300       _unztell@4                 004f1300 f   unzip.obj
 0001:000f0370       _unzeof@4                  004f1370 f   unzip.obj
 0001:000f03f0       _unzGetLocalExtrafield@12  004f13f0 f   unzip.obj
 0001:000f0510       _unzCloseCurrentFile@4     004f1510 f   unzip.obj
 0001:000f0620       _unzGetGlobalComment@12    004f1620 f   unzip.obj
 0001:000f0730       ??0CParty@@QAE@XZ          004f1730 f   IPartyMgr.obj
 0001:000f0790       ??1CParty@@UAE@XZ          004f1790 f   IPartyMgr.obj
 0001:000f07d0       ?Init@CParty@@QAEXG@Z      004f17d0 f   IPartyMgr.obj
 0001:000f0870       ?Create@CParty@@QAEXGPADH@Z 004f1870 f   IPartyMgr.obj
 0001:000f0920       ?Join@CParty@@QAEHGPADH@Z  004f1920 f   IPartyMgr.obj
 0001:000f0a60       ?Leave@CParty@@QAEGG@Z     004f1a60 f   IPartyMgr.obj
 0001:000f0bf0       ?RemoveFromPlayerList@CParty@@IAEXG@Z 004f1bf0 f   IPartyMgr.obj
 0001:000f0cf0       ?TRACE_LOG@@YAXPADZZ       004f1cf0 f i IPartyMgr.obj
 0001:000f0d20       ?GeneratePartyList@CParty@@QAEXPAGPAUOnPartyInfo@@AAH@Z 004f1d20 f   IPartyMgr.obj
 0001:000f0ed0       ?GeneratePartyMemberAccount@CParty@@QAEHPAG@Z 004f1ed0 f   IPartyMgr.obj
 0001:000f1090       ??0IPartyMgr@@QAE@XZ       004f2090 f   IPartyMgr.obj
 0001:000f11d0       ??_EIPartyMgr@@UAEPAXI@Z   004f21d0 f i IPartyMgr.obj
 0001:000f11d0       ??_GIPartyMgr@@UAEPAXI@Z   004f21d0 f i IPartyMgr.obj
 0001:000f1240       ??_ECParty@@UAEPAXI@Z      004f2240 f i IPartyMgr.obj
 0001:000f1300       ??1IPartyMgr@@UAE@XZ       004f2300 f   IPartyMgr.obj
 0001:000f13a0       ?Init@IPartyMgr@@QAEXXZ    004f23a0 f   IPartyMgr.obj
 0001:000f1420       ?Alloc@IPartyMgr@@UAEGXZ   004f2420 f   IPartyMgr.obj
 0001:000f1510       ?Free@IPartyMgr@@UAEXG@Z   004f2510 f   IPartyMgr.obj
 0001:000f15c0       ?Get@IPartyMgr@@UAEPAVCParty@@G@Z 004f25c0 f   IPartyMgr.obj
 0001:000f1640       ?Find@IPartyMgr@@UAEPAVCParty@@PAD@Z 004f2640 f   IPartyMgr.obj
 0001:000f1680       ?clear@_party_member_t@CParty@@QAEXXZ 004f2680 f i IPartyMgr.obj
 0001:000f1700       ?SetUseFlag@CParty@@QAEXH@Z 004f2700 f i IPartyMgr.obj
 0001:000f1740       ??0cltCommand@@QAE@XZ      004f2740 f   Command.obj
 0001:000f1780       ??1cltCommand@@QAE@XZ      004f2780 f   Command.obj
 0001:000f17b0       ?Init@cltCommand@@QAEXPAVSOWorld@@@Z 004f27b0 f   Command.obj
 0001:000f17f0       ?Warp@cltCommand@@QAEHGGHH@Z 004f27f0 f   Command.obj
 0001:000f1a70       ?CreateMonster@cltCommand@@QAEHGPADGG@Z 004f2a70 f   Command.obj
 0001:000f1d30       ?CreateMonsterID@cltCommand@@QAEHGGGG@Z 004f2d30 f   Command.obj
 0001:000f1fc0       ?GiveMoney@cltCommand@@QAEHG_J@Z 004f2fc0 f   Command.obj
 0001:000f21a0       ?GiveItem@cltCommand@@QAEHGPADG@Z 004f31a0 f   Command.obj
 0001:000f2540       ?GiveItemID@cltCommand@@QAEHGGG@Z 004f3540 f   Command.obj
 0001:000f28f0       ?LogOut@cltCommand@@QAEHG@Z 004f38f0 f   Command.obj
 0001:000f2a20       ?Notice@cltCommand@@QAEHPAD@Z 004f3a20 f   Command.obj
 0001:000f2a90       ?SendSMSMsg@cltCommand@@QAEHPAUSMS_REQ_MSG@@@Z 004f3a90 f   Command.obj
 0001:000f2b30       ?Whisper@cltCommand@@QAEHGPAD0@Z 004f3b30 f   Command.obj
 0001:000f2d00       ?GuildNotice@cltCommand@@QAEHIPAD0@Z 004f3d00 f   Command.obj
 0001:000f2d80       ?GetPlayerInfo@cltCommand@@QAEHGG@Z 004f3d80 f   Command.obj
 0001:000f3640       ?IDToAccount@cltCommand@@QAEHGPAD@Z 004f4640 f   Command.obj
 0001:000f3800       ?GetConnectUsersInfo@cltCommand@@QAEHG@Z 004f4800 f   Command.obj
 0001:000f3930       ?GetFPS@cltCommand@@QAEHG@Z 004f4930 f   Command.obj
 0001:000f3b00       ?BonusUp@cltCommand@@QAEHGE@Z 004f4b00 f   Command.obj
 0001:000f3bc0       ?CreditUp@cltCommand@@QAEHGH@Z 004f4bc0 f   Command.obj
 0001:000f3c80       ?ExpUp@cltCommand@@QAEHGEI@Z 004f4c80 f   Command.obj
 0001:000f3d50       ?GetUserMailAddress@cltCommand@@QAEHGG@Z 004f4d50 f   Command.obj
 0001:000f3f30       ?ProcessCMD@cltCommand@@QAEHGPAD@Z 004f4f30 f   Command.obj
 0001:000f52b0       ?WriteStringToFile@cltCommand@@QAEXXZ 004f62b0 f   Command.obj
 0001:000f5310       ?GetCommand@cltCommand@@QAEPAUstrCommand@@PADW4UserGrade@@H@Z 004f6310 f   Command.obj
 0001:000f5450       ?GetFieldMonsterInfo@cltCommand@@QAEHGH@Z 004f6450 f   Command.obj
 0001:000f5540       ?GetFollowerWeightInfo@cltCommand@@QAEHGGE@Z 004f6540 f   Command.obj
 0001:000f5690       ?GetTileInfo@cltCommand@@QAEHGHH@Z 004f6690 f   Command.obj
 0001:000f57a0       ?GetPlayerAccountByDBAccount@cltCommand@@QAEHGK@Z 004f67a0 f   Command.obj
 0001:000f58b0       ?KillNearMonster@cltCommand@@QAEHGHH@Z 004f68b0 f   Command.obj
 0001:000f59a0       ?GetTotalMonsterNum@cltCommand@@QAEHG@Z 004f69a0 f   Command.obj
 0001:000f5a90       ?ClearNearItem@cltCommand@@QAEHPAVSOPlayer@@@Z 004f6a90 f   Command.obj
 0001:000f5cb0       ?CompleteQuest_KillMonster@cltCommand@@QAEHGPADG@Z 004f6cb0 f   Command.obj
 0001:000f5d80       ?CompleteQuest_DoWork@cltCommand@@QAEHGH@Z 004f6d80 f   Command.obj
 0001:000f5e10       ?PartyChat@cltCommand@@QAEHPAVSOPlayer@@PAD@Z 004f6e10 f   Command.obj
 0001:000f5e60       ?FindChar@cltCommand@@QAEHPADD@Z 004f6e60 f   Command.obj
 0001:000f5ee0       ?ConvertCode@cltCommand@@QAEKPADH@Z 004f6ee0 f   Command.obj
 0001:000f62e0       ?CalcScore@ExpoRank@@QAEHHH@Z 004f72e0 f   ExpoRank.obj
 0001:000f64b0       ?IsInvalidBattle@ExpoRank@@QAEHHH@Z 004f74b0 f   ExpoRank.obj
 0001:000f6530       ?GetAllRank@ExpoRank@@QAEXPAH0@Z 004f7530 f   ExpoRank.obj
 0001:000f6890       ?GetBattleCount@User@@QAEHXZ 004f7890 f i ExpoRank.obj
 0001:000f68d0       ?GetDBAccount@User@@QAEHXZ 004f78d0 f i ExpoRank.obj
 0001:000f6910       ?SetScore@User@@QAEXH@Z    004f7910 f i ExpoRank.obj
 0001:000f6950       ?UpdateBattleCount@User@@QAEXH@Z 004f7950 f i ExpoRank.obj
 0001:000f69e0       ?IsInvalidBattle@User@@QAEHH@Z 004f79e0 f i ExpoRank.obj
 0001:000f6a70       ?GetUserList@User@@QAEPAHH@Z 004f7a70 f i ExpoRank.obj
 0001:000f6af0       ?GetIndex@UserCatalog@@QAEAAVUser@@H@Z 004f7af0 f i ExpoRank.obj
 0001:000f6b40       ??A?$vector@VUser@@V?$allocator@VUser@@@std@@@std@@QAEAAVUser@@I@Z 004f7b40 f i ExpoRank.obj
 0001:000f6ba0       ?begin@?$vector@VUser@@V?$allocator@VUser@@@std@@@std@@QAEPAVUser@@XZ 004f7ba0 f i ExpoRank.obj
 0001:000f6be0       ??0PlayersPoint@@QAE@HH@Z  004f7be0 f i ExpoRank.obj
 0001:000f6c30       ??0cltFieldMonster@@QAE@XZ 004f7c30 f   FieldMonster.obj
 0001:000f6d10       ?Init@cltFieldMonster@@QAEXHGHHHHHHHHQAUstFieldMonsterInfo@@@Z 004f7d10 f   FieldMonster.obj
 0001:000f6fe0       ?GetWillCreateMonsters@cltFieldMonster@@AAEGQAGQAH@Z 004f7fe0 f   FieldMonster.obj
 0001:000f7370       ?Action@cltFieldMonster@@QAEXXZ 004f8370 f   FieldMonster.obj
 0001:000f7450       ?CreateMonster@cltFieldMonster@@AAEHXZ 004f8450 f   FieldMonster.obj
 0001:000f7530       ?DeadMonster@cltFieldMonster@@QAEXXZ 004f8530 f   FieldMonster.obj
 0001:000f75a0       ?GetID@cltFieldMonster@@QAEHXZ 004f85a0 f   FieldMonster.obj
 0001:000f75e0       ?InitStaticVariable@cltFieldMonster@@SAXPAVIMonster@@PAVISOMap@@@Z 004f85e0 f   FieldMonster.obj
 0001:000f7620       ?StartBattle@cltFieldMonster@@QAEXXZ 004f8620 f   FieldMonster.obj
 0001:000f7670       ?EndBattle@cltFieldMonster@@QAEXXZ 004f8670 f   FieldMonster.obj
 0001:000f76c0       ?GetInfo@cltFieldMonster@@QAEXPAD@Z 004f86c0 f   FieldMonster.obj
 0001:000f7ad0       ??0cltGuild@@QAE@XZ        004f8ad0 f   Guild.obj
 0001:000f7b70       ??1cltGuild@@QAE@XZ        004f8b70 f   Guild.obj
 0001:000f7c10       ?OnceInit@cltGuild@@QAEXH@Z 004f8c10 f   Guild.obj
 0001:000f7c70       ?Init@cltGuild@@QAEXXZ     004f8c70 f   Guild.obj
 0001:000f7db0       ?CreateGuild@cltGuild@@QAEXIIPADPAVSOPlayer@@PAVSOVillage@@@Z 004f8db0 f   Guild.obj
 0001:000f7f10       ?InitGuild@cltGuild@@QAEXIIPAD0IHH@Z 004f8f10 f   Guild.obj
 0001:000f7fb0       ?SetMemberInfoFromDB@cltGuild@@QAEHXZ 004f8fb0 f   Guild.obj
 0001:000f8040       ?DeleteGuild@cltGuild@@QAEHXZ 004f9040 f   Guild.obj
 0001:000f8280       ?GetGuildID@cltGuild@@QAEIXZ 004f9280 f   Guild.obj
 0001:000f82c0       ?GetGuildName@cltGuild@@QAEPADXZ 004f92c0 f   Guild.obj
 0001:000f8300       ?GetDAIID@cltGuild@@QAEPADXZ 004f9300 f   Guild.obj
 0001:000f8340       ?GetOwnerVillageNum@cltGuild@@QAEGXZ 004f9340 f   Guild.obj
 0001:000f8380       ?GetGuildMemberNum@cltGuild@@QAEIXZ 004f9380 f   Guild.obj
 0001:000f83d0       ?AddGuildMember@cltGuild@@QAEHPAD@Z 004f93d0 f   Guild.obj
 0001:000f85e0       ?DelGuildMember@cltGuild@@QAEHPADHHH@Z 004f95e0 f   Guild.obj
 0001:000f8770       ?AddVillage@cltGuild@@QAEXPAVSOVillage@@H@Z 004f9770 f   Guild.obj
 0001:000f8810       ?DelVillage@cltGuild@@QAEHPAVSOVillage@@H@Z 004f9810 f   Guild.obj
 0001:000f8890       ?InitStaticVariable@cltGuild@@SAXPAVSOWorld@@@Z 004f9890 f   Guild.obj
 0001:000f88f0       ?IsValidGuild@cltGuild@@QAEHXZ 004f98f0 f   Guild.obj
 0001:000f8940       ?Notice@cltGuild@@QAEHPAD0@Z 004f9940 f   Guild.obj
 0001:000f89f0       ?SendMsgToGuildMemebers@cltGuild@@QAEXHHPAX0000@Z 004f99f0 f   Guild.obj
 0001:000f8b40       ?GetArrayIndex@cltGuild@@QAEIXZ 004f9b40 f   Guild.obj
 0001:000f8b80       ?SetHNS@cltGuild@@QAEHPAVSOVillage@@@Z 004f9b80 f   Guild.obj
 0001:000f8c00       ?ChangeFlag@cltGuild@@QAEHH@Z 004f9c00 f   Guild.obj
 0001:000f8de0       ?GetFlag@cltGuild@@QAEHXZ  004f9de0 f   Guild.obj
 0001:000f8e20       ?SetFlagIDInStack@cltGuild@@QAEXH@Z 004f9e20 f   Guild.obj
 0001:000f8e60       ?GetFlagIDInStack@cltGuild@@QAEHXZ 004f9e60 f   Guild.obj
 0001:000f8ea0       ?AddCandidate@cltGuild@@QAEHPAVSOPlayer@@@Z 004f9ea0 f   Guild.obj
 0001:000f9010       ?ChangeClass@cltGuild@@QAEHPADH@Z 004fa010 f   Guild.obj
 0001:000f9150       ?GetOwnerVillages@cltGuild@@QAEXPAG0@Z 004fa150 f   Guild.obj
 0001:000f91c0       ?GetOwnerGuildVillageInfo@cltGuild@@QAEXPAGPAUOnGuildVillageInfo@@@Z 004fa1c0 f   Guild.obj
 0001:000f9270       ?GetRMList@cltGuild@@QAEIKPAUstrGuildMemberInfo@@@Z 004fa270 f   Guild.obj
 0001:000f92d0       ?GetCMList@cltGuild@@QAEIKPAUstrCandidateInfo@@@Z 004fa2d0 f   Guild.obj
 0001:000f9330       ?GetRMTotalPageNum@cltGuild@@QAEKXZ 004fa330 f   Guild.obj
 0001:000f9380       ?GetCMTotalPageNum@cltGuild@@QAEKXZ 004fa380 f   Guild.obj
 0001:000f93d0       ?GetGuildIDByCharName@cltGuild@@QAEHPADPAIPAH@Z 004fa3d0 f   Guild.obj
 0001:000f9450       ?GuildMemberLogin@cltGuild@@QAEXXZ 004fa450 f   Guild.obj
 0001:000f9490       ?GuildMemberLogout@cltGuild@@QAEXXZ 004fa490 f   Guild.obj
 0001:000f94d0       ?GuildInfoChanged@cltGuild@@QAEXXZ 004fa4d0 f   Guild.obj
 0001:000f9630       ?GetAuditGuildInfo@cltGuild@@QAEHPAVSOPlayer@@@Z 004fa630 f   Guild.obj
 0001:000f9900       ?IncreaseGuildSupply@cltGuild@@QAEHH@Z 004fa900 f   Guild.obj
 0001:000f9960       ?DecreaseGuildSupply@cltGuild@@QAEHH@Z 004fa960 f   Guild.obj
 0001:000f99c0       ?GetGuildSupply@cltGuild@@QAEHXZ 004fa9c0 f   Guild.obj
 0001:000f9a00       ?SetGuildSupply@cltGuild@@QAEXH@Z 004faa00 f   Guild.obj
 0001:000f9a40       ?InitGuildUnit@cltGuildUnit@@QAEXXZ 004faa40 f   Guild.obj
 0001:000f9aa0       ?IncreaseGuildUnit@cltGuildUnit@@QAEFFF@Z 004faaa0 f   Guild.obj
 0001:000f9b30       ?DecreaseGuildUnit@cltGuildUnit@@QAEFFF@Z 004fab30 f   Guild.obj
 0001:000f9bb0       ?GetGuildUnit@cltGuildUnit@@QAEFF@Z 004fabb0 f   Guild.obj
 0001:000f9c40       ?SetGuildUnit@cltGuildUnit@@QAEXFF@Z 004fac40 f   Guild.obj
 0001:000f9ce0       ?SetCharName@cltGuildResult@@QAEXPAD@Z 004face0 f   Guild.obj
 0001:000f9d40       ?GetCharName@cltGuildResult@@QAEPADXZ 004fad40 f   Guild.obj
 0001:000f9d80       ?SetVillageCode@cltGuildResult@@QAEXF@Z 004fad80 f   Guild.obj
 0001:000f9dc0       ?GetVillageCode@cltGuildResult@@QAEFXZ 004fadc0 f   Guild.obj
 0001:000f9e00       ?SetPercent@cltGuildResult@@QAEXF@Z 004fae00 f   Guild.obj
 0001:000f9e40       ?GetPercent@cltGuildResult@@QAEFXZ 004fae40 f   Guild.obj
 0001:000f9e80       ?SetPowerInvestmentEnd@cltGuild@@QAEHXZ 004fae80 f   Guild.obj
 0001:000f9f40       ?SendGuildItemDeleteMessage@cltGuild@@QAEHXZ 004faf40 f   Guild.obj
 0001:000fa0a0       ?InitRelation@cltGuild@@QAEXI@Z 004fb0a0 f   Guild.obj
 0001:000fa0f0       ?IsEnemyGuild@cltGuild@@QAEHI@Z 004fb0f0 f   Guild.obj
 0001:000fa140       ?IsWarGuild@cltGuild@@QAEHI@Z 004fb140 f   Guild.obj
 0001:000fa190       ?SetRelation@cltGuild@@QAEXPAV1@HHH@Z 004fb190 f   Guild.obj
 0001:000fa430       ?GetRelation@cltGuild@@QAEHI@Z 004fb430 f   Guild.obj
 0001:000fa470       ?SetRelationReLoad@cltGuild@@QAEXXZ 004fb470 f   Guild.obj
 0001:000fa5f0       ?SetFriendlyMessage@cltGuild@@QAEHPAV1@PAD@Z 004fb5f0 f   Guild.obj
 0001:000fa6f0       ?SetMessage@cltGuild@@QAEHPAV1@PAD@Z 004fb6f0 f   Guild.obj
 0001:000fa770       ?SetFriendlyMessageAccept@cltGuild@@QAEHPAV1@@Z 004fb770 f   Guild.obj
 0001:000fa920       ?SetFriendlyMessageCancel@cltGuild@@QAEHPAV1@@Z 004fb920 f   Guild.obj
 0001:000fa9f0       ?GetFrieldlyMessage@cltGuild@@QAEPADI@Z 004fb9f0 f   Guild.obj
 0001:000faa40       ?RewardToGuildDAIForDestroyVillage@cltGuild@@QAEX_JG@Z 004fba40 f   Guild.obj
 0001:000faca0       ?CheckDay@cltGuild@@QAEHFFF@Z 004fbca0 f   Guild.obj
 0001:000faf60       ?CheckDay2@cltGuild@@QAEHFFF@Z 004fbf60 f   Guild.obj
 0001:000fb010       ?CheckWar@cltGuild@@QAEHXZ 004fc010 f   Guild.obj
 0001:000fb1e0       ?SendWarTime@cltGuild@@QAEXXZ 004fc1e0 f   Guild.obj
 0001:000fb360       ?CheckVillage@cltGuild@@QAEHG@Z 004fc360 f   Guild.obj
 0001:000fb3b0       ?SetGiveUpInfo@cltGuild@@QAEXG_JF@Z 004fc3b0 f   Guild.obj
 0001:000fb440       ?GetGiveUpInfo@cltGuild@@QAEXPAGPA_J@Z 004fc440 f   Guild.obj
 0001:000fb4b0       ?SetGiveUpFlag@cltGuild@@QAEXF@Z 004fc4b0 f   Guild.obj
 0001:000fb510       ?GetGiveUpFlag@cltGuild@@QAEFXZ 004fc510 f   Guild.obj
 0001:000fb550       ?GiveUp@cltGuild@@QAEXXZ   004fc550 f   Guild.obj
 0001:000fb5f0       ?SendGiveUpMsg@cltGuild@@QAEXXZ 004fc5f0 f   Guild.obj
 0001:000fb7e0       ?DeleteAll@?$SStack@G@@QAEXXZ 004fc7e0 f i Guild.obj
 0001:000fb820       ?FindType@?$SStack@G@@QAEHG@Z 004fc820 f i Guild.obj
 0001:000fbae0       ?SetGuildInfoChanged@SOPlayer@@QAEXXZ 004fcae0 f i Guild.obj
 0001:000fbbb0       ??0GuildMemberManager@@QAE@XZ 004fcbb0 f   GuildMemberManager.obj
 0001:000fbc50       ??1GuildMemberManager@@QAE@XZ 004fcc50 f   GuildMemberManager.obj
 0001:000fbd00       ?InitStaticVariable@GuildMemberManager@@SAXPAVcltIGuildClass@@@Z 004fcd00 f   GuildMemberManager.obj
 0001:000fbd30       ?OnceInit@GuildMemberManager@@QAEXXZ 004fcd30 f   GuildMemberManager.obj
 0001:000fbd90       ?Init@GuildMemberManager@@QAEXXZ 004fcd90 f   GuildMemberManager.obj
 0001:000fbe00       ?AddMember@GuildMemberManager@@QAEHPADH_JHIHE@Z 004fce00 f   GuildMemberManager.obj
 0001:000fbfb0       ?DelMember@GuildMemberManager@@QAEHPADH@Z 004fcfb0 f   GuildMemberManager.obj
 0001:000fc0e0       ?GetRealMemeberNum@GuildMemberManager@@QAEIXZ 004fd0e0 f   GuildMemberManager.obj
 0001:000fc120       ?GetCandidateMemberNum@GuildMemberManager@@QAEIXZ 004fd120 f   GuildMemberManager.obj
 0001:000fc160       ?IsRealMemberFull@GuildMemberManager@@QAEHXZ 004fd160 f   GuildMemberManager.obj
 0001:000fc1b0       ?ChangeClass@GuildMemberManager@@QAEHPADHH@Z 004fd1b0 f   GuildMemberManager.obj
 0001:000fc3f0       ?GetRMTotalPageNum@GuildMemberManager@@QAEKXZ 004fd3f0 f   GuildMemberManager.obj
 0001:000fc430       ?GetCMTotalPageNum@GuildMemberManager@@QAEKXZ 004fd430 f   GuildMemberManager.obj
 0001:000fc470       ?CalculateRMTotalPageNum@GuildMemberManager@@AAEXXZ 004fd470 f   GuildMemberManager.obj
 0001:000fc4f0       ?CalculateCMTotalPageNum@GuildMemberManager@@AAEXXZ 004fd4f0 f   GuildMemberManager.obj
 0001:000fc570       ?GetRMList@GuildMemberManager@@QAEIKPAUstrGuildMemberInfo@@@Z 004fd570 f   GuildMemberManager.obj
 0001:000fc630       ?GetCMList@GuildMemberManager@@QAEIKPAUstrCandidateInfo@@@Z 004fd630 f   GuildMemberManager.obj
 0001:000fc700       ?IsCandidate@GuildMemberManager@@QAEHH@Z 004fd700 f   GuildMemberManager.obj
 0001:000fc760       ?GetGuildIDByCharName@GuildMemberManager@@QAEHPADPAH@Z 004fd760 f   GuildMemberManager.obj
 0001:000fc880       ?GetGuildMemberByCharName@GuildMemberManager@@QAEHPADPAUstrGuildCommonMemberInfo@@@Z 004fd880 f   GuildMemberManager.obj
 0001:000fca10       ?GetGuildMemberByCharAccount@GuildMemberManager@@QAEHHEPAUstrGuildCommonMemberInfo@@@Z 004fda10 f   GuildMemberManager.obj
 0001:000fcbe0       ?IsMember@GuildMemberManager@@QAEHPAD@Z 004fdbe0 f   GuildMemberManager.obj
 0001:000fccd0       ?IsCandidateMember@GuildMemberManager@@QAEHPAD@Z 004fdcd0 f   GuildMemberManager.obj
 0001:000fcd70       ?GetCandidateMember@GuildMemberManager@@QAEPAUstrCandidateInfo@@PAD@Z 004fdd70 f   GuildMemberManager.obj
 0001:000fce10       ?GetDHSID@GuildMemberManager@@QAEPADXZ 004fde10 f   GuildMemberManager.obj
 0001:000fceb0       ?GetTotalHNDNum@GuildMemberManager@@QAEIXZ 004fdeb0 f   GuildMemberManager.obj
 0001:000fcf50       ??0?$SStack@UstrGuildMemberInfo@@@@QAE@XZ 004fdf50 f i GuildMemberManager.obj
 0001:000fcfc0       ??1?$SStack@UstrGuildMemberInfo@@@@UAE@XZ 004fdfc0 f i GuildMemberManager.obj
 0001:000fd010       ?Create@?$SStack@UstrGuildMemberInfo@@@@QAEHH@Z 004fe010 f i GuildMemberManager.obj
 0001:000fd0b0       ?Release@?$SStack@UstrGuildMemberInfo@@@@QAEXXZ 004fe0b0 f i GuildMemberManager.obj
 0001:000fd140       ?Add@?$SStack@UstrGuildMemberInfo@@@@QAEHUstrGuildMemberInfo@@@Z 004fe140 f i GuildMemberManager.obj
 0001:000fd1e0       ?Delete@?$SStack@UstrGuildMemberInfo@@@@QAEHH@Z 004fe1e0 f i GuildMemberManager.obj
 0001:000fd2a0       ?DeleteAll@?$SStack@UstrGuildMemberInfo@@@@QAEXXZ 004fe2a0 f i GuildMemberManager.obj
 0001:000fd2e0       ??0?$SStack@UstrCandidateInfo@@@@QAE@XZ 004fe2e0 f i GuildMemberManager.obj
 0001:000fd350       ??1?$SStack@UstrCandidateInfo@@@@UAE@XZ 004fe350 f i GuildMemberManager.obj
 0001:000fd3a0       ?Create@?$SStack@UstrCandidateInfo@@@@QAEHH@Z 004fe3a0 f i GuildMemberManager.obj
 0001:000fd440       ?Release@?$SStack@UstrCandidateInfo@@@@QAEXXZ 004fe440 f i GuildMemberManager.obj
 0001:000fd4d0       ?Add@?$SStack@UstrCandidateInfo@@@@QAEHUstrCandidateInfo@@@Z 004fe4d0 f i GuildMemberManager.obj
 0001:000fd570       ?Delete@?$SStack@UstrCandidateInfo@@@@QAEHH@Z 004fe570 f i GuildMemberManager.obj
 0001:000fd630       ?DeleteAll@?$SStack@UstrCandidateInfo@@@@QAEXXZ 004fe630 f i GuildMemberManager.obj
 0001:000fd670       ??_G?$SStack@UstrGuildMemberInfo@@@@UAEPAXI@Z 004fe670 f i GuildMemberManager.obj
 0001:000fd670       ??_E?$SStack@UstrGuildMemberInfo@@@@UAEPAXI@Z 004fe670 f i GuildMemberManager.obj
 0001:000fd6e0       ??_E?$SStack@UstrCandidateInfo@@@@UAEPAXI@Z 004fe6e0 f i GuildMemberManager.obj
 0001:000fd6e0       ??_G?$SStack@UstrCandidateInfo@@@@UAEPAXI@Z 004fe6e0 f i GuildMemberManager.obj
 0001:000fd750       ??0IFieldMonster@@QAE@XZ   004fe750 f   IFieldMonster.obj
 0001:000fd7a0       ??1IFieldMonster@@QAE@XZ   004fe7a0 f   IFieldMonster.obj
 0001:000fd810       ?Init@IFieldMonster@@QAEXPAVIMonster@@PAVISOMap@@@Z 004fe810 f   IFieldMonster.obj
 0001:000fdab0       ?Action@IFieldMonster@@QAEXXZ 004feab0 f   IFieldMonster.obj
 0001:000fdb30       ?DeadMonster@IFieldMonster@@QAEXH@Z 004feb30 f   IFieldMonster.obj
 0001:000fdba0       ?FindIndex@IFieldMonster@@AAEHH@Z 004feba0 f   IFieldMonster.obj
 0001:000fdc30       ?StartBattle@IFieldMonster@@QAEXH@Z 004fec30 f   IFieldMonster.obj
 0001:000fdca0       ?EndBattle@IFieldMonster@@QAEXH@Z 004feca0 f   IFieldMonster.obj
 0001:000fdd10       ?GetInfo@IFieldMonster@@QAEHHPAD@Z 004fed10 f   IFieldMonster.obj
 0001:000fe040       ??0cltIGuild@@QAE@XZ       004ff040 f   IGuild.obj
 0001:000fe110       ??1cltIGuild@@QAE@XZ       004ff110 f   IGuild.obj
 0001:000fe1c0       ?OnceInit@cltIGuild@@QAEXH@Z 004ff1c0 f   IGuild.obj
 0001:000fe240       ?Free@cltIGuild@@QAEXXZ    004ff240 f   IGuild.obj
 0001:000fe290       ?GetGuildCreateCost@cltIGuild@@QAE_JXZ 004ff290 f   IGuild.obj
 0001:000fe340       ?CreateGuild@cltIGuild@@QAEIPADPAVSOPlayer@@PAVSOVillage@@@Z 004ff340 f   IGuild.obj
 0001:000fe590       ?InitGuild@cltIGuild@@QAEHIPAD0HH@Z 004ff590 f   IGuild.obj
 0001:000fe670       ?DeleteGuild@cltIGuild@@QAEHIPAVSOVillage@@@Z 004ff670 f   IGuild.obj
 0001:000fe900       ?FindEmptySlot@cltIGuild@@AAEHXZ 004ff900 f   IGuild.obj
 0001:000fe990       ?FindSlot@cltIGuild@@AAEHI@Z 004ff990 f   IGuild.obj
 0001:000fea20       ?FindSlot@cltIGuild@@AAEHIIPAH0@Z 004ffa20 f   IGuild.obj
 0001:000feb10       ?FindSlot@cltIGuild@@AAEHIPADPAH1@Z 004ffb10 f   IGuild.obj
 0001:000fec10       ?FindSlot@cltIGuild@@AAEHPAD@Z 004ffc10 f   IGuild.obj
 0001:000fecd0       ?AddGuildMember@cltIGuild@@QAEHIPAD@Z 004ffcd0 f   IGuild.obj
 0001:000fed50       ?DelGuildMember@cltIGuild@@QAEHIPADHHH@Z 004ffd50 f   IGuild.obj
 0001:000fede0       ?AddCandidate@cltIGuild@@QAEHIPAVSOPlayer@@@Z 004ffde0 f   IGuild.obj
 0001:000fee60       ?AddVillage@cltIGuild@@QAEXIPAVSOVillage@@H@Z 004ffe60 f   IGuild.obj
 0001:000fef30       ?DelVillage@cltIGuild@@QAEXIPAVSOVillage@@H@Z 004fff30 f   IGuild.obj
 0001:000ff240       ?InitStaticVariable@cltIGuild@@SAXPAVSOWorld@@@Z 00500240 f   IGuild.obj
 0001:000ff290       ?IsGuildFull@cltIGuild@@QAEHXZ 00500290 f   IGuild.obj
 0001:000ff2f0       ?GetGuildByID@cltIGuild@@QAEPAVcltGuild@@I@Z 005002f0 f   IGuild.obj
 0001:000ff360       ?GetGuildByIndex@cltIGuild@@QAEPAVcltGuild@@H@Z 00500360 f   IGuild.obj
 0001:000ff3d0       ?GetGuildByName@cltIGuild@@QAEPAVcltGuild@@PAD@Z 005003d0 f   IGuild.obj
 0001:000ff440       ?GetGuildName@cltIGuild@@QAEPADI@Z 00500440 f   IGuild.obj
 0001:000ff4c0       ?GetGuildID@cltIGuild@@QAEIPAD@Z 005004c0 f   IGuild.obj
 0001:000ff540       ?GetGuildIDByCharName@cltIGuild@@QAEHPADPAIPAH@Z 00500540 f   IGuild.obj
 0001:000ff610       ?ChangeClass@cltIGuild@@QAEHIPADH@Z 00500610 f   IGuild.obj
 0001:000ff690       ?Notice@cltIGuild@@QAEHIPAD0@Z 00500690 f   IGuild.obj
 0001:000ff710       ?SetRelationByIndex@cltIGuild@@AAEHHHHHH@Z 00500710 f   IGuild.obj
 0001:000ff7d0       ?SetRelation@cltIGuild@@QAEHIIHHH@Z 005007d0 f   IGuild.obj
 0001:000ff860       ?SetRelation@cltIGuild@@QAEHIPADHHH@Z 00500860 f   IGuild.obj
 0001:000ff8f0       ?SetRelation@cltIGuild@@QAEHPADIHHH@Z 005008f0 f   IGuild.obj
 0001:000ff980       ?GetRelation@cltIGuild@@QAEHII@Z 00500980 f   IGuild.obj
 0001:000ffa10       ?GetGuildIDByIndex@cltIGuild@@QAEIH@Z 00500a10 f   IGuild.obj
 0001:000ffa90       ?SetGuildRelationFromDB@cltIGuild@@QAEXXZ 00500a90 f   IGuild.obj
 0001:000ffbc0       ?IsEnemyGuild@cltIGuild@@QAEHII@Z 00500bc0 f   IGuild.obj
 0001:000ffc50       ?IsEnemyGuildBoth@cltIGuild@@QAEHII@Z 00500c50 f   IGuild.obj
 0001:000ffd10       ?IsHostilityRelation@cltIGuild@@QAEHII@Z 00500d10 f   IGuild.obj
 0001:000ffdd0       ?RelationDefineToResponseDefine@cltIGuild@@QAEKK@Z 00500dd0 f   IGuild.obj
 0001:000ffe70       ?ResponseDefineToRelationDefine@cltIGuild@@QAEKK@Z 00500e70 f   IGuild.obj
 0001:000fff20       ?SetHNS@cltIGuild@@QAEHPAVSOVillage@@@Z 00500f20 f   IGuild.obj
 0001:000fffc0       ?GetFlag@cltIGuild@@QAEHI@Z 00500fc0 f   IGuild.obj
 0001:00100040       ?SetFlag@cltIGuild@@QAEHIH@Z 00501040 f   IGuild.obj
 0001:00100160       ?GetUsedFlagList@cltIGuild@@QAEXPAHPAUstrFlagInfo@@@Z 00501160 f   IGuild.obj
 0001:001001e0       ?IsUsedFlag@cltIGuild@@QAEHH@Z 005011e0 f   IGuild.obj
 0001:00100290       ?IsUsedName@cltIGuild@@QAEHPAD@Z 00501290 f   IGuild.obj
 0001:00100350       ?SetMemberInfoFromDB@cltIGuild@@QAEHXZ 00501350 f   IGuild.obj
 0001:00100400       ?GetGuildMemberNum@cltIGuild@@QAEII@Z 00501400 f   IGuild.obj
 0001:00100480       ?SendMsgToGuildMemebers@cltIGuild@@QAEXIHHPAX0000@Z 00501480 f   IGuild.obj
 0001:00100520       ?GetGuildIndexByID@cltIGuild@@QAEHI@Z 00501520 f   IGuild.obj
 0001:00100570       ?RewardToGuildDAIForDestroyVillage@cltIGuild@@QAEHI_JG@Z 00501570 f   IGuild.obj
 0001:001005f0       ?IsValidGuildIndex@cltIGuild@@AAEHH@Z 005015f0 f   IGuild.obj
 0001:00100640       ?SetMaxGuildID@cltIGuild@@QAEHXZ 00501640 f   IGuild.obj
 0001:00100720       ?GuildMemberLogin@cltIGuild@@QAEXI@Z 00501720 f   IGuild.obj
 0001:00100790       ?GuildMemberLogout@cltIGuild@@QAEXI@Z 00501790 f   IGuild.obj
 0001:00100800       ?SetRelationReLoad@cltIGuild@@QAEXXZ 00501800 f   IGuild.obj
 0001:001008a0       ?IsEnemyRelationWar@cltIGuild@@QAEHII@Z 005018a0 f   IGuild.obj
 0001:00100960       ?SetMessage@cltIGuild@@QAEHIIPAD@Z 00501960 f   IGuild.obj
 0001:00100a00       ?SetFriendlyMessage@cltIGuild@@QAEHIPAD0@Z 00501a00 f   IGuild.obj
 0001:00100aa0       ?SetFriendlyMessageAccept@cltIGuild@@QAEHIPAD@Z 00501aa0 f   IGuild.obj
 0001:00100b70       ?SetFriendlyMessageCancel@cltIGuild@@QAEHIPAD@Z 00501b70 f   IGuild.obj
 0001:00100c10       ?SetPowerInvestmentEnd@cltIGuild@@QAEHXZ 00501c10 f   IGuild.obj
 0001:00100cc0       ?GetGuildWarCheck@cltIGuild@@QAEHI@Z 00501cc0 f   IGuild.obj
 0001:00100d90       ?SendWarTime@cltIGuild@@QAEXXZ 00501d90 f   IGuild.obj
 0001:00100e50       ?CheckVillage@cltIGuild@@QAEHG@Z 00501e50 f   IGuild.obj
 0001:00100f00       ?InitGiveUpInfo@cltIGuild@@QAEXXZ 00501f00 f   IGuild.obj
 0001:00101000       ?GiveUp@cltIGuild@@QAEHI@Z 00502000 f   IGuild.obj
 0001:00101120       ?DBGetGiveUpInfo@cltIGuild@@QAEXXZ 00502120 f   IGuild.obj
 0001:00101240       ??0?$SStack@UstrFlagInfo@@@@QAE@XZ 00502240 f i IGuild.obj
 0001:001012b0       ??1?$SStack@UstrFlagInfo@@@@UAE@XZ 005022b0 f i IGuild.obj
 0001:00101300       ?Create@?$SStack@UstrFlagInfo@@@@QAEHH@Z 00502300 f i IGuild.obj
 0001:001013a0       ?Release@?$SStack@UstrFlagInfo@@@@QAEXXZ 005023a0 f i IGuild.obj
 0001:00101430       ?Add@?$SStack@UstrFlagInfo@@@@QAEHUstrFlagInfo@@@Z 00502430 f i IGuild.obj
 0001:001014d0       ?DeleteType@?$SStack@UstrFlagInfo@@@@QAEHUstrFlagInfo@@@Z 005024d0 f i IGuild.obj
 0001:00101570       ??_G?$SStack@UstrFlagInfo@@@@UAEPAXI@Z 00502570 f i IGuild.obj
 0001:00101570       ??_E?$SStack@UstrFlagInfo@@@@UAEPAXI@Z 00502570 f i IGuild.obj
 0001:001015e0       ?Delete@?$SStack@UstrFlagInfo@@@@QAEHH@Z 005025e0 f i IGuild.obj
 0001:00101940       ?SetWarFlag@cltGuild@@QAEX_N@Z 00502940 f i IGuild.obj
 0001:00101990       ??0ISOMap@@QAE@XZ          00502990 f   IOnlineMap.obj
 0001:001019e0       ??1ISOMap@@QAE@XZ          005029e0 f   IOnlineMap.obj
 0001:00101a30       ?Init@ISOMap@@QAEHXZ       00502a30 f   IOnlineMap.obj
 0001:00101c90       ??_ESOMap@@UAEPAXI@Z       00502c90 f i IOnlineMap.obj
 0001:00101d50       ?Free@ISOMap@@QAEXXZ       00502d50 f   IOnlineMap.obj
 0001:00101df0       ?SetItem@ISOMap@@QAEHGHHGGH@Z 00502df0 f   IOnlineMap.obj
 0001:00101e70       ?DelItem@ISOMap@@QAEHPAVSOPlayer@@GHHH@Z 00502e70 f   IOnlineMap.obj
 0001:00101ef0       ?GetID@ISOMap@@QAEXGHHHHPAGPAUOnlineReceiveFieldItemInfo@@00HG@Z 00502ef0 f   IOnlineMap.obj
 0001:00101f90       ?GetVillageCode@ISOMap@@QAEGG@Z 00502f90 f   IOnlineMap.obj
 0001:00102020       ?GetCharUniID@ISOMap@@QAEIGHHH@Z 00503020 f   IOnlineMap.obj
 0001:001020a0       ?GetCharUniID@ISOMap@@QAEHGHHHHPAGGH@Z 005030a0 f   IOnlineMap.obj
 0001:00102130       ?GetItemID@ISOMap@@QAEHGHHHHPAG0@Z 00503130 f   IOnlineMap.obj
 0001:001021b0       ?GetItemID@ISOMap@@QAEHGHHPAG0@Z 005031b0 f   IOnlineMap.obj
 0001:00102230       ?SetMap@ISOMap@@QAEHGPAULoadSaveMapTI@@@Z 00503230 f   IOnlineMap.obj
 0001:001022a0       ?SearchMap@ISOMap@@QAE?AUtagPOINT@@GHHHHH@Z 005032a0 f   IOnlineMap.obj
 0001:00102320       ?SetItemFromDB@ISOMap@@QAEXXZ 00503320 f   IOnlineMap.obj
 0001:001023a0       ?IsValidMapID@ISOMap@@QAEHG@Z 005033a0 f   IOnlineMap.obj
 0001:00102400       ?GetMapSize@ISOMap@@QAE?AUtagSIZE@@G@Z 00503400 f   IOnlineMap.obj
 0001:001024b0       ?IsInitialize@ISOMap@@IAEHXZ 005034b0 f i IOnlineMap.obj
 0001:00102500       ?IsColl@ISOMap@@QAEHGHH@Z  00503500 f   IOnlineMap.obj
 0001:00102590       ?IsColl@ISOMap@@QAEHGHHH@Z 00503590 f   IOnlineMap.obj
 0001:00102650       ?IsDungeon@ISOMap@@QAEHG@Z 00503650 f   IOnlineMap.obj
 0001:001026d0       ?CanBeRainy@ISOMap@@QAEHG@Z 005036d0 f   IOnlineMap.obj
 0001:00102730       ?CanBeSnowy@ISOMap@@QAEHG@Z 00503730 f   IOnlineMap.obj
 0001:00102790       ?SetChar@ISOMap@@QAEHPAVBaseChar@@I@Z 00503790 f   IOnlineMap.obj
 0001:00102820       ?MoveChar@ISOMap@@QAEHPAVBaseChar@@HHHI@Z 00503820 f   IOnlineMap.obj
 0001:001028c0       ?DelChar@ISOMap@@QAEHPAVBaseChar@@@Z 005038c0 f   IOnlineMap.obj
 0001:00102970       ?Poll@ISOMap@@QAEXXZ       00503970 f   IOnlineMap.obj
 0001:00102a80       ?GetNearSectorPlayerList@ISOMap@@QAEHGHHPAGH@Z 00503a80 f   IOnlineMap.obj
 0001:00102b10       ?GetNearSectorItemList@ISOMap@@QAEHGHHPAUOnlineReceiveFieldItemInfo@@@Z 00503b10 f   IOnlineMap.obj
 0001:00102ba0       ?GetSectorItemList@ISOMap@@QAEHGPAPAUstrSector@@PAUOnlineReceiveFieldItemInfo@@@Z 00503ba0 f   IOnlineMap.obj
 0001:00102c20       ?GetSectorPlayerList@ISOMap@@QAEHGPAPAUstrSector@@PAGH@Z 00503c20 f   IOnlineMap.obj
 0001:00102cb0       ?IsWarFieldMap@ISOMap@@QAEHG@Z 00503cb0 f   IOnlineMap.obj
 0001:00102d30       ?GetTileInfo@ISOMap@@QAEHGHHPAD@Z 00503d30 f   IOnlineMap.obj
 0001:00102dc0       ?InitStaticVariable@ISOMap@@SAXPAVSOWorld@@@Z 00503dc0 f   IOnlineMap.obj
 0001:001030c0       ??0OnlineMapIndexParser@@QAE@XZ 005040c0 f i IOnlineMap.obj
 0001:00103180       ??0?$map@FPAUMapIndexHeader@@U?$less@F@std@@V?$allocator@PAUMapIndexHeader@@@3@@std@@QAE@ABU?$less@F@1@ABV?$allocator@PAUMapIndexHeader@@@1@@Z 00504180 f i IOnlineMap.obj
 0001:001031e0       ??0?$vector@UMapIndexHeader@@V?$allocator@UMapIndexHeader@@@std@@@std@@QAE@ABV?$allocator@UMapIndexHeader@@@1@@Z 005041e0 f i IOnlineMap.obj
 0001:00103250       ??1?$vector@UMapIndexHeader@@V?$allocator@UMapIndexHeader@@@std@@@std@@QAE@XZ 00504250 f i IOnlineMap.obj
 0001:00103300       ??0?$_Tree@FU?$pair@$$CBFPAUMapIndexHeader@@@std@@U_Kfn@?$map@FPAUMapIndexHeader@@U?$less@F@std@@V?$allocator@PAUMapIndexHeader@@@3@@2@U?$less@F@2@V?$allocator@PAUMapIndexHeader@@@2@@std@@QAE@ABU?$less@F@1@_NABV?$allocator@PAUMapIndexHeader@@@1@@Z 00504300 f i IOnlineMap.obj
 0001:00103370       ?_Init@?$_Tree@FU?$pair@$$CBFPAUMapIndexHeader@@@std@@U_Kfn@?$map@FPAUMapIndexHeader@@U?$less@F@std@@V?$allocator@PAUMapIndexHeader@@@3@@2@U?$less@F@2@V?$allocator@PAUMapIndexHeader@@@2@@std@@IAEXXZ 00504370 f i IOnlineMap.obj
 0001:001034e0       ??1OnlineMapIndexParser@@QAE@XZ 005044e0 f i IOnlineMap.obj
 0001:00103590       ??1?$map@FPAUMapIndexHeader@@U?$less@F@std@@V?$allocator@PAUMapIndexHeader@@@3@@std@@QAE@XZ 00504590 f i IOnlineMap.obj
 0001:001035e0       ??1?$_Tree@FU?$pair@$$CBFPAUMapIndexHeader@@@std@@U_Kfn@?$map@FPAUMapIndexHeader@@U?$less@F@std@@V?$allocator@PAUMapIndexHeader@@@3@@2@U?$less@F@2@V?$allocator@PAUMapIndexHeader@@@2@@std@@QAE@XZ 005045e0 f i IOnlineMap.obj
 0001:001036e0       ??0IPortal@@QAE@XZ         005046e0 f   IPortal.obj
 0001:00103740       ??_GIPortal@@UAEPAXI@Z     00504740 f i IPortal.obj
 0001:00103740       ??_EIPortal@@UAEPAXI@Z     00504740 f i IPortal.obj
 0001:001037b0       ??1IPortal@@UAE@XZ         005047b0 f   IPortal.obj
 0001:00103850       ?Init@IPortal@@QAEHPAD@Z   00504850 f   IPortal.obj
 0001:00103940       ?Free@IPortal@@QAEXXZ      00504940 f   IPortal.obj
 0001:001039c0       ?GetDestMapID@IPortal@@QAEGG@Z 005049c0 f   IPortal.obj
 0001:00103a80       ?GetDestPos@IPortal@@QAE?AUtagPOINT@@G@Z 00504a80 f   IPortal.obj
 0001:00103b20       ?UsePortal@IPortal@@QAEXG@Z 00504b20 f   IPortal.obj
 0001:00103bc0       ?CanUsePortal@IPortal@@QAEHG@Z 00504bc0 f   IPortal.obj
 0001:00103c60       ?DayChanged@IPortal@@QAEXXZ 00504c60 f   IPortal.obj
 0001:00103cd0       ??0INPCKI@@QAE@XZ          00504cd0 f   ISONPCKI.obj
 0001:00103d20       ??1INPCKI@@QAE@XZ          00504d20 f   ISONPCKI.obj
 0001:00103d70       ?Init@INPCKI@@QAEHXZ       00504d70 f   ISONPCKI.obj
 0001:00103fc0       ??_ENPCKI@@QAEPAXI@Z       00504fc0 f i ISONPCKI.obj
 0001:00104080       ?Free@INPCKI@@QAEXXZ       00505080 f   ISONPCKI.obj
 0001:00104150       ?GetTotalMonsterNum@INPCKI@@QAEHXZ 00505150 f   ISONPCKI.obj
 0001:00104190       ?GetID@INPCKI@@QAEGG@Z     00505190 f   ISONPCKI.obj
 0001:001041f0       ?FindIndex@INPCKI@@AAEFG@Z 005051f0 f   ISONPCKI.obj
 0001:00104290       ?GetMoveSpeed@INPCKI@@QAEGG@Z 00505290 f   ISONPCKI.obj
 0001:001045c0       ?GetMonsterTotalNum@OnlineCharParser@@QAEFXZ 005055c0 f i ISONPCKI.obj
 0001:00104600       ??0ISOShip@@QAE@XZ         00505600 f   ISOShip.obj
 0001:00104680       ??1ISOShip@@QAE@XZ         00505680 f   ISOShip.obj
 0001:001046e0       ?Init@ISOShip@@QAEXXZ      005056e0 f   ISOShip.obj
 0001:00104710       ?Free@ISOShip@@QAEXXZ      00505710 f   ISOShip.obj
 0001:00104740       ?Init@ISOShip@@QAEHGGGGHGPAG@Z 00505740 f   ISOShip.obj
 0001:00104810       ?Poll@ISOShip@@QAEXXZ      00505810 f   ISOShip.obj
 0001:001048c0       ?FindAccount@ISOShip@@AAEGXZ 005058c0 f   ISOShip.obj
 0001:00104980       ?LogOutPlayer@ISOShip@@QAEXGGH@Z 00505980 f   ISOShip.obj
 0001:001049f0       ?GetInfo@ISOShip@@QAEXGPAUOnCharShipInfo@@@Z 005059f0 f   ISOShip.obj
 0001:00104a60       ?IsValidID@ISOShip@@QAEHG@Z 00505a60 f   ISOShip.obj
 0001:00104b10       ?GetShip@ISOShip@@QAEPAVcltSOShip@@G@Z 00505b10 f   ISOShip.obj
 0001:00104b90       ?DidSendMoveInfo@ISOShip@@QAEEG@Z 00505b90 f   ISOShip.obj
 0001:00104c10       ?GetCustomers@ISOShip@@QAEGGPAG@Z 00505c10 f   ISOShip.obj
 0001:00104f50       ??0OnlineMonsterParser@@QAE@XZ 00505f50 f   OnlineMonsterParser.obj
 0001:00104fa0       ??1OnlineMonsterParser@@QAE@XZ 00505fa0 f   OnlineMonsterParser.obj
 0001:00104ff0       ?Init@OnlineMonsterParser@@QAEHPAD@Z 00505ff0 f   OnlineMonsterParser.obj
 0001:00105600       ?GetID@OnlineMonsterParser@@AAEIPAD@Z 00506600 f   OnlineMonsterParser.obj
 0001:00105690       ?GetTotalPattern@OnlineMonsterParser@@QAEHXZ 00506690 f   OnlineMonsterParser.obj
 0001:001056d0       ?GetPatternHeader@OnlineMonsterParser@@QAEPAUMonsterPatternHeader@@I@Z 005066d0 f   OnlineMonsterParser.obj
 0001:00105720       ?Free@OnlineMonsterParser@@QAEXXZ 00506720 f   OnlineMonsterParser.obj
 0001:00105790       ??0PlayersManager@@QAE@XZ  00506790 f   PlayersManager.obj
 0001:001057f0       ??1PlayersManager@@QAE@XZ  005067f0 f   PlayersManager.obj
 0001:00105850       ?Init@PlayersManager@@UAEXK@Z 00506850 f   PlayersManager.obj
 0001:001058a0       ?Free@PlayersManager@@UAEXXZ 005068a0 f   PlayersManager.obj
 0001:001058f0       ?AddPlayer@PlayersManager@@UAEHPAVSOPlayer@@@Z 005068f0 f   PlayersManager.obj
 0001:00105980       ?RemovePlayer@PlayersManager@@UAEHPAVSOPlayer@@@Z 00506980 f   PlayersManager.obj
 0001:001059e0       ?RemoveAllPlayer@PlayersManager@@UAEXXZ 005069e0 f   PlayersManager.obj
 0001:00105a30       ?IsAddedPlayer@PlayersManager@@UAEHPAVSOPlayer@@@Z 00506a30 f   PlayersManager.obj
 0001:00105ab0       ?GetAddedPlayerList@PlayersManager@@UAEHPAG@Z 00506ab0 f   PlayersManager.obj
 0001:00105b30       ?GetAddedPlayerList@PlayersManager@@UAEHPAPAVSOPlayer@@@Z 00506b30 f   PlayersManager.obj
 0001:00105bb0       ?GetFirstPlayer@PlayersManager@@QAEPAVSOPlayer@@XZ 00506bb0 f   PlayersManager.obj
 0001:00105c00       ??0?$SStack@PAVSOPlayer@@@@QAE@XZ 00506c00 f i PlayersManager.obj
 0001:00105c70       ??1?$SStack@PAVSOPlayer@@@@UAE@XZ 00506c70 f i PlayersManager.obj
 0001:00105cc0       ?Create@?$SStack@PAVSOPlayer@@@@QAEHH@Z 00506cc0 f i PlayersManager.obj
 0001:00105d60       ?Release@?$SStack@PAVSOPlayer@@@@QAEXXZ 00506d60 f i PlayersManager.obj
 0001:00105df0       ?Add@?$SStack@PAVSOPlayer@@@@QAEHPAVSOPlayer@@@Z 00506df0 f i PlayersManager.obj
 0001:00105e90       ?DeleteAll@?$SStack@PAVSOPlayer@@@@QAEXXZ 00506e90 f i PlayersManager.obj
 0001:00105ed0       ?DeleteType@?$SStack@PAVSOPlayer@@@@QAEHPAVSOPlayer@@@Z 00506ed0 f i PlayersManager.obj
 0001:00105f70       ??_E?$SStack@PAVSOPlayer@@@@UAEPAXI@Z 00506f70 f i PlayersManager.obj
 0001:00105f70       ??_G?$SStack@PAVSOPlayer@@@@UAEPAXI@Z 00506f70 f i PlayersManager.obj
 0001:00105fe0       ?Delete@?$SStack@PAVSOPlayer@@@@QAEHH@Z 00506fe0 f i PlayersManager.obj
 0001:00106340       ??0Point@@QAE@XZ           00507340 f   Point.obj
 0001:00106380       ??_EPoint@@UAEPAXI@Z       00507380 f i Point.obj
 0001:00106380       ??_GPoint@@UAEPAXI@Z       00507380 f i Point.obj
 0001:001063f0       ??1Point@@UAE@XZ           005073f0 f   Point.obj
 0001:00106430       ?Calc@Point@@QAE?AUPlayersPoint@@U2@@Z 00507430 f   Point.obj
 0001:001064d0       ?AddPoint@Point@@QAE?AUPlayersPoint@@U2@N@Z 005074d0 f   Point.obj
 0001:001065c0       ?Formal@Point@@QAE?AUPlayersPoint@@U2@@Z 005075c0 f   Point.obj
 0001:001068d0       ?Init@cltPrivateMarket@@QAEXPAVSOPlayer@@@Z 005078d0 f   PrivateMarket.obj
 0001:00106910       ?Init@cltPrivateMarket@@QAEXXZ 00507910 f   PrivateMarket.obj
 0001:00106990       ?Open@cltPrivateMarket@@QAEXXZ 00507990 f   PrivateMarket.obj
 0001:001069d0       ?Close@cltPrivateMarket@@QAEXXZ 005079d0 f   PrivateMarket.obj
 0001:00106a50       ?IsValidSlot@cltPrivateMarket@@AAEHE@Z 00507a50 f   PrivateMarket.obj
 0001:00106ab0       ?IsOpen@cltPrivateMarket@@QAEHXZ 00507ab0 f   PrivateMarket.obj
 0001:00106af0       ?AddItem@cltPrivateMarket@@QAEHPAUOnBoothItemForSell@@@Z 00507af0 f   PrivateMarket.obj
 0001:00106c80       ?DelItem@cltPrivateMarket@@QAEHE@Z 00507c80 f   PrivateMarket.obj
 0001:00106d10       ?BuyItem@cltPrivateMarket@@QAEHEGPAGPA_JPAF@Z 00507d10 f   PrivateMarket.obj
 0001:00106ea0       ?ChangeItem@cltPrivateMarket@@QAEHEEG_JPADE@Z 00507ea0 f   PrivateMarket.obj
 0001:00107010       ?GetItem@cltPrivateMarket@@QAEPAUstrPMItem@@E@Z 00508010 f   PrivateMarket.obj
 0001:001070d0       ?GetItem@cltPrivateMarket@@QAEPAUstrPMItem@@EG@Z 005080d0 f   PrivateMarket.obj
 0001:00107150       ?GetBaseItems@cltPrivateMarket@@QAEKPAUOnBaseBoothItem@@PAC@Z 00508150 f   PrivateMarket.obj
 0001:001072e0       ?GetItems@cltPrivateMarket@@QAEKPAUOnBoothItemInfo@@PACPAVSOPlayer@@PAUMyItemData@@AAG@Z 005082e0 f   PrivateMarket.obj
 0001:001076f0       ?GetItemQuantity@cltPrivateMarket@@QAEHEPAG@Z 005086f0 f   PrivateMarket.obj
 0001:001077c0       ?CanBuyItem@cltPrivateMarket@@QAEHEG_J@Z 005087c0 f   PrivateMarket.obj
 0001:001078d0       ?GetTotalPrice@cltPrivateMarket@@QAEHEGPA_J@Z 005088d0 f   PrivateMarket.obj
 0001:00107c60       ??0CQuestData@@QAE@XZ      00508c60 f   QuestManager.obj
 0001:00107cb0       ??0CQuestData@@QAE@ABV0@@Z 00508cb0 f   QuestManager.obj
 0001:00107d10       ??1CQuestData@@QAE@XZ      00508d10 f   QuestManager.obj
 0001:00107d40       ??4CQuestData@@AAEAAV0@ABV0@@Z 00508d40 f   QuestManager.obj
 0001:00107db0       ?Set@CQuestData@@QAEXIEF@Z 00508db0 f   QuestManager.obj
 0001:00107e10       ??0CQuestManager@@QAE@XZ   00508e10 f   QuestManager.obj
 0001:00107e80       ??1CQuestManager@@QAE@XZ   00508e80 f   QuestManager.obj
 0001:00107f30       ?GetCompletedQuestCount@CQuestManager@@QAEIXZ 00508f30 f   QuestManager.obj
 0001:00107f90       ?AddCompletedQuest@CQuestManager@@QAEXIEF@Z 00508f90 f   QuestManager.obj
 0001:00108060       ?ClearAllQuest@CQuestManager@@QAEXXZ 00509060 f   QuestManager.obj
 0001:001080f0       ??0?$list@VCQuestData@@V?$allocator@VCQuestData@@@std@@@std@@QAE@ABV?$allocator@VCQuestData@@@1@@Z 005090f0 f i QuestManager.obj
 0001:00108160       ??1?$list@VCQuestData@@V?$allocator@VCQuestData@@@std@@@std@@QAE@XZ 00509160 f i QuestManager.obj
 0001:00108200       ?begin@?$list@VCQuestData@@V?$allocator@VCQuestData@@@std@@@std@@QAE?AViterator@12@XZ 00509200 f i QuestManager.obj
 0001:00108260       ?end@?$list@VCQuestData@@V?$allocator@VCQuestData@@@std@@@std@@QAE?AViterator@12@XZ 00509260 f i QuestManager.obj
 0001:001082c0       ?size@?$list@VCQuestData@@V?$allocator@VCQuestData@@@std@@@std@@QBEIXZ 005092c0 f i QuestManager.obj
 0001:00108300       ?push_back@?$list@VCQuestData@@V?$allocator@VCQuestData@@@std@@@std@@QAEXABVCQuestData@@@Z 00509300 f i QuestManager.obj
 0001:00108370       ?erase@?$list@VCQuestData@@V?$allocator@VCQuestData@@@std@@@std@@QAE?AViterator@12@V312@0@Z 00509370 f i QuestManager.obj
 0001:00108400       ?insert@?$list@VCQuestData@@V?$allocator@VCQuestData@@@std@@@std@@QAE?AViterator@12@V312@ABVCQuestData@@@Z 00509400 f i QuestManager.obj
 0001:00108500       ?erase@?$list@VCQuestData@@V?$allocator@VCQuestData@@@std@@@std@@QAE?AViterator@12@V312@@Z 00509500 f i QuestManager.obj
 0001:00108610       ?_Buynode@?$list@VCQuestData@@V?$allocator@VCQuestData@@@std@@@std@@IAEPAU_Node@12@PAU312@0@Z 00509610 f i QuestManager.obj
 0001:001086c0       ?_Freenode@?$list@VCQuestData@@V?$allocator@VCQuestData@@@std@@@std@@IAEXPAU_Node@12@@Z 005096c0 f i QuestManager.obj
 0001:00108710       ?_Next@_Acc@?$list@VCQuestData@@V?$allocator@VCQuestData@@@std@@@std@@SAAAPAU_Node@23@PAU423@@Z 00509710 f i QuestManager.obj
 0001:00108740       ??0iterator@?$list@VCQuestData@@V?$allocator@VCQuestData@@@std@@@std@@QAE@PAU_Node@12@@Z 00509740 f i QuestManager.obj
 0001:00108790       ??Eiterator@?$list@VCQuestData@@V?$allocator@VCQuestData@@@std@@@std@@QAE?AV012@H@Z 00509790 f i QuestManager.obj
 0001:001087f0       ??9iterator@?$list@VCQuestData@@V?$allocator@VCQuestData@@@std@@@std@@QBE_NABV012@@Z 005097f0 f i QuestManager.obj
 0001:00108850       ?_Prev@_Acc@?$list@VCQuestData@@V?$allocator@VCQuestData@@@std@@@std@@SAAAPAU_Node@23@PAU423@@Z 00509850 f i QuestManager.obj
 0001:00108880       ?_Value@_Acc@?$list@VCQuestData@@V?$allocator@VCQuestData@@@std@@@std@@SAAAVCQuestData@@PAU_Node@23@@Z 00509880 f i QuestManager.obj
 0001:001088b0       ?_Charalloc@?$allocator@VCQuestData@@@std@@QAEPADI@Z 005098b0 f i QuestManager.obj
 0001:00108900       ?deallocate@?$allocator@VCQuestData@@@std@@QAEXPAXI@Z 00509900 f i QuestManager.obj
 0001:00108950       ?construct@?$allocator@VCQuestData@@@std@@QAEXPAVCQuestData@@ABV3@@Z 00509950 f i QuestManager.obj
 0001:001089a0       ?destroy@?$allocator@VCQuestData@@@std@@QAEXPAVCQuestData@@@Z 005099a0 f i QuestManager.obj
 0001:001089f0       ??0const_iterator@?$list@VCQuestData@@V?$allocator@VCQuestData@@@std@@@std@@QAE@PAU_Node@12@@Z 005099f0 f i QuestManager.obj
 0001:00108a30       ?_Mynode@const_iterator@?$list@VCQuestData@@V?$allocator@VCQuestData@@@std@@@std@@QBEPAU_Node@23@XZ 00509a30 f i QuestManager.obj
 0001:00108a70       ??Eiterator@?$list@VCQuestData@@V?$allocator@VCQuestData@@@std@@@std@@QAEAAV012@XZ 00509a70 f i QuestManager.obj
 0001:00108ad0       ??8iterator@?$list@VCQuestData@@V?$allocator@VCQuestData@@@std@@@std@@QBE_NABV012@@Z 00509ad0 f i QuestManager.obj
 0001:00108b20       ?_Construct@std@@YAXPAVCQuestData@@ABV2@@Z 00509b20 f i QuestManager.obj
 0001:00108bd0       ?_Destroy@std@@YAXPAVCQuestData@@@Z 00509bd0 f i QuestManager.obj
 0001:00108c10       ??_GCQuestData@@QAEPAXI@Z  00509c10 f i QuestManager.obj
 0001:00108c80       ?Enter@CQuestManager@@AAEXXZ 00509c80 f i QuestManager.obj
 0001:00108ce0       ?Leave@CQuestManager@@AAEXXZ 00509ce0 f i QuestManager.obj
 0001:00108d40       ??0cltSOCharKI@@QAE@XZ     00509d40 f   SOCharKI.obj
 0001:00108da0       ??_GcltSOCharKI@@UAEPAXI@Z 00509da0 f i SOCharKI.obj
 0001:00108da0       ??_EcltSOCharKI@@UAEPAXI@Z 00509da0 f i SOCharKI.obj
 0001:00108e10       ??1cltSOCharKI@@UAE@XZ     00509e10 f   SOCharKI.obj
 0001:00108e60       ?Init@cltSOCharKI@@QAEHPAVOnlineText@@PAD@Z 00509e60 f   SOCharKI.obj
 0001:001092b0       ??0cltSOFindPath@@QAE@FF@Z 0050a2b0 f   SOFindPath.obj
 0001:00109360       ?FindPathL@cltSOFindPath@@UAEHFFFFPAF00FGH@Z 0050a360 f   SOFindPath.obj
 0001:00109400       ?IsColl@cltSOFindPath@@UAEHHH@Z 0050a400 f   SOFindPath.obj
 0001:00109470       ?InitStaticVariable@cltSOFindPath@@SAXPAVISOMap@@@Z 0050a470 f   SOFindPath.obj
 0001:00109750       ??0SOMap@@QAE@XZ           0050a750 f   SOMap.obj
 0001:00109830       ??_GSOMap@@UAEPAXI@Z       0050a830 f i SOMap.obj
 0001:001098a0       ??1SOMap@@UAE@XZ           0050a8a0 f   SOMap.obj
 0001:00109990       ?Init@SOMap@@QAEHPAUMapIndexHeader@@@Z 0050a990 f   SOMap.obj
 0001:0010a0b0       ??_EstrSector@@QAEPAXI@Z   0050b0b0 f i SOMap.obj
 0001:0010a170       ??0strSector@@QAE@XZ       0050b170 f i SOMap.obj
 0001:0010a230       ??1strSector@@QAE@XZ       0050b230 f i SOMap.obj
 0001:0010a2f0       ??_EcSectorNode@@UAEPAXI@Z 0050b2f0 f i SOMap.obj
 0001:0010a3b0       ?Free@SOMap@@QAEXXZ        0050b3b0 f   SOMap.obj
 0001:0010a500       ?SetChar@SOMap@@QAEHPAVBaseChar@@I@Z 0050b500 f   SOMap.obj
 0001:0010a720       ?GetNewSectorList@SOMap@@QAEXHHPAPAUstrSector@@0@Z 0050b720 f   SOMap.obj
 0001:0010a940       ?MoveChar@SOMap@@QAEHPAVBaseChar@@HHHI@Z 0050b940 f   SOMap.obj
 0001:0010aef0       ?DelChar@SOMap@@QAEHPAVBaseChar@@@Z 0050bef0 f   SOMap.obj
 0001:0010b050       ?SetCharID@SOMap@@AAEXHHPAVBaseChar@@@Z 0050c050 f   SOMap.obj
 0001:0010b0b0       ?DelCharID@SOMap@@AAEXHH@Z 0050c0b0 f   SOMap.obj
 0001:0010b110       ?SetItemID@SOMap@@AAEXHHGGH@Z 0050c110 f   SOMap.obj
 0001:0010b290       ?DelItemID@SOMap@@AAEXPAVSOPlayer@@HHH@Z 0050c290 f   SOMap.obj
 0001:0010b3c0       ?SetMap@SOMap@@QAEHPAULoadSaveMapTI@@@Z 0050c3c0 f   SOMap.obj
 0001:0010baa0       ?GetCharUniID@SOMap@@QAEHHHHHPAGGH@Z 0050caa0 f   SOMap.obj
 0001:0010bd00       ?GetCharUniID@SOMap@@QAEIHHH@Z 0050cd00 f   SOMap.obj
 0001:0010bed0       ?GetItemID@SOMap@@QAEHHHHHPAG0@Z 0050ced0 f   SOMap.obj
 0001:0010c020       ?GetItemID@SOMap@@QAEHHHPAG0@Z 0050d020 f   SOMap.obj
 0001:0010c120       ?CorrectionPos@SOMap@@QAEXPAH000@Z 0050d120 f i SOMap.obj
 0001:0010c220       ?GetID@SOMap@@QAEXHHHHPAGPAUOnlineReceiveFieldItemInfo@@00HG@Z 0050d220 f   SOMap.obj
 0001:0010c610       ?SearchMap@SOMap@@QAE?AUtagPOINT@@HHHHH@Z 0050d610 f   SOMap.obj
 0001:0010ce60       ?SetItemFromDB@SOMap@@QAEXXZ 0050de60 f   SOMap.obj
 0001:0010ced0       ?GetMapSize@SOMap@@QAE?AUtagSIZE@@XZ 0050ded0 f   SOMap.obj
 0001:0010cf30       ?GetVillageCode@SOMap@@QAEGXZ 0050df30 f   SOMap.obj
 0001:0010cf70       ?IsColl@SOMap@@QAEHHH@Z    0050df70 f   SOMap.obj
 0001:0010cfe0       ?IsColl@SOMap@@UAEHHHH@Z   0050dfe0 f   SOMap.obj
 0001:0010d0b0       ?IsDungeon@SOMap@@QAEHXZ   0050e0b0 f   SOMap.obj
 0001:0010d110       ?CanBeRainy@SOMap@@QAEHXZ  0050e110 f   SOMap.obj
 0001:0010d160       ?CanBeSnowy@SOMap@@QAEHXZ  0050e160 f   SOMap.obj
 0001:0010d1b0       ?InitSector@SOMap@@QAEHH@Z 0050e1b0 f   SOMap.obj
 0001:0010d300       ?FreeSector@SOMap@@QAEXH@Z 0050e300 f   SOMap.obj
 0001:0010d3d0       ?GetSectorIndex@SOMap@@QAEHHH@Z 0050e3d0 f   SOMap.obj
 0001:0010d430       ?AddCharToSector@SOMap@@QAEHHHPAVBaseChar@@@Z 0050e430 f   SOMap.obj
 0001:0010d4a0       ?AddCharToSector@SOMap@@QAEHHPAVBaseChar@@@Z 0050e4a0 f   SOMap.obj
 0001:0010d6a0       ?DelCharToSector@SOMap@@QAEXHHPAVBaseChar@@@Z 0050e6a0 f   SOMap.obj
 0001:0010d710       ?DelCharToSector@SOMap@@QAEXHPAVBaseChar@@@Z 0050e710 f   SOMap.obj
 0001:0010d960       ?AddItemToSector@SOMap@@QAEXHHPAUstrTI@@@Z 0050e960 f   SOMap.obj
 0001:0010da00       ?DelItemToSector@SOMap@@QAEXHHPAUstrTI@@@Z 0050ea00 f   SOMap.obj
 0001:0010daa0       ?SetItem@SOMap@@QAEHHHGGH@Z 0050eaa0 f   SOMap.obj
 0001:0010dcb0       ?DelItem@SOMap@@QAEHPAVSOPlayer@@HHH@Z 0050ecb0 f   SOMap.obj
 0001:0010dda0       ?Poll@SOMap@@QAEXH@Z       0050eda0 f   SOMap.obj
 0001:0010e190       ?IsPlayerInNearSector@SOMap@@AAEHH@Z 0050f190 f   SOMap.obj
 0001:0010e230       ?GetNearSectorPlayerList@SOMap@@QAEHHHPAGH@Z 0050f230 f   SOMap.obj
 0001:0010e480       ?GetNearSectorItemList@SOMap@@QAEHHHPAUOnlineReceiveFieldItemInfo@@@Z 0050f480 f   SOMap.obj
 0001:0010e600       ?GetSectorItemList@SOMap@@QAEHPAPAUstrSector@@PAUOnlineReceiveFieldItemInfo@@@Z 0050f600 f   SOMap.obj
 0001:0010e740       ?GetSectorPlayerList@SOMap@@QAEHPAPAUstrSector@@PAGH@Z 0050f740 f   SOMap.obj
 0001:0010e9c0       ?PrintSectorList@SOMap@@QAEXPAPAUstrSector@@@Z 0050f9c0 f   SOMap.obj
 0001:0010ea70       ?IsWarFieldMap@SOMap@@QAEHXZ 0050fa70 f   SOMap.obj
 0001:0010eab0       ?GetTileInfo@SOMap@@QAEHHHPAD@Z 0050fab0 f   SOMap.obj
 0001:0010ebc0       ?GetMapID@SOMap@@QAEGXZ    0050fbc0 f   SOMap.obj
 0001:0010ec00       ?InitStaticVariable@SOMap@@SAXPAVSOWorld@@@Z 0050fc00 f   SOMap.obj
 0001:0010ec30       ?IsNearSector@SOMap@@AAEHHH@Z 0050fc30 f   SOMap.obj
 0001:0010ecd0       ??0?$SStack@PAUstrTI@@@@QAE@XZ 0050fcd0 f i SOMap.obj
 0001:0010ed40       ??1?$SStack@PAUstrTI@@@@UAE@XZ 0050fd40 f i SOMap.obj
 0001:0010ed90       ?Create@?$SStack@PAUstrTI@@@@QAEHH@Z 0050fd90 f i SOMap.obj
 0001:0010ee30       ?Release@?$SStack@PAUstrTI@@@@QAEXXZ 0050fe30 f i SOMap.obj
 0001:0010eec0       ?Add@?$SStack@PAUstrTI@@@@QAEHPAUstrTI@@@Z 0050fec0 f i SOMap.obj
 0001:0010ef60       ?DeleteType@?$SStack@PAUstrTI@@@@QAEHPAUstrTI@@@Z 0050ff60 f i SOMap.obj
 0001:0010f000       ??_E?$SStack@PAUstrTI@@@@UAEPAXI@Z 00510000 f i SOMap.obj
 0001:0010f000       ??_G?$SStack@PAUstrTI@@@@UAEPAXI@Z 00510000 f i SOMap.obj
 0001:0010f290       ?Delete@?$SStack@PAUstrTI@@@@QAEHH@Z 00510290 f i SOMap.obj
 0001:0010f340       ??0cSectorNode@@QAE@XZ     00510340 f i SOMap.obj
 0001:0010f3a0       ??1cSectorNode@@UAE@XZ     005103a0 f i SOMap.obj
 0001:0010f3f0       ??0cSectorList@@QAE@XZ     005103f0 f i SOMap.obj
 0001:0010f450       ??1cSectorList@@UAE@XZ     00510450 f i SOMap.obj
 0001:0010f4a0       ??_EcSectorList@@UAEPAXI@Z 005104a0 f i SOMap.obj
 0001:0010f4a0       ??_GcSectorList@@UAEPAXI@Z 005104a0 f i SOMap.obj
 0001:0010f510       ?IsValidSectorIndex@SOMap@@QAEHH@Z 00510510 f i SOMap.obj
 0001:0010f610       ??0NPCKI@@QAE@XZ           00510610 f   SONPCKI.obj
 0001:0010f670       ??1NPCKI@@QAE@XZ           00510670 f   SONPCKI.obj
 0001:0010f6c0       ?Init@NPCKI@@QAEXGFF@Z     005106c0 f   SONPCKI.obj
 0001:0010f720       ?Free@NPCKI@@QAEXXZ        00510720 f   SONPCKI.obj
 0001:0010f770       ?GetID@NPCKI@@QAEGXZ       00510770 f   SONPCKI.obj
 0001:0010f7b0       ?GetMoveSpeed@NPCKI@@QAEGXZ 005107b0 f   SONPCKI.obj
 0001:0010f7f0       ??0cltSOShip@@QAE@XZ       005107f0 f   SOShip.obj
 0001:0010f940       ??_GcltSOShip@@UAEPAXI@Z   00510940 f i SOShip.obj
 0001:0010f940       ??_EcltSOShip@@UAEPAXI@Z   00510940 f i SOShip.obj
 0001:0010f9b0       ??1cltSOShip@@UAE@XZ       005109b0 f   SOShip.obj
 0001:0010fa90       ?Init@cltSOShip@@QAEHGGGIIHGPAG@Z 00510a90 f   SOShip.obj
 0001:0010ff30       ?Free@cltSOShip@@QAEXXZ    00510f30 f   SOShip.obj
 0001:00110060       ?Poll@cltSOShip@@QAEHXZ    00511060 f   SOShip.obj
 0001:00110730       ?Arrive@cltSOShip@@QAEXXZ  00511730 f   SOShip.obj
 0001:00110800       ?LogOutPlayer@cltSOShip@@QAEXGH@Z 00511800 f   SOShip.obj
 0001:00110870       ?GetInfo@cltSOShip@@QAEXPAUOnCharShipInfo@@@Z 00511870 f   SOShip.obj
 0001:001108c0       ?GetCustomers@cltSOShip@@QAEGPAG@Z 005118c0 f   SOShip.obj
 0001:00110950       ??0?$SStack@H@@QAE@XZ      00511950 f i SOShip.obj
 0001:001109c0       ??1?$SStack@H@@UAE@XZ      005119c0 f i SOShip.obj
 0001:00110a10       ?Create@?$SStack@H@@QAEHH@Z 00511a10 f i SOShip.obj
 0001:00110ab0       ?Release@?$SStack@H@@QAEXXZ 00511ab0 f i SOShip.obj
 0001:00110b40       ?Add@?$SStack@H@@QAEHH@Z   00511b40 f i SOShip.obj
 0001:00110be0       ?DeleteAll@?$SStack@H@@QAEXXZ 00511be0 f i SOShip.obj
 0001:00110c20       ?DeleteType@?$SStack@H@@QAEHH@Z 00511c20 f i SOShip.obj
 0001:00110cc0       ??_G?$SStack@H@@UAEPAXI@Z  00511cc0 f i SOShip.obj
 0001:00110cc0       ??_E?$SStack@H@@UAEPAXI@Z  00511cc0 f i SOShip.obj
 0001:00110d30       ?Delete@?$SStack@H@@QAEHH@Z 00511d30 f i SOShip.obj
 0001:00111090       ?SendFieldMsg@cltSOShip@@UAEHHHPAX00000@Z 00512090 f   SOShip_SendFieldMsg.obj
 0001:00111590       ?BuyItemInMarket@SOVillage@@QAEKPAVSOPlayer@@EGGF@Z 00512590 f   SOVillage-Market.obj
 0001:00111920       ?SellItemInMarket@SOVillage@@QAEKPAVSOPlayer@@EGG@Z 00512920 f   SOVillage-Market.obj
 0001:00111fe0       ??0SOVillage@@QAE@XZ       00512fe0 f   SOVillage.obj
 0001:00112150       ??1SOVillage@@QAE@XZ       00513150 f   SOVillage.obj
 0001:001124c0       ??_GstINNData@@QAEPAXI@Z   005134c0 f i SOVillage.obj
 0001:00112530       ??1stINNData@@QAE@XZ       00513530 f i SOVillage.obj
 0001:001125d0       ?Init@SOVillage@@QAEHPAUVillageHeader@@@Z 005135d0 f   SOVillage.obj
 0001:00112ae0       ?PlayerLogOut@SOVillage@@QAEXPAVSOPlayer@@@Z 00513ae0 f   SOVillage.obj
 0001:00112b30       ?Poll@SOVillage@@QAEXXZ    00513b30 f   SOVillage.obj
 0001:001139f0       ?EnterVillage@SOVillage@@QAEHPAVSOPlayer@@@Z 005149f0 f   SOVillage.obj
 0001:00113a40       ?GetMapID@SOVillage@@QAEGXZ 00514a40 f   SOVillage.obj
 0001:00113a80       ?GetDescription@SOVillage@@QAEXXZ 00514a80 f   SOVillage.obj
 0001:00113b10       ?SetNationCode@SOVillage@@QAEHD@Z 00514b10 f   SOVillage.obj
 0001:00113b90       ?GetNationCode@SOVillage@@QAEXXZ 00514b90 f   SOVillage.obj
 0001:00113c00       ?GetVillageName@SOVillage@@QAEPADXZ 00514c00 f   SOVillage.obj
 0001:00113c60       ?DoesStructureExist@SOVillage@@QAEHH@Z 00514c60 f   SOVillage.obj
 0001:00113ce0       ?GetVillageInOutPlayer@SOVillage@@QAEHXZ 00514ce0 f   SOVillage.obj
 0001:00113d30       ?PrepareVillageInOutPlayer@SOVillage@@QAEXXZ 00514d30 f   SOVillage.obj
 0001:00113dc0       ?GetGuildNID@SOVillage@@QAEIXZ 00514dc0 f   SOVillage.obj
 0001:00113e00       ?GetGuildSID@SOVillage@@QAEPADXZ 00514e00 f   SOVillage.obj
 0001:00113e60       ?SetOwnerGuild@SOVillage@@QAEXIH@Z 00514e60 f   SOVillage.obj
 0001:00113f30       ?GetVillageState@SOVillage@@QAEHXZ 00514f30 f   SOVillage.obj
 0001:00113ff0       ?SetHNSID@SOVillage@@QAEHPAD@Z 00514ff0 f   SOVillage.obj
 0001:001141e0       ?GetHighestGuildClass@SOVillage@@QAEHPAD@Z 005151e0 f   SOVillage.obj
 0001:00114280       ?IsVestInvestmentorAndGuildMember@SOVillage@@QAEHPBD@Z 00515280 f   SOVillage.obj
 0001:00114330       ?DeleteGuildClass@SOVillage@@QAEHPAD@Z 00515330 f   SOVillage.obj
 0001:001143e0       ?DeleteGuild@SOVillage@@QAEXXZ 005153e0 f   SOVillage.obj
 0001:00114490       ?DismissalHNS@SOVillage@@QAEXXZ 00515490 f   SOVillage.obj
 0001:00114640       ?GetVillageInfo@SOVillage@@QAEKPAVSOPlayer@@PAUOnRecvVillageInfo@@@Z 00515640 f   SOVillage.obj
 0001:001148a0       ?GetGuildFlag@SOVillage@@QAEHXZ 005158a0 f   SOVillage.obj
 0001:001148e0       ?ChangeGuildFlag@SOVillage@@QAEXH@Z 005158e0 f   SOVillage.obj
 0001:00114920       ?GetVillageCapital@SOVillage@@QAEHXZ 00515920 f   SOVillage.obj
 0001:00114980       ?GetOwnFactory@SOVillage@@QAEPAUstFarmData@@HE@Z 00515980 f   SOVillage.obj
 0001:001149e0       ?InitStaticVariable@SOVillage@@SAXPAVSOWorld@@@Z 005159e0 f   SOVillage.obj
 0001:00114ab0       ?InitStructure@SOVillage@@AAEHPAUVillageHeader@@@Z 00515ab0 f   SOVillage.obj
 0001:001150c0       ?EnterStructure@SOVillage@@QAEHPAVSOPlayer@@HJJ@Z 005160c0 f   SOVillage.obj
 0001:00115390       ?LeaveStructure@SOVillage@@QAEHPAVSOPlayer@@@Z 00516390 f   SOVillage.obj
 0001:00115670       ?DoesHospitalExist@SOVillage@@QAEHXZ 00516670 f   SOVillage.obj
 0001:001156c0       ?DoesMarketExist@SOVillage@@QAEHXZ 005166c0 f   SOVillage.obj
 0001:00115770       ?DoesFactoryExist@SOVillage@@QAEHXZ 00516770 f   SOVillage.obj
 0001:00115840       ?DoesBankExist@SOVillage@@QAEHXZ 00516840 f   SOVillage.obj
 0001:00115890       ?GetInfo@SOVillage@@QAEXPAUOnGuildVillageInfo@@@Z 00516890 f   SOVillage.obj
 0001:00115980       ?InitDamageAttackedByGuild@SOVillage@@AAEXXZ 00516980 f   SOVillage.obj
 0001:001159e0       ?AddDamageAttackedByGuild@SOVillage@@AAEXIH@Z 005169e0 f   SOVillage.obj
 0001:00115ae0       ?RewardToGuildForDestroyVillage@SOVillage@@AAEX_J@Z 00516ae0 f   SOVillage.obj
 0001:00115df0       ?GetAttackGuildSlot@SOVillage@@AAEHI@Z 00516df0 f   SOVillage.obj
 0001:00115eb0       ?EnterAttackVillageTimeZone@SOVillage@@QAEXXZ 00516eb0 f   SOVillage.obj
 0001:00115f00       ?LeaveAttackVillageTimeZone@SOVillage@@QAEXXZ 00516f00 f   SOVillage.obj
 0001:00115f80       ?GetNextMarketDay@SOVillage@@QAEHXZ 00516f80 f   SOVillage.obj
 0001:00115fc0       ?SetNextMarketDay@SOVillage@@QAEXXZ 00516fc0 f   SOVillage.obj
 0001:001160d0       ?InitMarketDay@SOVillage@@QAEXXZ 005170d0 f   SOVillage.obj
 0001:00116130       ?GetPopulation@SOVillage@@QAEIXZ 00517130 f   SOVillage.obj
 0001:00116170       ?CheckDecreasePopulation@SOVillage@@QAEHI@Z 00517170 f   SOVillage.obj
 0001:001161e0       ?LimitDecreasePopulation@SOVillage@@QAEHI@Z 005171e0 f   SOVillage.obj
 0001:00116240       ?DecreasePopulation@SOVillage@@QAEXI@Z 00517240 f   SOVillage.obj
 0001:00116290       ?IncreasePopulation@SOVillage@@QAEXI@Z 00517290 f   SOVillage.obj
 0001:001162e0       ?GetDBPopulation@SOVillage@@QAEHXZ 005172e0 f   SOVillage.obj
 0001:00116600       ?SetDBPopulation@SOVillage@@QAEXXZ 00517600 f   SOVillage.obj
 0001:001169d0       ?SetVillageAttackType@SOVillage@@QAEXF@Z 005179d0 f   SOVillage.obj
 0001:00116a80       ?InitializeVillageAttackType@SOVillage@@QAEXXZ 00517a80 f   SOVillage.obj
 0001:00116ad0       ?GetVillageAttackType@SOVillage@@QAEFXZ 00517ad0 f   SOVillage.obj
 0001:00116b10       ?SendVillageToPlayerAtAttackType@SOVillage@@QAEFF@Z 00517b10 f   SOVillage.obj
 0001:00116c70       ?GetVillageAttackTypeDelayCheck@SOVillage@@QAEHXZ 00517c70 f   SOVillage.obj
 0001:00116cb0       ?AttackDamage@SOVillage@@QAEHPAVSOPlayer@@FH@Z 00517cb0 f   SOVillage.obj
 0001:00117110       ?RepairVillageDefence@SOVillage@@QAEX_JH@Z 00518110 f   SOVillage.obj
 0001:00117300       ?AutoRestorationDefence@SOVillage@@QAEHE@Z 00518300 f   SOVillage.obj
 0001:001174d0       ?AutoRestorationVillageDefence@SOVillage@@QAEXH@Z 005184d0 f   SOVillage.obj
 0001:00117660       ?SaveDefenceToDB@SOVillage@@QAEXXZ 00518660 f   SOVillage.obj
 0001:00117750       ?IncreaseVillageDefence@SOVillage@@QAEX_J@Z 00518750 f   SOVillage.obj
 0001:00117890       ?DecreaseVillageDefence@SOVillage@@QAEX_J@Z 00518890 f   SOVillage.obj
 0001:00117940       ?GetVillageDefence@SOVillage@@QAE_JXZ 00518940 f   SOVillage.obj
 0001:00117980       ?GetEmptySlot@SOVillage@@QAEHXZ 00518980 f   SOVillage.obj
 0001:00117a20       ?SetCharName@SOVillage@@QAEHPAD@Z 00518a20 f   SOVillage.obj
 0001:00117ae0       ?FindCharName@SOVillage@@QAEHPAD@Z 00518ae0 f   SOVillage.obj
 0001:00117b80       ?DeletCharName@SOVillage@@QAEHPAD@Z 00518b80 f   SOVillage.obj
 0001:00117c50       ?CheckBestInvestment@SOVillage@@QAEXXZ 00518c50 f   SOVillage.obj
 0001:00117dd0       ?CheckGuild@SOVillage@@QAEHXZ 00518dd0 f   SOVillage.obj
 0001:001180e0       ?OpenSavingAccount@SOVillage@@QAEHPAVSOPlayer@@PAUOnReqBankOpenSavingAccountMsg@@PAUOnAccountNumber@@@Z 005190e0 f   SOVillage_Bank.obj
 0001:00118170       ?BankDeposit@SOVillage@@QAEHPAVSOPlayer@@PAUOnReqBankDepositMsg@@@Z 00519170 f   SOVillage_Bank.obj
 0001:001181f0       ?BankDrawing@SOVillage@@QAEHPAVSOPlayer@@PAUOnReqBankDrawingMsg@@@Z 005191f0 f   SOVillage_Bank.obj
 0001:00118270       ?IncreaseCapital@SOVillage@@QAE_J_JHH@Z 00519270 f   SOVillage_Bank.obj
 0001:00118410       ?DecreaseCapital@SOVillage@@QAEX_JHH@Z 00519410 f   SOVillage_Bank.obj
 0001:00118550       ?CalculateBankCapital@SOVillage@@QAEXXZ 00519550 f   SOVillage_Bank.obj
 0001:001185b0       ?SendBankInfo@SOVillage@@QAEXPAVSOPlayer@@@Z 005195b0 f   SOVillage_Bank.obj
 0001:00118b80       ?GetVillageInfo@SOVillage@@QAEXPAVSOPlayer@@@Z 00519b80 f   SOVillage_Investment.obj
 0001:00118ec0       ?Init@cltTrade@@QAEXXZ     00519ec0 f   Trade.obj
 0001:00118f10       ?SetState@cltTrade@@QAEXW4TradeState@@J@Z 00519f10 f   Trade.obj
 0001:00118fc0       ?GetState@cltTrade@@QAE?AW4TradeState@@XZ 00519fc0 f   Trade.obj
 0001:00119000       ?IsTrading@cltTrade@@QAEHXZ 0051a000 f   Trade.obj
 0001:00119050       ?IsWaitingAcceptTrade@cltTrade@@QAEHG@Z 0051a050 f   Trade.obj
 0001:001190e0       ?AcceptedTrade@cltTrade@@QAEHXZ 0051a0e0 f   Trade.obj
 0001:00119150       ?NotAcceptedTrade@cltTrade@@QAEHXZ 0051a150 f   Trade.obj
 0001:001191b0       ?CancelTrade@cltTrade@@QAEHXZ 0051a1b0 f   Trade.obj
 0001:00119210       ?IsAcceptedTrading@cltTrade@@QAEHG@Z 0051a210 f   Trade.obj
 0001:001192a0       ?GetTradePlayerAccount@cltTrade@@QAEGXZ 0051a2a0 f   Trade.obj
 0001:00119300       ?ChooseTradeItem@cltTrade@@QAEHXZ 0051a300 f   Trade.obj
 0001:00119370       ?IsChoseTradeItem@cltTrade@@QAEHG@Z 0051a370 f   Trade.obj
 0001:00119400       ?CancelChooseTradeItem@cltTrade@@QAEHXZ 0051a400 f   Trade.obj
 0001:00119460       ?DecideTrade@cltTrade@@QAEHXZ 0051a460 f   Trade.obj
 0001:001194c0       ?IsDecideTrading@cltTrade@@QAEHG@Z 0051a4c0 f   Trade.obj
 0001:00119540       ?CancelDecideTrading@cltTrade@@QAEHXZ 0051a540 f   Trade.obj
 0001:001195a0       ?CanAddTradeGoods@cltTrade@@QAEHEW4TradeGoodsKind@@JJ@Z 0051a5a0 f   Trade.obj
 0001:00119740       ?AddTradeGoods@cltTrade@@QAEHEW4TradeGoodsKind@@JJ@Z 0051a740 f   Trade.obj
 0001:00119820       ?GetTradeMoney@cltTrade@@QAEIXZ 0051a820 f   Trade.obj
 0001:00119880       ?GetTradeGoods@cltTrade@@QAEPAUstrTradeGoods@@XZ 0051a880 f   Trade.obj
 0001:001198e0       ?IsValidSlotID@cltTrade@@AAEHE@Z 0051a8e0 f   Trade.obj
 0001:00119940       ?IsSendingTradeBook@cltTrade@@QAEHXZ 0051a940 f   Trade.obj
 0001:00119990       ?DoesCompleteSendingTradeBook@cltTrade@@QAEHXZ 0051a990 f   Trade.obj
 0001:001199e0       ?DoesExistTradeGoods@cltTrade@@QAEHW4TradeGoodsKind@@@Z 0051a9e0 f   Trade.obj
 0001:00119a60       ?WillTradeFollower@cltTrade@@QAEHE@Z 0051aa60 f   Trade.obj
 0001:00119b00       ?WillTradeItemOfFollower@cltTrade@@QAEHE@Z 0051ab00 f   Trade.obj
 0001:00119ba0       ?IsTradingItem@cltTrade@@QAEHEG@Z 0051aba0 f   Trade.obj
 0001:00119c70       ??0UserCatalog@@QAE@XZ     0051ac70 f   UserCatalog.obj
 0001:00119d90       ?AddUser@UserCatalog@@QAEXKHHHHPADPAH1@Z 0051ad90 f   UserCatalog.obj
 0001:00119e20       ?sortByUniqueID@UserCatalog@@AAEXXZ 0051ae20 f   UserCatalog.obj
 0001:00119ed0       ?sortByScore@UserCatalog@@AAEXXZ 0051aed0 f   UserCatalog.obj
 0001:0011a050       ??1?$multimap@HPAVUser@@U?$greater@H@std@@V?$allocator@PAVUser@@@3@@std@@QAE@XZ 0051b050 f i UserCatalog.obj
 0001:0011a0a0       ?GetUser@UserCatalog@@QAEAAVUser@@H@Z 0051b0a0 f   UserCatalog.obj
 0001:0011a170       ?Free@UserCatalog@@AAEXXZ  0051b170 f   UserCatalog.obj
 0001:0011a1d0       ??0?$vector@VUser@@V?$allocator@VUser@@@std@@@std@@QAE@ABV?$allocator@VUser@@@1@@Z 0051b1d0 f i UserCatalog.obj
 0001:0011a240       ??0?$vector@VUser@@V?$allocator@VUser@@@std@@@std@@QAE@IABVUser@@ABV?$allocator@VUser@@@1@@Z 0051b240 f i UserCatalog.obj
 0001:0011a2f0       ?end@?$vector@VUser@@V?$allocator@VUser@@@std@@@std@@QAEPAVUser@@XZ 0051b2f0 f i UserCatalog.obj
 0001:0011a330       ?clear@?$vector@VUser@@V?$allocator@VUser@@@std@@@std@@QAEXXZ 0051b330 f i UserCatalog.obj
 0001:0011a390       ?swap@?$vector@VUser@@V?$allocator@VUser@@@std@@@std@@QAEXAAV12@@Z 0051b390 f i UserCatalog.obj
 0001:0011a4b0       ??0?$map@HPAVUser@@U?$less@H@std@@V?$allocator@PAVUser@@@3@@std@@QAE@ABU?$less@H@1@ABV?$allocator@PAVUser@@@1@@Z 0051b4b0 f i UserCatalog.obj
 0001:0011a510       ?end@?$map@HPAVUser@@U?$less@H@std@@V?$allocator@PAVUser@@@3@@std@@QAE?AViterator@?$_Tree@HU?$pair@$$CBHPAVUser@@@std@@U_Kfn@?$map@HPAVUser@@U?$less@H@std@@V?$allocator@PAVUser@@@3@@2@U?$less@H@2@V?$allocator@PAVUser@@@2@@2@XZ 0051b510 f i UserCatalog.obj
 0001:0011a560       ?insert@?$map@HPAVUser@@U?$less@H@std@@V?$allocator@PAVUser@@@3@@std@@QAE?AU?$pair@Viterator@?$_Tree@HU?$pair@$$CBHPAVUser@@@std@@U_Kfn@?$map@HPAVUser@@U?$less@H@std@@V?$allocator@PAVUser@@@3@@2@U?$less@H@2@V?$allocator@PAVUser@@@2@@std@@_N@2@ABU?$pair@$$CBHPAVUser@@@2@@Z 0051b560 f i UserCatalog.obj
 0001:0011a5d0       ?clear@?$map@HPAVUser@@U?$less@H@std@@V?$allocator@PAVUser@@@3@@std@@QAEXXZ 0051b5d0 f i UserCatalog.obj
 0001:0011a620       ?key_comp@?$map@HPAVUser@@U?$less@H@std@@V?$allocator@PAVUser@@@3@@std@@QBE?AU?$less@H@2@XZ 0051b620 f i UserCatalog.obj
 0001:0011a670       ?lower_bound@?$map@HPAVUser@@U?$less@H@std@@V?$allocator@PAVUser@@@3@@std@@QAE?AViterator@?$_Tree@HU?$pair@$$CBHPAVUser@@@std@@U_Kfn@?$map@HPAVUser@@U?$less@H@std@@V?$allocator@PAVUser@@@3@@2@U?$less@H@2@V?$allocator@PAVUser@@@2@@2@ABH@Z 0051b670 f i UserCatalog.obj
 0001:0011a6d0       ??R?$less@H@std@@QBE_NABH0@Z 0051b6d0 f i UserCatalog.obj
 0001:0011a720       ??0?$pair@$$CBHPAVUser@@@std@@QAE@ABHABQAVUser@@@Z 0051b720 f i UserCatalog.obj
 0001:0011a770       ??Citerator@?$_Tree@HU?$pair@$$CBHPAVUser@@@std@@U_Kfn@?$map@HPAVUser@@U?$less@H@std@@V?$allocator@PAVUser@@@3@@2@U?$less@H@2@V?$allocator@PAVUser@@@2@@std@@QBEPAU?$pair@$$CBHPAVUser@@@2@XZ 0051b770 f i UserCatalog.obj
 0001:0011a7c0       ??0?$multimap@HPAVUser@@U?$greater@H@std@@V?$allocator@PAVUser@@@3@@std@@QAE@ABU?$greater@H@1@ABV?$allocator@PAVUser@@@1@@Z 0051b7c0 f i UserCatalog.obj
 0001:0011a820       ?begin@?$multimap@HPAVUser@@U?$greater@H@std@@V?$allocator@PAVUser@@@3@@std@@QAE?AViterator@?$_Tree@HU?$pair@$$CBHPAVUser@@@std@@U_Kfn@?$multimap@HPAVUser@@U?$greater@H@std@@V?$allocator@PAVUser@@@3@@2@U?$greater@H@2@V?$allocator@PAVUser@@@2@@2@XZ 0051b820 f i UserCatalog.obj
 0001:0011a870       ?end@?$multimap@HPAVUser@@U?$greater@H@std@@V?$allocator@PAVUser@@@3@@std@@QAE?AViterator@?$_Tree@HU?$pair@$$CBHPAVUser@@@std@@U_Kfn@?$multimap@HPAVUser@@U?$greater@H@std@@V?$allocator@PAVUser@@@3@@2@U?$greater@H@2@V?$allocator@PAVUser@@@2@@2@XZ 0051b870 f i UserCatalog.obj
 0001:0011a8c0       ?insert@?$multimap@HPAVUser@@U?$greater@H@std@@V?$allocator@PAVUser@@@3@@std@@QAE?AViterator@?$_Tree@HU?$pair@$$CBHPAVUser@@@std@@U_Kfn@?$multimap@HPAVUser@@U?$greater@H@std@@V?$allocator@PAVUser@@@3@@2@U?$greater@H@2@V?$allocator@PAVUser@@@2@@2@ABU?$pair@$$CBHPAVUser@@@2@@Z 0051b8c0 f i UserCatalog.obj
 0001:0011a920       ?clear@?$multimap@HPAVUser@@U?$greater@H@std@@V?$allocator@PAVUser@@@3@@std@@QAEXXZ 0051b920 f i UserCatalog.obj
 0001:0011a970       ??1?$_Tree@HU?$pair@$$CBHPAVUser@@@std@@U_Kfn@?$multimap@HPAVUser@@U?$greater@H@std@@V?$allocator@PAVUser@@@3@@2@U?$greater@H@2@V?$allocator@PAVUser@@@2@@std@@QAE@XZ 0051b970 f i UserCatalog.obj
 0001:0011aa70       ??Citerator@?$_Tree@HU?$pair@$$CBHPAVUser@@@std@@U_Kfn@?$multimap@HPAVUser@@U?$greater@H@std@@V?$allocator@PAVUser@@@3@@2@U?$greater@H@2@V?$allocator@PAVUser@@@2@@std@@QBEPAU?$pair@$$CBHPAVUser@@@2@XZ 0051ba70 f i UserCatalog.obj
 0001:0011aac0       ??Eiterator@?$_Tree@HU?$pair@$$CBHPAVUser@@@std@@U_Kfn@?$multimap@HPAVUser@@U?$greater@H@std@@V?$allocator@PAVUser@@@3@@2@U?$greater@H@2@V?$allocator@PAVUser@@@2@@std@@QAEAAV012@XZ 0051bac0 f i UserCatalog.obj
 0001:0011ab10       ??9iterator@?$_Tree@HU?$pair@$$CBHPAVUser@@@std@@U_Kfn@?$multimap@HPAVUser@@U?$greater@H@std@@V?$allocator@PAVUser@@@3@@2@U?$greater@H@2@V?$allocator@PAVUser@@@2@@std@@QBE_NABV012@@Z 0051bb10 f i UserCatalog.obj
 0001:0011ab70       ??0?$vector@VUser@@V?$allocator@VUser@@@std@@@std@@QAE@ABV01@@Z 0051bb70 f i UserCatalog.obj
 0001:0011ac20       ??4?$vector@VUser@@V?$allocator@VUser@@@std@@@std@@QAEAAV01@ABV01@@Z 0051bc20 f i UserCatalog.obj
 0001:0011b080       ?erase@?$vector@VUser@@V?$allocator@VUser@@@std@@@std@@QAEPAVUser@@PAV3@0@Z 0051c080 f i UserCatalog.obj
 0001:0011b110       ?_Ufill@?$vector@VUser@@V?$allocator@VUser@@@std@@@std@@IAEXPAVUser@@IABV3@@Z 0051c110 f i UserCatalog.obj
 0001:0011b190       ?allocate@?$allocator@VUser@@@std@@QAEPAVUser@@IPBX@Z 0051c190 f i UserCatalog.obj
 0001:0011b1e0       ??0?$_Tree@HU?$pair@$$CBHPAVUser@@@std@@U_Kfn@?$map@HPAVUser@@U?$less@H@std@@V?$allocator@PAVUser@@@3@@2@U?$less@H@2@V?$allocator@PAVUser@@@2@@std@@QAE@ABU?$less@H@1@_NABV?$allocator@PAVUser@@@1@@Z 0051c1e0 f i UserCatalog.obj
 0001:0011b250       ?key_comp@?$_Tree@HU?$pair@$$CBHPAVUser@@@std@@U_Kfn@?$map@HPAVUser@@U?$less@H@std@@V?$allocator@PAVUser@@@3@@2@U?$less@H@2@V?$allocator@PAVUser@@@2@@std@@QBE?AU?$less@H@2@XZ 0051c250 f i UserCatalog.obj
 0001:0011b2a0       ?insert@?$_Tree@HU?$pair@$$CBHPAVUser@@@std@@U_Kfn@?$map@HPAVUser@@U?$less@H@std@@V?$allocator@PAVUser@@@3@@2@U?$less@H@2@V?$allocator@PAVUser@@@2@@std@@QAE?AU?$pair@Viterator@?$_Tree@HU?$pair@$$CBHPAVUser@@@std@@U_Kfn@?$map@HPAVUser@@U?$less@H@std@@V?$allocator@PAVUser@@@3@@2@U?$less@H@2@V?$allocator@PAVUser@@@2@@std@@_N@2@ABU?$pair@$$CBHPAVUser@@@2@@Z 0051c2a0 f i UserCatalog.obj
 0001:0011b510       ?clear@?$_Tree@HU?$pair@$$CBHPAVUser@@@std@@U_Kfn@?$map@HPAVUser@@U?$less@H@std@@V?$allocator@PAVUser@@@3@@2@U?$less@H@2@V?$allocator@PAVUser@@@2@@std@@QAEXXZ 0051c510 f i UserCatalog.obj
 0001:0011b580       ?lower_bound@?$_Tree@HU?$pair@$$CBHPAVUser@@@std@@U_Kfn@?$map@HPAVUser@@U?$less@H@std@@V?$allocator@PAVUser@@@3@@2@U?$less@H@2@V?$allocator@PAVUser@@@2@@std@@QAE?AViterator@12@ABH@Z 0051c580 f i UserCatalog.obj
 0001:0011b5e0       ??Diterator@?$_Tree@HU?$pair@$$CBHPAVUser@@@std@@U_Kfn@?$map@HPAVUser@@U?$less@H@std@@V?$allocator@PAVUser@@@3@@2@U?$less@H@2@V?$allocator@PAVUser@@@2@@std@@QBEAAU?$pair@$$CBHPAVUser@@@2@XZ 0051c5e0 f i UserCatalog.obj
 0001:0011b630       ??0?$pair@Viterator@?$_Tree@HU?$pair@$$CBHPAVUser@@@std@@U_Kfn@?$map@HPAVUser@@U?$less@H@std@@V?$allocator@PAVUser@@@3@@2@U?$less@H@2@V?$allocator@PAVUser@@@2@@std@@_N@std@@QAE@ABViterator@?$_Tree@HU?$pair@$$CBHPAVUser@@@std@@U_Kfn@?$map@HPAVUser@@U?$less@H@std@@V?$allocator@PAVUser@@@3@@2@U?$less@H@2@V?$allocator@PAVUser@@@2@@1@AB_N@Z 0051c630 f i UserCatalog.obj
 0001:0011b680       ??0?$_Tree@HU?$pair@$$CBHPAVUser@@@std@@U_Kfn@?$multimap@HPAVUser@@U?$greater@H@std@@V?$allocator@PAVUser@@@3@@2@U?$greater@H@2@V?$allocator@PAVUser@@@2@@std@@QAE@ABU?$greater@H@1@_NABV?$allocator@PAVUser@@@1@@Z 0051c680 f i UserCatalog.obj
 0001:0011b6f0       ?begin@?$_Tree@HU?$pair@$$CBHPAVUser@@@std@@U_Kfn@?$multimap@HPAVUser@@U?$greater@H@std@@V?$allocator@PAVUser@@@3@@2@U?$greater@H@2@V?$allocator@PAVUser@@@2@@std@@QAE?AViterator@12@XZ 0051c6f0 f i UserCatalog.obj
 0001:0011b750       ?end@?$_Tree@HU?$pair@$$CBHPAVUser@@@std@@U_Kfn@?$multimap@HPAVUser@@U?$greater@H@std@@V?$allocator@PAVUser@@@3@@2@U?$greater@H@2@V?$allocator@PAVUser@@@2@@std@@QAE?AViterator@12@XZ 0051c750 f i UserCatalog.obj
 0001:0011b7b0       ?insert@?$_Tree@HU?$pair@$$CBHPAVUser@@@std@@U_Kfn@?$multimap@HPAVUser@@U?$greater@H@std@@V?$allocator@PAVUser@@@3@@2@U?$greater@H@2@V?$allocator@PAVUser@@@2@@std@@QAE?AU?$pair@Viterator@?$_Tree@HU?$pair@$$CBHPAVUser@@@std@@U_Kfn@?$multimap@HPAVUser@@U?$greater@H@std@@V?$allocator@PAVUser@@@3@@2@U?$greater@H@2@V?$allocator@PAVUser@@@2@@std@@_N@2@ABU?$pair@$$CBHPAVUser@@@2@@Z 0051c7b0 f i UserCatalog.obj
 0001:0011ba20       ?erase@?$_Tree@HU?$pair@$$CBHPAVUser@@@std@@U_Kfn@?$multimap@HPAVUser@@U?$greater@H@std@@V?$allocator@PAVUser@@@3@@2@U?$greater@H@2@V?$allocator@PAVUser@@@2@@std@@QAE?AViterator@12@V312@0@Z 0051ca20 f i UserCatalog.obj
 0001:0011bb80       ?clear@?$_Tree@HU?$pair@$$CBHPAVUser@@@std@@U_Kfn@?$multimap@HPAVUser@@U?$greater@H@std@@V?$allocator@PAVUser@@@3@@2@U?$greater@H@2@V?$allocator@PAVUser@@@2@@std@@QAEXXZ 0051cb80 f i UserCatalog.obj
 0001:0011bbf0       ?_Freenode@?$_Tree@HU?$pair@$$CBHPAVUser@@@std@@U_Kfn@?$multimap@HPAVUser@@U?$greater@H@std@@V?$allocator@PAVUser@@@3@@2@U?$greater@H@2@V?$allocator@PAVUser@@@2@@std@@IAEXPAU_Node@12@@Z 0051cbf0 f i UserCatalog.obj
 0001:0011bc40       ?_Inc@const_iterator@?$_Tree@HU?$pair@$$CBHPAVUser@@@std@@U_Kfn@?$multimap@HPAVUser@@U?$greater@H@std@@V?$allocator@PAVUser@@@3@@2@U?$greater@H@2@V?$allocator@PAVUser@@@2@@std@@QAEXXZ 0051cc40 f i UserCatalog.obj
 0001:0011bd30       ??Diterator@?$_Tree@HU?$pair@$$CBHPAVUser@@@std@@U_Kfn@?$multimap@HPAVUser@@U?$greater@H@std@@V?$allocator@PAVUser@@@3@@2@U?$greater@H@2@V?$allocator@PAVUser@@@2@@std@@QBEAAU?$pair@$$CBHPAVUser@@@2@XZ 0051cd30 f i UserCatalog.obj
 0001:0011bd80       ??8iterator@?$_Tree@HU?$pair@$$CBHPAVUser@@@std@@U_Kfn@?$multimap@HPAVUser@@U?$greater@H@std@@V?$allocator@PAVUser@@@3@@2@U?$greater@H@2@V?$allocator@PAVUser@@@2@@std@@QBE_NABV012@@Z 0051cd80 f i UserCatalog.obj
 0001:0011bdd0       ?capacity@?$vector@VUser@@V?$allocator@VUser@@@std@@@std@@QBEIXZ 0051cdd0 f i UserCatalog.obj
 0001:0011be40       ?begin@?$vector@VUser@@V?$allocator@VUser@@@std@@@std@@QBEPBVUser@@XZ 0051ce40 f i UserCatalog.obj
 0001:0011be80       ?end@?$vector@VUser@@V?$allocator@VUser@@@std@@@std@@QBEPBVUser@@XZ 0051ce80 f i UserCatalog.obj
 0001:0011bec0       ?size@?$vector@VUser@@V?$allocator@VUser@@@std@@@std@@QBEIXZ 0051cec0 f i UserCatalog.obj
 0001:0011bf30       ?_Ucopy@?$vector@VUser@@V?$allocator@VUser@@@std@@@std@@IAEPAVUser@@PBV3@0PAV3@@Z 0051cf30 f i UserCatalog.obj
 0001:0011bfb0       ?construct@?$allocator@VUser@@@std@@QAEXPAVUser@@ABV3@@Z 0051cfb0 f i UserCatalog.obj
 0001:0011c000       ??R_Kfn@?$map@HPAVUser@@U?$less@H@std@@V?$allocator@PAVUser@@@3@@std@@QBEABHABU?$pair@$$CBHPAVUser@@@2@@Z 0051d000 f i UserCatalog.obj
 0001:0011c040       ?_Key@?$_Tree@HU?$pair@$$CBHPAVUser@@@std@@U_Kfn@?$map@HPAVUser@@U?$less@H@std@@V?$allocator@PAVUser@@@3@@2@U?$less@H@2@V?$allocator@PAVUser@@@2@@std@@KAABHPAU_Node@12@@Z 0051d040 f i UserCatalog.obj
 0001:0011c090       ?Init@User@@QAEXHHHHHPADPAH1@Z 0051d090 f i UserCatalog.obj
 0001:0011c170       ??0User@@QAE@XZ            0051d170 f i UserCatalog.obj
 0001:0011c1e0       ?SetRank@User@@QAEXH@Z     0051d1e0 f i UserCatalog.obj
 0001:0011c220       ?_Init@?$_Tree@HU?$pair@$$CBHPAVUser@@@std@@U_Kfn@?$map@HPAVUser@@U?$less@H@std@@V?$allocator@PAVUser@@@3@@2@U?$less@H@2@V?$allocator@PAVUser@@@2@@std@@IAEXXZ 0051d220 f i UserCatalog.obj
 0001:0011c390       ?_Insert@?$_Tree@HU?$pair@$$CBHPAVUser@@@std@@U_Kfn@?$map@HPAVUser@@U?$less@H@std@@V?$allocator@PAVUser@@@3@@2@U?$less@H@2@V?$allocator@PAVUser@@@2@@std@@IAE?AViterator@12@PAU_Node@12@0ABU?$pair@$$CBHPAVUser@@@2@@Z 0051d390 f i UserCatalog.obj
 0001:0011c960       ?_Lbound@?$_Tree@HU?$pair@$$CBHPAVUser@@@std@@U_Kfn@?$map@HPAVUser@@U?$less@H@std@@V?$allocator@PAVUser@@@3@@2@U?$less@H@2@V?$allocator@PAVUser@@@2@@std@@IBEPAU_Node@12@ABH@Z 0051d960 f i UserCatalog.obj
 0001:0011ca30       ??Fiterator@?$_Tree@HU?$pair@$$CBHPAVUser@@@std@@U_Kfn@?$map@HPAVUser@@U?$less@H@std@@V?$allocator@PAVUser@@@3@@2@U?$less@H@2@V?$allocator@PAVUser@@@2@@std@@QAEAAV012@XZ 0051da30 f i UserCatalog.obj
 0001:0011ca80       ??R_Kfn@?$multimap@HPAVUser@@U?$greater@H@std@@V?$allocator@PAVUser@@@3@@std@@QBEABHABU?$pair@$$CBHPAVUser@@@2@@Z 0051da80 f i UserCatalog.obj
 0001:0011cac0       ??R?$greater@H@std@@QBE_NABH0@Z 0051dac0 f i UserCatalog.obj
 0001:0011cb10       ?_Key@?$_Tree@HU?$pair@$$CBHPAVUser@@@std@@U_Kfn@?$multimap@HPAVUser@@U?$greater@H@std@@V?$allocator@PAVUser@@@3@@2@U?$greater@H@2@V?$allocator@PAVUser@@@2@@std@@KAABHPAU_Node@12@@Z 0051db10 f i UserCatalog.obj
 0001:0011cb60       ?_Left@?$_Tree@HU?$pair@$$CBHPAVUser@@@std@@U_Kfn@?$multimap@HPAVUser@@U?$greater@H@std@@V?$allocator@PAVUser@@@3@@2@U?$greater@H@2@V?$allocator@PAVUser@@@2@@std@@KAAAPAU_Node@12@PAU312@@Z 0051db60 f i UserCatalog.obj
 0001:0011cb90       ?_Parent@?$_Tree@HU?$pair@$$CBHPAVUser@@@std@@U_Kfn@?$multimap@HPAVUser@@U?$greater@H@std@@V?$allocator@PAVUser@@@3@@2@U?$greater@H@2@V?$allocator@PAVUser@@@2@@std@@KAAAPAU_Node@12@PAU312@@Z 0051db90 f i UserCatalog.obj
 0001:0011cbc0       ?_Right@?$_Tree@HU?$pair@$$CBHPAVUser@@@std@@U_Kfn@?$multimap@HPAVUser@@U?$greater@H@std@@V?$allocator@PAVUser@@@3@@2@U?$greater@H@2@V?$allocator@PAVUser@@@2@@std@@KAAAPAU_Node@12@PAU312@@Z 0051dbc0 f i UserCatalog.obj
 0001:0011cbf0       ?_Value@?$_Tree@HU?$pair@$$CBHPAVUser@@@std@@U_Kfn@?$multimap@HPAVUser@@U?$greater@H@std@@V?$allocator@PAVUser@@@3@@2@U?$greater@H@2@V?$allocator@PAVUser@@@2@@std@@KAAAU?$pair@$$CBHPAVUser@@@2@PAU_Node@12@@Z 0051dbf0 f i UserCatalog.obj
 0001:0011cc20       ?size@?$_Tree@HU?$pair@$$CBHPAVUser@@@std@@U_Kfn@?$multimap@HPAVUser@@U?$greater@H@std@@V?$allocator@PAVUser@@@3@@2@U?$greater@H@2@V?$allocator@PAVUser@@@2@@std@@QBEIXZ 0051dc20 f i UserCatalog.obj
 0001:0011cc60       ?erase@?$_Tree@HU?$pair@$$CBHPAVUser@@@std@@U_Kfn@?$multimap@HPAVUser@@U?$greater@H@std@@V?$allocator@PAVUser@@@3@@2@U?$greater@H@2@V?$allocator@PAVUser@@@2@@std@@QAE?AViterator@12@V312@@Z 0051dc60 f i UserCatalog.obj
 0001:0011d6f0       ?_Erase@?$_Tree@HU?$pair@$$CBHPAVUser@@@std@@U_Kfn@?$multimap@HPAVUser@@U?$greater@H@std@@V?$allocator@PAVUser@@@3@@2@U?$greater@H@2@V?$allocator@PAVUser@@@2@@std@@IAEXPAU_Node@12@@Z 0051e6f0 f i UserCatalog.obj
 0001:0011d7b0       ?_Init@?$_Tree@HU?$pair@$$CBHPAVUser@@@std@@U_Kfn@?$multimap@HPAVUser@@U?$greater@H@std@@V?$allocator@PAVUser@@@3@@2@U?$greater@H@2@V?$allocator@PAVUser@@@2@@std@@IAEXXZ 0051e7b0 f i UserCatalog.obj
 0001:0011d920       ?_Insert@?$_Tree@HU?$pair@$$CBHPAVUser@@@std@@U_Kfn@?$multimap@HPAVUser@@U?$greater@H@std@@V?$allocator@PAVUser@@@3@@2@U?$greater@H@2@V?$allocator@PAVUser@@@2@@std@@IAE?AViterator@12@PAU_Node@12@0ABU?$pair@$$CBHPAVUser@@@2@@Z 0051e920 f i UserCatalog.obj
 0001:0011def0       ?_Lmost@?$_Tree@HU?$pair@$$CBHPAVUser@@@std@@U_Kfn@?$multimap@HPAVUser@@U?$greater@H@std@@V?$allocator@PAVUser@@@3@@2@U?$greater@H@2@V?$allocator@PAVUser@@@2@@std@@IAEAAPAU_Node@12@XZ 0051eef0 f i UserCatalog.obj
 0001:0011df40       ?_Min@?$_Tree@HU?$pair@$$CBHPAVUser@@@std@@U_Kfn@?$multimap@HPAVUser@@U?$greater@H@std@@V?$allocator@PAVUser@@@3@@2@U?$greater@H@2@V?$allocator@PAVUser@@@2@@std@@KAPAU_Node@12@PAU312@@Z 0051ef40 f i UserCatalog.obj
 0001:0011dfb0       ?_Rmost@?$_Tree@HU?$pair@$$CBHPAVUser@@@std@@U_Kfn@?$multimap@HPAVUser@@U?$greater@H@std@@V?$allocator@PAVUser@@@3@@2@U?$greater@H@2@V?$allocator@PAVUser@@@2@@std@@IAEAAPAU_Node@12@XZ 0051efb0 f i UserCatalog.obj
 0001:0011e000       ?_Root@?$_Tree@HU?$pair@$$CBHPAVUser@@@std@@U_Kfn@?$multimap@HPAVUser@@U?$greater@H@std@@V?$allocator@PAVUser@@@3@@2@U?$greater@H@2@V?$allocator@PAVUser@@@2@@std@@IAEAAPAU_Node@12@XZ 0051f000 f i UserCatalog.obj
 0001:0011e050       ?_Mynode@const_iterator@?$_Tree@HU?$pair@$$CBHPAVUser@@@std@@U_Kfn@?$multimap@HPAVUser@@U?$greater@H@std@@V?$allocator@PAVUser@@@3@@2@U?$greater@H@2@V?$allocator@PAVUser@@@2@@std@@QBEPAU_Node@23@XZ 0051f050 f i UserCatalog.obj
 0001:0011e090       ??0iterator@?$_Tree@HU?$pair@$$CBHPAVUser@@@std@@U_Kfn@?$multimap@HPAVUser@@U?$greater@H@std@@V?$allocator@PAVUser@@@3@@2@U?$greater@H@2@V?$allocator@PAVUser@@@2@@std@@QAE@PAU_Node@12@@Z 0051f090 f i UserCatalog.obj
 0001:0011e0e0       ??Eiterator@?$_Tree@HU?$pair@$$CBHPAVUser@@@std@@U_Kfn@?$multimap@HPAVUser@@U?$greater@H@std@@V?$allocator@PAVUser@@@3@@2@U?$greater@H@2@V?$allocator@PAVUser@@@2@@std@@QAE?AV012@H@Z 0051f0e0 f i UserCatalog.obj
 0001:0011e140       ??Fiterator@?$_Tree@HU?$pair@$$CBHPAVUser@@@std@@U_Kfn@?$multimap@HPAVUser@@U?$greater@H@std@@V?$allocator@PAVUser@@@3@@2@U?$greater@H@2@V?$allocator@PAVUser@@@2@@std@@QAEAAV012@XZ 0051f140 f i UserCatalog.obj
 0001:0011e190       ??0?$pair@Viterator@?$_Tree@HU?$pair@$$CBHPAVUser@@@std@@U_Kfn@?$multimap@HPAVUser@@U?$greater@H@std@@V?$allocator@PAVUser@@@3@@2@U?$greater@H@2@V?$allocator@PAVUser@@@2@@std@@_N@std@@QAE@ABViterator@?$_Tree@HU?$pair@$$CBHPAVUser@@@std@@U_Kfn@?$multimap@HPAVUser@@U?$greater@H@std@@V?$allocator@PAVUser@@@3@@2@U?$greater@H@2@V?$allocator@PAVUser@@@2@@1@AB_N@Z 0051f190 f i UserCatalog.obj
 0001:0011e1e0       ?_Root@?$_Tree@HU?$pair@$$CBHPAVUser@@@std@@U_Kfn@?$map@HPAVUser@@U?$less@H@std@@V?$allocator@PAVUser@@@3@@2@U?$less@H@2@V?$allocator@PAVUser@@@2@@std@@IBEAAPAU_Node@12@XZ 0051f1e0 f i UserCatalog.obj
 0001:0011e230       ?_Buynode@?$_Tree@HU?$pair@$$CBHPAVUser@@@std@@U_Kfn@?$map@HPAVUser@@U?$less@H@std@@V?$allocator@PAVUser@@@3@@2@U?$less@H@2@V?$allocator@PAVUser@@@2@@std@@IAEPAU_Node@12@PAU312@W4_Redbl@12@@Z 0051f230 f i UserCatalog.obj
 0001:0011e2b0       ?_Consval@?$_Tree@HU?$pair@$$CBHPAVUser@@@std@@U_Kfn@?$map@HPAVUser@@U?$less@H@std@@V?$allocator@PAVUser@@@3@@2@U?$less@H@2@V?$allocator@PAVUser@@@2@@std@@IAEXPAU?$pair@$$CBHPAVUser@@@2@ABU32@@Z 0051f2b0 f i UserCatalog.obj
 0001:0011e300       ?_Dec@const_iterator@?$_Tree@HU?$pair@$$CBHPAVUser@@@std@@U_Kfn@?$map@HPAVUser@@U?$less@H@std@@V?$allocator@PAVUser@@@3@@2@U?$less@H@2@V?$allocator@PAVUser@@@2@@std@@QAEXXZ 0051f300 f i UserCatalog.obj
 0001:0011e430       ?_Color@?$_Tree@HU?$pair@$$CBHPAVUser@@@std@@U_Kfn@?$multimap@HPAVUser@@U?$greater@H@std@@V?$allocator@PAVUser@@@3@@2@U?$greater@H@2@V?$allocator@PAVUser@@@2@@std@@KAAAW4_Redbl@12@PAU_Node@12@@Z 0051f430 f i UserCatalog.obj
 0001:0011e460       ?_Lrotate@?$_Tree@HU?$pair@$$CBHPAVUser@@@std@@U_Kfn@?$multimap@HPAVUser@@U?$greater@H@std@@V?$allocator@PAVUser@@@3@@2@U?$greater@H@2@V?$allocator@PAVUser@@@2@@std@@IAEXPAU_Node@12@@Z 0051f460 f i UserCatalog.obj
 0001:0011e600       ?_Max@?$_Tree@HU?$pair@$$CBHPAVUser@@@std@@U_Kfn@?$multimap@HPAVUser@@U?$greater@H@std@@V?$allocator@PAVUser@@@3@@2@U?$greater@H@2@V?$allocator@PAVUser@@@2@@std@@KAPAU_Node@12@PAU312@@Z 0051f600 f i UserCatalog.obj
 0001:0011e670       ?_Rrotate@?$_Tree@HU?$pair@$$CBHPAVUser@@@std@@U_Kfn@?$multimap@HPAVUser@@U?$greater@H@std@@V?$allocator@PAVUser@@@3@@2@U?$greater@H@2@V?$allocator@PAVUser@@@2@@std@@IAEXPAU_Node@12@@Z 0051f670 f i UserCatalog.obj
 0001:0011e810       ?_Buynode@?$_Tree@HU?$pair@$$CBHPAVUser@@@std@@U_Kfn@?$multimap@HPAVUser@@U?$greater@H@std@@V?$allocator@PAVUser@@@3@@2@U?$greater@H@2@V?$allocator@PAVUser@@@2@@std@@IAEPAU_Node@12@PAU312@W4_Redbl@12@@Z 0051f810 f i UserCatalog.obj
 0001:0011e890       ?_Consval@?$_Tree@HU?$pair@$$CBHPAVUser@@@std@@U_Kfn@?$multimap@HPAVUser@@U?$greater@H@std@@V?$allocator@PAVUser@@@3@@2@U?$greater@H@2@V?$allocator@PAVUser@@@2@@std@@IAEXPAU?$pair@$$CBHPAVUser@@@2@ABU32@@Z 0051f890 f i UserCatalog.obj
 0001:0011e8e0       ?_Destval@?$_Tree@HU?$pair@$$CBHPAVUser@@@std@@U_Kfn@?$multimap@HPAVUser@@U?$greater@H@std@@V?$allocator@PAVUser@@@3@@2@U?$greater@H@2@V?$allocator@PAVUser@@@2@@std@@IAEXPAU?$pair@$$CBHPAVUser@@@2@@Z 0051f8e0 f i UserCatalog.obj
 0001:0011e930       ??0const_iterator@?$_Tree@HU?$pair@$$CBHPAVUser@@@std@@U_Kfn@?$multimap@HPAVUser@@U?$greater@H@std@@V?$allocator@PAVUser@@@3@@2@U?$greater@H@2@V?$allocator@PAVUser@@@2@@std@@QAE@PAU_Node@12@@Z 0051f930 f i UserCatalog.obj
 0001:0011e970       ?_Dec@const_iterator@?$_Tree@HU?$pair@$$CBHPAVUser@@@std@@U_Kfn@?$multimap@HPAVUser@@U?$greater@H@std@@V?$allocator@PAVUser@@@3@@2@U?$greater@H@2@V?$allocator@PAVUser@@@2@@std@@QAEXXZ 0051f970 f i UserCatalog.obj
 0001:0011eaa0       ?_Charalloc@?$allocator@PAVUser@@@std@@QAEPADI@Z 0051faa0 f i UserCatalog.obj
 0001:0011eaf0       ??8std@@YA_NABV?$allocator@VUser@@@0@0@Z 0051faf0 f i UserCatalog.obj
 0001:0011eb20       ?swap@std@@YAXAAPAVUser@@0@Z 0051fb20 f i UserCatalog.obj
 0001:0011eb70       ?copy@std@@YAPAVUser@@PBV2@0PAV2@@Z 0051fb70 f i UserCatalog.obj
 0001:0011ebe0       ?copy@std@@YAPAVUser@@PAV2@00@Z 0051fbe0 f i UserCatalog.obj
 0001:0011ec50       ?_Allocate@std@@YAPAVUser@@HPAV2@@Z 0051fc50 f i UserCatalog.obj
 0001:0011ecb0       ?_Construct@std@@YAXPAVUser@@ABV2@@Z 0051fcb0 f i UserCatalog.obj
 0001:0011ed30       ?swap@std@@YAXAAW4_Redbl@?$_Tree@HU?$pair@$$CBHPAVUser@@@std@@U_Kfn@?$multimap@HPAVUser@@U?$greater@H@std@@V?$allocator@PAVUser@@@3@@2@U?$greater@H@2@V?$allocator@PAVUser@@@2@@1@0@Z 0051fd30 f i UserCatalog.obj
 0001:0011ed80       ?_Construct@std@@YAXPAU?$pair@$$CBHPAVUser@@@1@ABU21@@Z 0051fd80 f i UserCatalog.obj
 0001:0011ee90       ??0CJOConfig@@QAE@XZ       0051fe90 f   JOConfig.obj
 0001:0011eed0       ??_GCJOConfig@@UAEPAXI@Z   0051fed0 f i JOConfig.obj
 0001:0011eed0       ??_ECJOConfig@@UAEPAXI@Z   0051fed0 f i JOConfig.obj
 0001:0011ef40       ??1CJOConfig@@UAE@XZ       0051ff40 f   JOConfig.obj
 0001:0011ef80       ?Open@CJOConfig@@IAEHPBD@Z 0051ff80 f   JOConfig.obj
 0001:0011efe0       ?GetInt@CJOConfig@@IAEHPBD0H@Z 0051ffe0 f   JOConfig.obj
 0001:0011f050       ?GetString@CJOConfig@@IAEPBDPBD00@Z 00520050 f   JOConfig.obj
 0001:0011f0e0       ?WriteInt@CJOConfig@@IAEHPBD0H@Z 005200e0 f   JOConfig.obj
 0001:0011f190       ?WriteString@CJOConfig@@IAEHPBD00@Z 00520190 f   JOConfig.obj
 0001:0011f200       ?_CrashHandler@@YAJPAU_EXCEPTION_POINTERS@@@Z 00520200 f   JODebug.obj
 0001:0011f570       ?CrashSenderMail@@YGXPAD000@Z 00520570 f   JODebug.obj
 0001:0011f700       ?CrashSender@@YGXFJJPAD@Z  00520700 f   JODebug.obj
 0001:0011f9a0       ?SetSupposition@@YGXQBD@Z  005209a0 f   JODebug.obj
 0001:0011fa00       ?SetNationCode@@YGXQBD@Z   00520a00 f   JODebug.obj
 0001:0011fa50       ?SetAppType@@YGXK@Z        00520a50 f   JODebug.obj
 0001:0011fa90       ?ConvertExceptionCodeToString@@YGPBDK@Z 00520a90 f   JODebug.obj
 0001:0011fde0       ?ConvertExceptionCodeToNumber@@YGFK@Z 00520de0 f   JODebug.obj
 0001:00120160       ?InstallCrashHandler@@YGXPBD00K@Z 00521160 f   JODebug.obj
 0001:001202a0       ?GetRegisterStatus@@YGPBDPAU_EXCEPTION_POINTERS@@@Z 005212a0 f   JODebug.obj
 0001:00120400       ?Write@@YGXPAD0@Z          00521400 f   JODebug.obj
 0001:00120500       ??0CJOGersangConfig@@QAE@XZ 00521500 f   JOGersangConfig.obj
 0001:00120560       ??_GCJOGersangConfig@@UAEPAXI@Z 00521560 f i JOGersangConfig.obj
 0001:00120560       ??_ECJOGersangConfig@@UAEPAXI@Z 00521560 f i JOGersangConfig.obj
 0001:001205d0       ??1CJOGersangConfig@@UAE@XZ 005215d0 f   JOGersangConfig.obj
 0001:00120620       ?SetConfigFileName@CJOGersangConfig@@QAEXPBD@Z 00521620 f   JOGersangConfig.obj
 0001:001206f0       ?SetConfigDirectoryName@CJOGersangConfig@@QAEXPBD@Z 005216f0 f   JOGersangConfig.obj
 0001:00120750       ?GetStr@CJOGersangConfig@@QAEPBDPBD0@Z 00521750 f   JOGersangConfig.obj
 0001:001207b0       ?GetNum@CJOGersangConfig@@QAEHPBD0@Z 005217b0 f   JOGersangConfig.obj
 0001:00120810       ?GetMasterServerName@CJOGersangConfig@@QAEPBDH@Z 00521810 f   JOGersangConfig.obj
 0001:001208c0       ?GetMasterServerIP@CJOGersangConfig@@QAEPBDHH@Z 005218c0 f   JOGersangConfig.obj
 0001:00120980       ?GetMasterServerGroupName@CJOGersangConfig@@QAEPBDH@Z 00521980 f   JOGersangConfig.obj
 0001:00120a30       ?GetMasterServerCount@CJOGersangConfig@@QAEHH@Z 00521a30 f   JOGersangConfig.obj
 0001:00120ae0       ?GetMasterServerType@CJOGersangConfig@@QAEPBDH@Z 00521ae0 f   JOGersangConfig.obj
 0001:00120b90       ?GetMasterGroupCount@CJOGersangConfig@@QAEHXZ 00521b90 f   JOGersangConfig.obj
 0001:00120bf0       ?GetMonitorOfGameServerPath@CJOGersangConfig@@QAEPBDPBD@Z 00521bf0 f   JOGersangConfig.obj
 0001:00120ca0       ?GetFrontYear@CJOGersangConfig@@QAEHH@Z 00521ca0 f   JOGersangConfig.obj
 0001:00120d50       ?GetFrontMonth@CJOGersangConfig@@QAEHH@Z 00521d50 f   JOGersangConfig.obj
 0001:00120e00       ?GetFrontDay@CJOGersangConfig@@QAEHH@Z 00521e00 f   JOGersangConfig.obj
 0001:00120eb0       ?GetFrontServerID@CJOGersangConfig@@QAEHH@Z 00521eb0 f   JOGersangConfig.obj
 0001:00120f60       ?GetFrontServerName@CJOGersangConfig@@QAEPBDH@Z 00521f60 f   JOGersangConfig.obj
 0001:00121010       ?GetFrontGateIP@CJOGersangConfig@@QAEPBDH@Z 00522010 f   JOGersangConfig.obj
 0001:001210c0       ?GetFrontChatIP@CJOGersangConfig@@QAEPBDH@Z 005220c0 f   JOGersangConfig.obj
 0001:00121170       ?GetFrontGatePort@CJOGersangConfig@@QAEHH@Z 00522170 f   JOGersangConfig.obj
 0001:00121220       ?GetFrontChatPort@CJOGersangConfig@@QAEHH@Z 00522220 f   JOGersangConfig.obj
 0001:001212d0       ?GetFrontServerCount@CJOGersangConfig@@QAEHXZ 005222d0 f   JOGersangConfig.obj
 0001:00121330       ?GetFrontNotice@CJOGersangConfig@@QAEPBDH@Z 00522330 f   JOGersangConfig.obj
 0001:001213e0       ?GetNoticeCount@CJOGersangConfig@@QAEHXZ 005223e0 f   JOGersangConfig.obj
 0001:00121440       ?GetVersionCountOfVersionServer@CJOGersangConfig@@QAEHXZ 00522440 f   JOGersangConfig.obj
 0001:001214a0       ?GetIPCountOfVersionServer@CJOGersangConfig@@QAEHXZ 005224a0 f   JOGersangConfig.obj
 0001:00121500       ?GetAuthCountOfVersionServer@CJOGersangConfig@@QAEHXZ 00522500 f   JOGersangConfig.obj
 0001:00121560       ?GetVersionListOfVersionServer@CJOGersangConfig@@QAEHH@Z 00522560 f   JOGersangConfig.obj
 0001:00121610       ?GetIPListOfVersionServer@CJOGersangConfig@@QAEPBDH@Z 00522610 f   JOGersangConfig.obj
 0001:001216c0       ?GetIDListOfVersionServer@CJOGersangConfig@@QAEPBDH@Z 005226c0 f   JOGersangConfig.obj
 0001:00121770       ?GetPasswordListOfVersionServer@CJOGersangConfig@@QAEPBDH@Z 00522770 f   JOGersangConfig.obj
 0001:00121820       ??0CMacroCheckProcess@@QAE@PAVCOnlineClientCallback@@@Z 00522820 f   MacroCheckProcess.obj
 0001:00121910       ??1CMacroCheckProcess@@QAE@XZ 00522910 f   MacroCheckProcess.obj
 0001:001219c0       ?Run_Process@CMacroCheckProcess@@CGIPAX@Z 005229c0 f   MacroCheckProcess.obj
 0001:00121a90       ?Process@CMacroCheckProcess@@AAEIXZ 00522a90 f   MacroCheckProcess.obj
 0001:00121b50       ?MacroCheckProc@CMacroCheckProcess@@AAEHXZ 00522b50 f   MacroCheckProcess.obj
 0001:00121c70       ?StartThread@CMacroCheckProcess@@QAEXXZ 00522c70 f   MacroCheckProcess.obj
 0001:00121d30       ?StopThread@CMacroCheckProcess@@QAEXXZ 00522d30 f   MacroCheckProcess.obj
 0001:00121de0       ?SetSendAble@CMacroCheckProcess@@QAEXH@Z 00522de0 f   MacroCheckProcess.obj
 0001:00121e20       ?FindProcess@CMacroCheckProcess@@QAEHPBD@Z 00522e20 f   MacroCheckProcess.obj
 0001:00122150       ?GetProcessName@CMacroCheckProcess@@QAEPBDXZ 00523150 f   MacroCheckProcess.obj
 0001:00122190       ?IsThereAnyOtherInstance@CMacroCheckProcess@@QAEHPBD@Z 00523190 f   MacroCheckProcess.obj
 0001:001221f0       ??0CEncrypt@@AAE@XZ        005231f0 f   CEncrypt.obj
 0001:00122220       ??1CEncrypt@@AAE@XZ        00523220 f   CEncrypt.obj
 0001:00122270       ?GetInstance@CEncrypt@@SAPAV1@XZ 00523270 f   CEncrypt.obj
 0001:00122330       ?ReleaseInstance@CEncrypt@@QAEXXZ 00523330 f   CEncrypt.obj
 0001:001223c0       ??_GCEncrypt@@AAEPAXI@Z    005233c0 f i CEncrypt.obj
 0001:00122430       ?SetKey@CEncrypt@@QAEXPAD@Z 00523430 f   CEncrypt.obj
 0001:001224a0       ?EncodeMessage@CEncrypt@@QAEHPAD0H@Z 005234a0 f   CEncrypt.obj
 0001:00122540       ?DecodeMessage@CEncrypt@@QAEHPAD0H@Z 00523540 f   CEncrypt.obj
 0001:001225e0       ?Encode@CEncrypt@@QAEHPAD0@Z 005235e0 f   CEncrypt.obj
 0001:00122710       ?Decode@CEncrypt@@QAEHPAD0@Z 00523710 f   CEncrypt.obj
 0001:00122840       ?_256to64@CEncrypt@@QAEHPAD0H0@Z 00523840 f   CEncrypt.obj
 0001:001229b0       ?_64to256@CEncrypt@@QAEHPAD00@Z 005239b0 f   CEncrypt.obj
 0001:00122b60       ?_256to64_shr@CEncrypt@@QAEHPAD0H00@Z 00523b60 f   CEncrypt.obj
 0001:00122da0       ?_256to64_shl@CEncrypt@@QAEHPAD0H00@Z 00523da0 f   CEncrypt.obj
 0001:00122fe0       ?_shl_64to256@CEncrypt@@QAEHPAD000@Z 00523fe0 f   CEncrypt.obj
 0001:00123240       ?_shr_64to256@CEncrypt@@QAEHPAD000@Z 00524240 f   CEncrypt.obj
 0001:001234c0       ?_swapint@CEncrypt@@QAEHPAH0PAD@Z 005244c0 f   CEncrypt.obj
 0001:00123550       ?_xorstring@CEncrypt@@QAEHPAD00H@Z 00524550 f   CEncrypt.obj
 0001:00123640       ?_shrstring@CEncrypt@@QAEHPAD0H@Z 00524640 f   CEncrypt.obj
 0001:00123710       ?_shlstring@CEncrypt@@QAEHPAD0H@Z 00524710 f   CEncrypt.obj
 0001:001237e0       ??0CSeed@@QAE@XZ           005247e0 f   CSeed.obj
 0001:00123810       ??1CSeed@@QAE@XZ           00524810 f   CSeed.obj
 0001:00123860       ?GetInstance@CSeed@@SAPAV1@XZ 00524860 f   CSeed.obj
 0001:00123920       ?ReleaseInstance@CSeed@@QAEXXZ 00524920 f   CSeed.obj
 0001:001239b0       ??_GCSeed@@QAEPAXI@Z       005249b0 f i CSeed.obj
 0001:00123a20       ?SeedEncrypt@CSeed@@QAEXPAEPAK@Z 00524a20 f   CSeed.obj
 0001:00125430       ?SeedDecrypt@CSeed@@QAEXPAEPAK@Z 00526430 f   CSeed.obj
 0001:00126e40       ?SeedEncRoundKey@CSeed@@QAEXPAKPAE@Z 00527e40 f   CSeed.obj
 0001:00128110       ??0CSiegeUnitTable@@QAE@XZ 00529110 f   CSiegeUniteTable.obj
 0001:00128140       ??1CSiegeUnitTable@@QAE@XZ 00529140 f   CSiegeUniteTable.obj
 0001:00128190       ?DelInstance@CSiegeUnitTable@@IAEXXZ 00529190 f   CSiegeUniteTable.obj
 0001:00128220       ??_GCSiegeUnitTable@@QAEPAXI@Z 00529220 f i CSiegeUniteTable.obj
 0001:00128290       ?GetInstance@CSiegeUnitTable@@SAPAV1@XZ 00529290 f   CSiegeUniteTable.obj
 0001:00128360       ?LoadFile@CSiegeUnitTable@@QAEXPAD@Z 00529360 f   CSiegeUniteTable.obj
 0001:00128850       ?Init@CSiegeUnitTable@@QAEXXZ 00529850 f   CSiegeUniteTable.obj
 0001:001288c0       ?SetDamage@CSiegeUnitTable@@QAEHHH@Z 005298c0 f   CSiegeUniteTable.obj
 0001:00128940       ?GetDamage@CSiegeUnitTable@@QAEHH@Z 00529940 f   CSiegeUniteTable.obj
 0001:001289a0       ?SetSpeed@CSiegeUnitTable@@QAEHHH@Z 005299a0 f   CSiegeUniteTable.obj
 0001:00128a20       ?GetSpeed@CSiegeUnitTable@@QAEHH@Z 00529a20 f   CSiegeUniteTable.obj
 0001:00128a80       ?SetLevel@CSiegeUnitTable@@QAEHHH@Z 00529a80 f   CSiegeUniteTable.obj
 0001:00128b00       ?GetLevel@CSiegeUnitTable@@QAEHH@Z 00529b00 f   CSiegeUniteTable.obj
 0001:00128b60       ?SetDelay@CSiegeUnitTable@@QAEHHH@Z 00529b60 f   CSiegeUniteTable.obj
 0001:00128be0       ?GetDelay@CSiegeUnitTable@@QAEHH@Z 00529be0 f   CSiegeUniteTable.obj
 0001:00128c40       ?SetMaxAttackDis@CSiegeUnitTable@@QAEHHH@Z 00529c40 f   CSiegeUniteTable.obj
 0001:00128cc0       ?GetMaxAttackDis@CSiegeUnitTable@@QAEHH@Z 00529cc0 f   CSiegeUniteTable.obj
 0001:00128d20       ?SetMinAttackDis@CSiegeUnitTable@@QAEHHH@Z 00529d20 f   CSiegeUniteTable.obj
 0001:00128da0       ?GetMinAttackDis@CSiegeUnitTable@@QAEHH@Z 00529da0 f   CSiegeUniteTable.obj
 0001:00128e00       ?SetPrice@CSiegeUnitTable@@QAEHHH@Z 00529e00 f   CSiegeUniteTable.obj
 0001:00128e80       ?GetPrice@CSiegeUnitTable@@QAEHH@Z 00529e80 f   CSiegeUniteTable.obj
 0001:00128ee0       ?SetPopulation@CSiegeUnitTable@@QAEHHH@Z 00529ee0 f   CSiegeUniteTable.obj
 0001:00128f60       ?GetPopulation@CSiegeUnitTable@@QAEHH@Z 00529f60 f   CSiegeUniteTable.obj
 0001:00128fc0       ?SetBasicHP@CSiegeUnitTable@@QAEHHH@Z 00529fc0 f   CSiegeUniteTable.obj
 0001:00129030       ?GetBasicHP@CSiegeUnitTable@@QAEHH@Z 0052a030 f   CSiegeUniteTable.obj
 0001:00129090       ?SetBasicMP@CSiegeUnitTable@@QAEHHH@Z 0052a090 f   CSiegeUniteTable.obj
 0001:00129100       ?GetBasicMP@CSiegeUnitTable@@QAEHH@Z 0052a100 f   CSiegeUniteTable.obj
 0001:00129160       ?GetHP@CSiegeUnitTable@@QAEHHH@Z 0052a160 f   CSiegeUniteTable.obj
 0001:00129280       ?GetMP@CSiegeUnitTable@@QAEHHH@Z 0052a280 f   CSiegeUniteTable.obj
 0001:001293a0       ?SetChangePrice@CSiegeUnitTable@@QAEHHH@Z 0052a3a0 f   CSiegeUniteTable.obj
 0001:00129420       ?GetChangePrice@CSiegeUnitTable@@QAEHH@Z 0052a420 f   CSiegeUniteTable.obj
 0001:00129480       ?SetKindCode@CSiegeUnitTable@@QAEHHH@Z 0052a480 f   CSiegeUniteTable.obj
 0001:001294f0       ?GetKindCode@CSiegeUnitTable@@QAEHH@Z 0052a4f0 f   CSiegeUniteTable.obj
 0001:00129550       ?GetKindUnitCode@CSiegeUnitTable@@QAEHH@Z 0052a550 f   CSiegeUniteTable.obj
 0001:001295d0       ?IsFieldAttackUnit@CSiegeUnitTable@@QAEHH@Z 0052a5d0 f   CSiegeUniteTable.obj
 0001:00129660       ??2@YAPAXI@Z               0052a660 f i GSLCore_D:WaveData.obj
 0001:001298b0       ??0WaveData@@QAE@XZ        0052a8b0 f   GSLCore_D:WaveData.obj
 0001:00129900       ??1WaveData@@QAE@XZ        0052a900 f   GSLCore_D:WaveData.obj
 0001:00129940       ?Delete@WaveData@@QAEXXZ   0052a940 f   GSLCore_D:WaveData.obj
 0001:001299c0       ?OpenFile@WaveData@@QAEXPAD@Z 0052a9c0 f   GSLCore_D:WaveData.obj
 0001:00129de0       __tcsrchr                  0052ade0 f i GSLCore_D:WaveData.obj
 0001:00129e20       ?CloseFile@WaveData@@QAEXXZ 0052ae20 f   GSLCore_D:WaveData.obj
 0001:00129ea0       ?Reset@WaveData@@QAEXXZ    0052aea0 f   GSLCore_D:WaveData.obj
 0001:00129f00       ?GetWaveData@WaveData@@QAEXKPAXPAI@Z 0052af00 f   GSLCore_D:WaveData.obj
 0001:00129fc0       ?Error@WaveData@@IAEXPBD0H@Z 0052afc0 f   GSLCore_D:WaveData.obj
 0001:0012a2e0       ??0CSpeedHackChecker@@QAE@XZ 0052b2e0 f   GSLCore_D:SpeedChecker.obj
 0001:0012a310       ??_GCSpeedHackChecker@@UAEPAXI@Z 0052b310 f i GSLCore_D:SpeedChecker.obj
 0001:0012a310       ??_ECSpeedHackChecker@@UAEPAXI@Z 0052b310 f i GSLCore_D:SpeedChecker.obj
 0001:0012a370       ??1CSpeedHackChecker@@UAE@XZ 0052b370 f   GSLCore_D:SpeedChecker.obj
 0001:0012a3a0       ?Init@CSpeedHackChecker@@QAEXKH@Z 0052b3a0 f   GSLCore_D:SpeedChecker.obj
 0001:0012a400       ?Signaled@CSpeedHackChecker@@QAEHI@Z 0052b400 f   GSLCore_D:SpeedChecker.obj
 0001:0012a7a0       ??0CLogTool@@QAE@XZ        0052b7a0 f   GSLCore_D:LogTool1.obj
 0001:0012a7e0       ??_ECLogTool@@UAEPAXI@Z    0052b7e0 f i GSLCore_D:LogTool1.obj
 0001:0012a7e0       ??_GCLogTool@@UAEPAXI@Z    0052b7e0 f i GSLCore_D:LogTool1.obj
 0001:0012a840       ??1CLogTool@@UAE@XZ        0052b840 f   GSLCore_D:LogTool1.obj
 0001:0012a8a0       ?Init@CLogTool@@QAEHXZ     0052b8a0 f   GSLCore_D:LogTool1.obj
 0001:0012a900       ?Write@CLogTool@@QAEHKK@Z  0052b900 f   GSLCore_D:LogTool1.obj
 0001:0012ac10       ??0_FindPath@@QAE@FF@Z     0052bc10 f   GSLCore_D:PathFind.obj
 0001:0012ae30       ?IsColl@_FindPath@@UAEHHH@Z 0052be30 f i GSLCore_D:PathFind.obj
 0001:0012ae60       ??1_FindPath@@QAE@XZ       0052be60 f   GSLCore_D:PathFind.obj
 0001:0012af40       ?SetFindPathSize@_FindPath@@QAEXFF@Z 0052bf40 f   GSLCore_D:PathFind.obj
 0001:0012af80       ?FindPathL@_FindPath@@UAEHFFFFPAF00FHH@Z 0052bf80 f   GSLCore_D:PathFind.obj
 0001:0012b360       ?Clear@_FindPath@@AAEXXZ   0052c360 f i GSLCore_D:PathFind.obj
 0001:0012b410       ?GenerateSuccessor@_FindPath@@AAEXPAUtagNODE@@HHH@Z 0052c410 f i GSLCore_D:PathFind.obj
 0001:0012b680       ?CheckFreeTile@_FindPath@@AAEXPAUtagNODE@@HHHHM@Z 0052c680 f i GSLCore_D:PathFind.obj
 0001:0012b9d0       ?FindOpenNode@_FindPath@@AAEPAUtagNODE@@HH@Z 0052c9d0 f i GSLCore_D:PathFind.obj
 0001:0012ba40       ?FindClosedNode@_FindPath@@AAEPAUtagNODE@@HH@Z 0052ca40 f i GSLCore_D:PathFind.obj
 0001:0012bab0       ?PropagateDown@_FindPath@@AAEXPAUtagNODE@@@Z 0052cab0 f i GSLCore_D:PathFind.obj
 0001:0012bd30       _XDebugInit                0052cd30 f   GSLCore_D:GSDebug.obj
 0001:0012bd60       _XPrintf                   0052cd60 f   GSLCore_D:GSDebug.obj
 0001:0012be10       _XExit                     0052ce10 f   GSLCore_D:GSDebug.obj
 0001:0012be42       _dbinit                    0052ce42 f   ntwdblib:ntwdblib.dll
 0001:0012be48       _dbfreelogin               0052ce48 f   ntwdblib:ntwdblib.dll
 0001:0012be4e       _dbsetlname                0052ce4e f   ntwdblib:ntwdblib.dll
 0001:0012be54       _dblogin                   0052ce54 f   ntwdblib:ntwdblib.dll
 0001:0012be5a       _dbuse                     0052ce5a f   ntwdblib:ntwdblib.dll
 0001:0012be60       _dbopen                    0052ce60 f   ntwdblib:ntwdblib.dll
 0001:0012be66       _dbclose                   0052ce66 f   ntwdblib:ntwdblib.dll
 0001:0012be6c       _dbsqlexec                 0052ce6c f   ntwdblib:ntwdblib.dll
 0001:0012be72       _dbcmd                     0052ce72 f   ntwdblib:ntwdblib.dll
 0001:0012be78       _dbresults                 0052ce78 f   ntwdblib:ntwdblib.dll
 0001:0012be7e       _dbfreebuf                 0052ce7e f   ntwdblib:ntwdblib.dll
 0001:0012be84       _dbbind                    0052ce84 f   ntwdblib:ntwdblib.dll
 0001:0012be8a       _dbnextrow                 0052ce8a f   ntwdblib:ntwdblib.dll
 0001:0012be90       _dbexit                    0052ce90 f   ntwdblib:ntwdblib.dll
 0001:0012be96       _closesocket@4             0052ce96 f   ws2_32:WS2_32.dll
 0001:0012be9c       _htons@4                   0052ce9c f   ws2_32:WS2_32.dll
 0001:0012bea2       _inet_addr@4               0052cea2 f   ws2_32:WS2_32.dll
 0001:0012bea8       _connect@12                0052cea8 f   ws2_32:WS2_32.dll
 0001:0012beae       _socket@12                 0052ceae f   ws2_32:WS2_32.dll
 0001:0012beb4       _listen@8                  0052ceb4 f   ws2_32:WS2_32.dll
 0001:0012beba       _bind@12                   0052ceba f   ws2_32:WS2_32.dll
 0001:0012bec0       _setsockopt@20             0052cec0 f   ws2_32:WS2_32.dll
 0001:0012bec6       _htonl@4                   0052cec6 f   ws2_32:WS2_32.dll
 0001:0012becc       _accept@12                 0052cecc f   ws2_32:WS2_32.dll
 0001:0012bed2       ___WSAFDIsSet@8            0052ced2 f   ws2_32:WS2_32.dll
 0001:0012bed8       _select@20                 0052ced8 f   ws2_32:WS2_32.dll
 0001:0012bede       _ntohs@4                   0052cede f   ws2_32:WS2_32.dll
 0001:0012bee4       _recv@16                   0052cee4 f   ws2_32:WS2_32.dll
 0001:0012beea       _send@16                   0052ceea f   ws2_32:WS2_32.dll
 0001:0012bef0       _inet_ntoa@4               0052cef0 f   ws2_32:WS2_32.dll
 0001:0012bef6       _WSACleanup@0              0052cef6 f   ws2_32:WS2_32.dll
 0001:0012befc       _WSAGetLastError@0         0052cefc f   ws2_32:WS2_32.dll
 0001:0012bf02       _WSAStartup@8              0052cf02 f   ws2_32:WS2_32.dll
 0001:0012bf08       _gethostbyname@4           0052cf08 f   ws2_32:WS2_32.dll
 0001:0012bf0e       _gethostname@8             0052cf0e f   ws2_32:WS2_32.dll
 0001:0012bf14       _sendto@24                 0052cf14 f   ws2_32:WS2_32.dll
 0001:0012bf1a       _WSASend@28                0052cf1a f   ws2_32:WS2_32.dll
 0001:0012bf20       _WSARecv@28                0052cf20 f   ws2_32:WS2_32.dll
 0001:0012bf26       _WSAGetOverlappedResult@20 0052cf26 f   ws2_32:WS2_32.dll
 0001:0012bf2c       _WSASocketA@24             0052cf2c f   ws2_32:WS2_32.dll
 0001:0012bf32       _WSAAccept@20              0052cf32 f   ws2_32:WS2_32.dll
 0001:0012bf38       _WSAEnumNetworkEvents@12   0052cf38 f   ws2_32:WS2_32.dll
 0001:0012bf3e       _WSAEventSelect@12         0052cf3e f   ws2_32:WS2_32.dll
 0001:0012bf44       _WSAWaitForMultipleEvents@20 0052cf44 f   ws2_32:WS2_32.dll
 0001:0012bf4a       _WSACreateEvent@0          0052cf4a f   ws2_32:WS2_32.dll
 0001:0012bf50       _timeGetTime@0             0052cf50 f   winmm:WINMM.dll
 0001:0012bf56       _WaitForMultipleObjects@16 0052cf56 f   kernel32:KERNEL32.dll
 0001:0012bf5c       _SetEvent@4                0052cf5c f   kernel32:KERNEL32.dll
 0001:0012bf62       _Sleep@4                   0052cf62 f   kernel32:KERNEL32.dll
 0001:0012bf68       _CreateEventA@16           0052cf68 f   kernel32:KERNEL32.dll
 0001:0012bf6e       _CloseHandle@4             0052cf6e f   kernel32:KERNEL32.dll
 0001:0012bf74       _WaitForSingleObject@8     0052cf74 f   kernel32:KERNEL32.dll
 0001:0012bf7a       _CreateMutexA@12           0052cf7a f   kernel32:KERNEL32.dll
 0001:0012bf80       _ReleaseMutex@4            0052cf80 f   kernel32:KERNEL32.dll
 0001:0012bf86       _InitializeCriticalSection@4 0052cf86 f   kernel32:KERNEL32.dll
 0001:0012bf8c       _DeleteCriticalSection@4   0052cf8c f   kernel32:KERNEL32.dll
 0001:0012bf92       _LeaveCriticalSection@4    0052cf92 f   kernel32:KERNEL32.dll
 0001:0012bf98       _EnterCriticalSection@4    0052cf98 f   kernel32:KERNEL32.dll
 0001:0012bf9e       _GetTickCount@0            0052cf9e f   kernel32:KERNEL32.dll
 0001:0012bfa4       _GetLastError@0            0052cfa4 f   kernel32:KERNEL32.dll
 0001:0012bfaa       _ResetEvent@4              0052cfaa f   kernel32:KERNEL32.dll
 0001:0012bfb0       _OutputDebugStringA@4      0052cfb0 f   kernel32:KERNEL32.dll
 0001:0012bfb6       _InterlockedExchange@8     0052cfb6 f   kernel32:KERNEL32.dll
 0001:0012bfbc       _InterlockedDecrement@4    0052cfbc f   kernel32:KERNEL32.dll
 0001:0012bfc2       _GetCurrentProcessId@0     0052cfc2 f   kernel32:KERNEL32.dll
 0001:0012bfc8       _InterlockedIncrement@4    0052cfc8 f   kernel32:KERNEL32.dll
 0001:0012bfce       _CreateDirectoryA@8        0052cfce f   kernel32:KERNEL32.dll
 0001:0012bfd4       _ResumeThread@4            0052cfd4 f   kernel32:KERNEL32.dll
 0001:0012bfda       _DeleteFileA@4             0052cfda f   kernel32:KERNEL32.dll
 0001:0012bfe0       _IsDBCSLeadByte@4          0052cfe0 f   kernel32:KERNEL32.dll
 0001:0012bfe6       _SetFileAttributesA@8      0052cfe6 f   kernel32:KERNEL32.dll
 0001:0012bfec       _RemoveDirectoryA@4        0052cfec f   kernel32:KERNEL32.dll
 0001:0012bff2       _GetCurrentDirectoryA@8    0052cff2 f   kernel32:KERNEL32.dll
 0001:0012bff8       _IsDBCSLeadByteEx@8        0052cff8 f   kernel32:KERNEL32.dll
 0001:0012bffe       _GetQueuedCompletionStatus@20 0052cffe f   kernel32:KERNEL32.dll
 0001:0012c004       _CreateIoCompletionPort@16 0052d004 f   kernel32:KERNEL32.dll
 0001:0012c00a       _GetSystemDirectoryA@8     0052d00a f   kernel32:KERNEL32.dll
 0001:0012c010       _FindClose@4               0052d010 f   kernel32:KERNEL32.dll
 0001:0012c016       _FindNextFileA@8           0052d016 f   kernel32:KERNEL32.dll
 0001:0012c01c       _FindFirstFileA@8          0052d01c f   kernel32:KERNEL32.dll
 0001:0012c022       _GetPrivateProfileIntA@16  0052d022 f   kernel32:KERNEL32.dll
 0001:0012c028       _GetPrivateProfileStringA@24 0052d028 f   kernel32:KERNEL32.dll
 0001:0012c02e       _WritePrivateProfileStringA@16 0052d02e f   kernel32:KERNEL32.dll
 0001:0012c034       _GetModuleFileNameA@12     0052d034 f   kernel32:KERNEL32.dll
 0001:0012c03a       _SetUnhandledExceptionFilter@4 0052d03a f   kernel32:KERNEL32.dll
 0001:0012c040       _WriteFile@20              0052d040 f   kernel32:KERNEL32.dll
 0001:0012c046       _SetFilePointer@16         0052d046 f   kernel32:KERNEL32.dll
 0001:0012c04c       _CreateFileA@28            0052d04c f   kernel32:KERNEL32.dll
 0001:0012c052       _OpenProcess@12            0052d052 f   kernel32:KERNEL32.dll
 0001:0012c058       _GetProcAddress@8          0052d058 f   kernel32:KERNEL32.dll
 0001:0012c05e       _LoadLibraryA@4            0052d05e f   kernel32:KERNEL32.dll
 0001:0012c064       _ReadFile@20               0052d064 f   kernel32:KERNEL32.dll
 0001:0012c06a       _lstrcmpiA@8               0052d06a f   kernel32:KERNEL32.dll
 0001:0012c070       _PtInRect@12               0052d070 f   user32:USER32.dll
 0001:0012c076       _wsprintfA                 0052d076 f   user32:USER32.dll
 0001:0012c07c       _wvsprintfA@12             0052d07c f   user32:USER32.dll
 0001:0012c082       _MessageBoxA@16            0052d082 f   user32:USER32.dll
 0001:0012c088       _PostQuitMessage@4         0052d088 f   user32:USER32.dll
 0001:0012c08e       _FindWindowA@8             0052d08e f   user32:USER32.dll
 0001:0012c094       _PostMessageA@16           0052d094 f   user32:USER32.dll
 0001:0012c09a       _RegCreateKeyExA@36        0052d09a f   advapi32:ADVAPI32.dll
 0001:0012c0a0       _RegSetValueExA@24         0052d0a0 f   advapi32:ADVAPI32.dll
 0001:0012c0a6       _RegCloseKey@4             0052d0a6 f   advapi32:ADVAPI32.dll
 0001:0012c0ac       _uncompress@16             0052d0ac f   zlib:zlib.dll
 0001:0012c0b2       _compress@16               0052d0b2 f   zlib:zlib.dll
 0001:0012c0b8       _inflateInit2_@16          0052d0b8 f   zlib:zlib.dll
 0001:0012c0be       _inflate@8                 0052d0be f   zlib:zlib.dll
 0001:0012c0c4       _crc32@12                  0052d0c4 f   zlib:zlib.dll
 0001:0012c0ca       _inflateEnd@4              0052d0ca f   zlib:zlib.dll
 0001:0012c0d0       __chkesp                   0052d0d0 f   LIBCMTD:chkesp.obj
 0001:0012c110       ??3@YAXPAX@Z               0052d110 f   LIBCMTD:dbgdel.obj
 0001:0012c1c0       _printf                    0052d1c0 f   LIBCMTD:printf.obj
 0001:0012c260       ?_JumpToContinuation@@YGXPAXPAUEHRegistrationNode@@@Z 0052d260 f   LIBCMTD:trnsctrl.obj
 0001:0012c2a0       ?_CallMemberFunction0@@YGXPAX0@Z 0052d2a0 f   LIBCMTD:trnsctrl.obj
 0001:0012c2b0       ?_CallMemberFunction1@@YGXPAX00@Z 0052d2b0 f   LIBCMTD:trnsctrl.obj
 0001:0012c2c0       ?_CallMemberFunction2@@YGXPAX00H@Z 0052d2c0 f   LIBCMTD:trnsctrl.obj
 0001:0012c2d0       ?_UnwindNestedFrames@@YGXPAUEHRegistrationNode@@PAUEHExceptionRecord@@@Z 0052d2d0 f   LIBCMTD:trnsctrl.obj
 0001:0012c330       ___CxxFrameHandler         0052d330 f   LIBCMTD:trnsctrl.obj
 0001:0012c370       ___CxxLongjmpUnwind@4      0052d370 f   LIBCMTD:trnsctrl.obj
 0001:0012c3a0       ?_CallCatchBlock2@@YAPAXPAUEHRegistrationNode@@PBU_s_FuncInfo@@PAXHK@Z 0052d3a0 f   LIBCMTD:trnsctrl.obj
 0001:0012c450       ?_CallSETranslator@@YAHPAUEHExceptionRecord@@PAUEHRegistrationNode@@PAX2PBU_s_FuncInfo@@H1@Z 0052d450 f   LIBCMTD:trnsctrl.obj
 0001:0012c5b0       ?_GetRangeOfTrysToCheck@@YAPBU_s_TryBlockMapEntry@@PBU_s_FuncInfo@@HHPAI1@Z 0052d5b0 f   LIBCMTD:trnsctrl.obj
 0001:0012c640       __global_unwind2           0052d640 f   LIBCMTD:exsup.obj
 0001:0012c682       __local_unwind2            0052d682 f   LIBCMTD:exsup.obj
 0001:0012c6da       __NLG_Return2              0052d6da f   LIBCMTD:exsup.obj
 0001:0012c6ea       __abnormal_termination     0052d6ea f   LIBCMTD:exsup.obj
 0001:0012c70d       __NLG_Notify1              0052d70d f   LIBCMTD:exsup.obj
 0001:0012c716       __NLG_Notify               0052d716 f   LIBCMTD:exsup.obj
 0001:0012c729       __NLG_Dispatch             0052d729 f   LIBCMTD:exsup.obj
 0001:0012c730       ??_L@YGXPAXIHP6EX0@Z1@Z    0052d730 f   LIBCMTD:ehvecctr.obj
 0001:0012c7d0       ??_M@YGXPAXIHP6EX0@Z@Z     0052d7d0 f   LIBCMTD:ehvecdtr.obj
 0001:0012c880       ?__ArrayUnwind@@YGXPAXIHP6EX0@Z@Z 0052d880 f   LIBCMTD:ehvecdtr.obj
 0001:0012c930       __beginthreadex            0052d930 f   LIBCMTD:threadex.obj
 0001:0012cac0       __endthreadex              0052dac0 f   LIBCMTD:threadex.obj
 0001:0012cb10       _strcpy                    0052db10 f   LIBCMTD:strcat.obj
 0001:0012cb20       _strcat                    0052db20 f   LIBCMTD:strcat.obj
 0001:0012cc00       _memset                    0052dc00 f   LIBCMTD:memset.obj
 0001:0012cc60       ??1type_info@@UAE@XZ       0052dc60 f   LIBCMTD:typinfo.obj
 0001:0012cca0       ??_Etype_info@@UAEPAXI@Z   0052dca0 f i LIBCMTD:typinfo.obj
 0001:0012cca0       ??_Gtype_info@@UAEPAXI@Z   0052dca0 f i LIBCMTD:typinfo.obj
 0001:0012ccd0       ??8type_info@@QBEHABV0@@Z  0052dcd0 f   LIBCMTD:typinfo.obj
 0001:0012cd00       ??9type_info@@QBEHABV0@@Z  0052dd00 f   LIBCMTD:typinfo.obj
 0001:0012cd30       ?before@type_info@@QBEHABV1@@Z 0052dd30 f   LIBCMTD:typinfo.obj
 0001:0012cd60       ?raw_name@type_info@@QBEPBDXZ 0052dd60 f   LIBCMTD:typinfo.obj
 0001:0012cd80       ??0type_info@@AAE@ABV0@@Z  0052dd80 f   LIBCMTD:typinfo.obj
 0001:0012cda0       ??4type_info@@AAEAAV0@ABV0@@Z 0052dda0 f   LIBCMTD:typinfo.obj
 0001:0012cdb0       __assert                   0052ddb0 f   LIBCMTD:assert.obj
 0001:0012d130       __vsnprintf                0052e130 f   LIBCMTD:vsnprint.obj
 0001:0012d230       _memcpy                    0052e230 f   LIBCMTD:memcpy.obj
 0001:0012d570       _strlen                    0052e570 f   LIBCMTD:strlen.obj
 0001:0012d5f0       __chkstk                   0052e5f0 f   LIBCMTD:chkstk.obj
 0001:0012d5f0       __alloca_probe             0052e5f0 f   LIBCMTD:chkstk.obj
 0001:0012d620       _srand                     0052e620 f   LIBCMTD:rand.obj
 0001:0012d630       _rand                      0052e630 f   LIBCMTD:rand.obj
 0001:0012d670       _sprintf                   0052e670 f   LIBCMTD:sprintf.obj
 0001:0012d770       __onexit                   0052e770 f   LIBCMTD:onexit.obj
 0001:0012d830       _atexit                    0052e830 f   LIBCMTD:onexit.obj
 0001:0012d850       ___onexitinit              0052e850 f   LIBCMTD:onexit.obj
 0001:0012d8a0       _strncpy                   0052e8a0 f   LIBCMTD:strncpy.obj
 0001:0012d9a0       _sscanf                    0052e9a0 f   LIBCMTD:sscanf.obj
 0001:0012da60       _strtok                    0052ea60 f   LIBCMTD:strtok.obj
 0001:0012dbb0       _abs                       0052ebb0 f   LIBCMTD:abs.obj
 0001:0012dbe0       _isalpha                   0052ebe0 f   LIBCMTD:_ctype.obj
 0001:0012dc30       _isupper                   0052ec30 f   LIBCMTD:_ctype.obj
 0001:0012dc70       _islower                   0052ec70 f   LIBCMTD:_ctype.obj
 0001:0012dcb0       _isdigit                   0052ecb0 f   LIBCMTD:_ctype.obj
 0001:0012dcf0       _isxdigit                  0052ecf0 f   LIBCMTD:_ctype.obj
 0001:0012dd40       _isspace                   0052ed40 f   LIBCMTD:_ctype.obj
 0001:0012dd80       _ispunct                   0052ed80 f   LIBCMTD:_ctype.obj
 0001:0012ddc0       _isalnum                   0052edc0 f   LIBCMTD:_ctype.obj
 0001:0012de10       _isprint                   0052ee10 f   LIBCMTD:_ctype.obj
 0001:0012de60       _isgraph                   0052ee60 f   LIBCMTD:_ctype.obj
 0001:0012deb0       _iscntrl                   0052eeb0 f   LIBCMTD:_ctype.obj
 0001:0012def0       ___isascii                 0052eef0 f   LIBCMTD:_ctype.obj
 0001:0012df00       ___toascii                 0052ef00 f   LIBCMTD:_ctype.obj
 0001:0012df10       ___iscsymf                 0052ef10 f   LIBCMTD:_ctype.obj
 0001:0012df70       ___iscsym                  0052ef70 f   LIBCMTD:_ctype.obj
 0001:0012dfd0       _atol                      0052efd0 f   LIBCMTD:atox.obj
 0001:0012e0d0       _atoi                      0052f0d0 f   LIBCMTD:atox.obj
 0001:0012e0f0       __atoi64                   0052f0f0 f   LIBCMTD:atox.obj
 0001:0012e220       __alldiv                   0052f220 f   LIBCMTD:lldiv.obj
 0001:0012e2d0       __fpmath                   0052f2d0 f   LIBCMTD:fpinit.obj
 0001:0012e300       __fpclear                  0052f300 f   LIBCMTD:fpinit.obj
 0001:0012e310       __cfltcvt_init             0052f310 f   LIBCMTD:fpinit.obj
 0001:0012e360       ___setfflag                0052f360 f   LIBCMTD:fpinit.obj
 0001:0012e37c       __ftol                     0052f37c f   LIBCMTD:ftol.obj
 0001:0012e3b0       _strcmp                    0052f3b0 f   LIBCMTD:strcmp.obj
 0001:0012e440       _strncmp                   0052f440 f   LIBCMTD:strncmp.obj
 0001:0012e480       __allmul                   0052f480 f   LIBCMTD:llmul.obj
 0001:0012e4c0       __cinit                    0052f4c0 f   LIBCMTD:crt0dat.obj
 0001:0012e500       _exit                      0052f500 f   LIBCMTD:crt0dat.obj
 0001:0012e520       __exit                     0052f520 f   LIBCMTD:crt0dat.obj
 0001:0012e540       __cexit                    0052f540 f   LIBCMTD:crt0dat.obj
 0001:0012e560       __c_exit                   0052f560 f   LIBCMTD:crt0dat.obj
 0001:0012e670       __lockexit                 0052f670 f   LIBCMTD:crt0dat.obj
 0001:0012e680       __unlockexit               0052f680 f   LIBCMTD:crt0dat.obj
 0001:0012e6c0       __toupper                  0052f6c0 f   LIBCMTD:toupper.obj
 0001:0012e6d0       _toupper                   0052f6d0 f   LIBCMTD:toupper.obj
 0001:0012e770       __toupper_lk               0052f770 f   LIBCMTD:toupper.obj
 0001:0012e8a0       _fclose                    0052f8a0 f   LIBCMTD:fclose.obj
 0001:0012e930       __fclose_lk                0052f930 f   LIBCMTD:fclose.obj
 0001:0012e9f0       _fwrite                    0052f9f0 f   LIBCMTD:fwrite.obj
 0001:0012ea30       __fwrite_lk                0052fa30 f   LIBCMTD:fwrite.obj
 0001:0012ec50       __fsopen                   0052fc50 f   LIBCMTD:fopen.obj
 0001:0012ed50       _fopen                     0052fd50 f   LIBCMTD:fopen.obj
 0001:0012ed70       _localtime                 0052fd70 f   LIBCMTD:localtim.obj
 0001:0012efd0       _time                      0052ffd0 f   LIBCMTD:time.obj
 0001:0012f160       __purecall                 00530160 f   LIBCMTD:purevirt.obj
 0001:0012f170       _strstr                    00530170 f   LIBCMTD:strstr.obj
 0001:0012f1f0       _fprintf                   005301f0 f   LIBCMTD:fprintf.obj
 0001:0012f2c0       __strdate                  005302c0 f   LIBCMTD:strdate.obj
 0001:0012f390       __strtime                  00530390 f   LIBCMTD:strtime.obj
 0001:0012f460       _memmove                   00530460 f   LIBCMTD:memmove.obj
 0001:0012f7a0       _fgets                     005307a0 f   LIBCMTD:fgets.obj
 0001:0012f8e0       __Getdays                  005308e0 f   LIBCMTD:strftime.obj
 0001:0012fa10       __Getmonths                00530a10 f   LIBCMTD:strftime.obj
 0001:0012fb40       __Gettnames                00530b40 f   LIBCMTD:strftime.obj
 0001:0012feb0       _strftime                  00530eb0 f   LIBCMTD:strftime.obj
 0001:0012fed0       __Strftime                 00530ed0 f   LIBCMTD:strftime.obj
 0001:00130d50       _memcmp                    00531d50 f   LIBCMTD:memcmp.obj
 0001:00130e00       _fsetpos                   00531e00 f   LIBCMTD:fsetpos.obj
 0001:00130e20       _fgetpos                   00531e20 f   LIBCMTD:fgetpos.obj
 0001:00130e60       _fseek                     00531e60 f   LIBCMTD:fseek.obj
 0001:00130ed0       __fseek_lk                 00531ed0 f   LIBCMTD:fseek.obj
 0001:00131000       _fread                     00532000 f   LIBCMTD:fread.obj
 0001:00131040       __fread_lk                 00532040 f   LIBCMTD:fread.obj
 0001:00131210       _atof                      00532210 f   LIBCMTD:atof.obj
 0001:00131290       _ftell                     00532290 f   LIBCMTD:ftell.obj
 0001:00131300       __ftell_lk                 00532300 f   LIBCMTD:ftell.obj
 0001:001315a0       __fgetchar                 005325a0 f   LIBCMTD:fgetchar.obj
 0001:001315c0       _getchar                   005325c0 f   LIBCMTD:fgetchar.obj
 0001:001315d0       _strlwr                    005325d0 f   LIBCMTD:strlwr.obj
 0001:001315d0       __strlwr                   005325d0 f   LIBCMTD:strlwr.obj
 0001:00131790       __CIsqrt                   00532790 f   LIBCMTD:sqrt.obj
 0001:001317a4       _sqrt                      005327a4 f   LIBCMTD:sqrt.obj
 0001:00131850       __aullshr                  00532850 f   LIBCMTD:ullshr.obj
 0001:00131870       __allshl                   00532870 f   LIBCMTD:llshl.obj
 0001:00131890       __allrem                   00532890 f   LIBCMTD:llrem.obj
 0001:00131950       _vsprintf                  00532950 f   LIBCMTD:vsprintf.obj
 0001:00131a50       __strcmpi                  00532a50 f   LIBCMTD:stricmp.obj
 0001:00131a50       _stricmp                   00532a50 f   LIBCMTD:stricmp.obj
 0001:00131a50       __stricmp                  00532a50 f   LIBCMTD:stricmp.obj
 0001:00131b20       __splitpath                00532b20 f   LIBCMTD:splitpat.obj
 0001:00131d70       _malloc                    00532d70 f   LIBCMTD:dbgheap.obj
 0001:00131da0       __malloc_dbg               00532da0 f   LIBCMTD:dbgheap.obj
 0001:00131dd0       __nh_malloc                00532dd0 f   LIBCMTD:dbgheap.obj
 0001:00131df0       __nh_malloc_dbg            00532df0 f   LIBCMTD:dbgheap.obj
 0001:00131e90       __heap_alloc               00532e90 f   LIBCMTD:dbgheap.obj
 0001:00131eb0       __heap_alloc_dbg           00532eb0 f   LIBCMTD:dbgheap.obj
 0001:001321d0       _calloc                    005331d0 f   LIBCMTD:dbgheap.obj
 0001:00132200       __calloc_dbg               00533200 f   LIBCMTD:dbgheap.obj
 0001:00132260       _realloc                   00533260 f   LIBCMTD:dbgheap.obj
 0001:00132290       __realloc_dbg              00533290 f   LIBCMTD:dbgheap.obj
 0001:00132840       __expand                   00533840 f   LIBCMTD:dbgheap.obj
 0001:00132870       __expand_dbg               00533870 f   LIBCMTD:dbgheap.obj
 0001:00132900       _free                      00533900 f   LIBCMTD:dbgheap.obj
 0001:00132920       __free_lk                  00533920 f   LIBCMTD:dbgheap.obj
 0001:00132940       __free_dbg                 00533940 f   LIBCMTD:dbgheap.obj
 0001:001329b0       __free_dbg_lk              005339b0 f   LIBCMTD:dbgheap.obj
 0001:00132da0       __msize                    00533da0 f   LIBCMTD:dbgheap.obj
 0001:00132dc0       __msize_dbg                00533dc0 f   LIBCMTD:dbgheap.obj
 0001:00132f50       __CrtSetBreakAlloc         00533f50 f   LIBCMTD:dbgheap.obj
 0001:00132f70       __CrtSetDbgBlockType       00533f70 f   LIBCMTD:dbgheap.obj
 0001:00133050       __CrtSetAllocHook          00534050 f   LIBCMTD:dbgheap.obj
 0001:00133100       __CrtCheckMemory           00534100 f   LIBCMTD:dbgheap.obj
 0001:001334b0       __CrtSetDbgFlag            005344b0 f   LIBCMTD:dbgheap.obj
 0001:001334e0       __CrtDoForAllClientObjects 005344e0 f   LIBCMTD:dbgheap.obj
 0001:00133590       __CrtIsValidPointer        00534590 f   LIBCMTD:dbgheap.obj
 0001:001335e0       __CrtIsValidHeapPointer    005345e0 f   LIBCMTD:dbgheap.obj
 0001:00133710       __CrtIsMemoryBlock         00534710 f   LIBCMTD:dbgheap.obj
 0001:00133840       __CrtSetDumpClient         00534840 f   LIBCMTD:dbgheap.obj
 0001:00133860       __CrtMemCheckpoint         00534860 f   LIBCMTD:dbgheap.obj
 0001:00133a10       __CrtMemDifference         00534a10 f   LIBCMTD:dbgheap.obj
 0001:00133b40       __CrtMemDumpAllObjectsSince 00534b40 f   LIBCMTD:dbgheap.obj
 0001:00133f60       __CrtDumpMemoryLeaks       00534f60 f   LIBCMTD:dbgheap.obj
 0001:00133fe0       __CrtMemDumpStatistics     00534fe0 f   LIBCMTD:dbgheap.obj
 0001:001340b0       _asctime                   005350b0 f   LIBCMTD:asctime.obj
 0001:001342b8       __except_handler3          005352b8 f   LIBCMTD:exsup3.obj
 0001:00134375       __seh_longjmp_unwind@4     00535375 f   LIBCMTD:exsup3.obj
 0001:00134390       __execv                    00535390 f   LIBCMTD:execv.obj
 0001:001344a0       _strchr                    005354a0 f   LIBCMTD:strchr.obj
 0001:001344a6       ___from_strstr_to_strchr   005354a6 f   LIBCMTD:strchr.obj
 0001:00134560       _strncat                   00535560 f   LIBCMTD:strncat.obj
 0001:00134690       __lrotl                    00535690 f   LIBCMTD:rotl.obj
 0001:001346b0       __rotl                     005356b0 f   LIBCMTD:rotl.obj
 0001:00134700       _mainCRTStartup            00535700 f   LIBCMTD:crt0.obj
 0001:00134850       __amsg_exit                00535850 f   LIBCMTD:crt0.obj
 0001:001348b0       ??2@YAPAXIHPBDH@Z          005358b0 f   LIBCMTD:dbgnew.obj
 0001:001348d0       __mbsrchr                  005358d0 f   LIBCMTD:mbsrchr.obj
 0001:001349a0       __CrtDbgBreak              005359a0 f   LIBCMTD:dbgrpt.obj
 0001:001349b0       __CrtSetReportMode         005359b0 f   LIBCMTD:dbgrpt.obj
 0001:00134a10       __CrtSetReportFile         00535a10 f   LIBCMTD:dbgrpt.obj
 0001:00134a90       __CrtSetReportHook         00535a90 f   LIBCMTD:dbgrpt.obj
 0001:00134ab0       __CrtDbgReport             00535ab0 f   LIBCMTD:dbgrpt.obj
 0001:00135150       __mtinitlocks              00536150 f   LIBCMTD:mlock.obj
 0001:00135190       __mtdeletelocks            00536190 f   LIBCMTD:mlock.obj
 0001:00135230       __lock                     00536230 f   LIBCMTD:mlock.obj
 0001:001352d0       __unlock                   005362d0 f   LIBCMTD:mlock.obj
 0001:001352f0       __lockerr_exit             005362f0 f   LIBCMTD:mlock.obj
 0001:00135310       ___initstdio               00536310 f   LIBCMTD:_file.obj
 0001:00135440       ___endstdio                00536440 f   LIBCMTD:_file.obj
 0001:00135460       __lock_file                00536460 f   LIBCMTD:_file.obj
 0001:001354a0       __lock_file2               005364a0 f   LIBCMTD:_file.obj
 0001:001354d0       __unlock_file              005364d0 f   LIBCMTD:_file.obj
 0001:00135510       __unlock_file2             00536510 f   LIBCMTD:_file.obj
 0001:00135540       __stbuf                    00536540 f   LIBCMTD:_sftbuf.obj
 0001:001356a0       __ftbuf                    005366a0 f   LIBCMTD:_sftbuf.obj
 0001:00135740       __output                   00536740 f   LIBCMTD:output.obj
 0001:001365e0       ___InternalCxxFrameHandler 005375e0 f   LIBCMTD:frame.obj
 0001:00136b50       ___FrameUnwindToState      00537b50 f   LIBCMTD:frame.obj
 0001:00137160       ?_DestructExceptionObject@@YAXPAUEHExceptionRecord@@E@Z 00538160 f   LIBCMTD:frame.obj
 0001:00137240       __CallSettingFrame@12      00538240 f   LIBCMTD:lowhelpr.obj
 0001:00137267       __NLG_Return               00538267 f   LIBCMTD:lowhelpr.obj
 0001:00137290       __mtinit                   00538290 f   LIBCMTD:tidtable.obj
 0001:00137320       __mtterm                   00538320 f   LIBCMTD:tidtable.obj
 0001:00137350       __initptd                  00538350 f   LIBCMTD:tidtable.obj
 0001:00137370       __getptd                   00538370 f   LIBCMTD:tidtable.obj
 0001:00137410       __freeptd                  00538410 f   LIBCMTD:tidtable.obj
 0001:00137520       ___threadid                00538520 f   LIBCMTD:tidtable.obj
 0001:00137530       ___threadhandle            00538530 f   LIBCMTD:tidtable.obj
 0001:00137540       ?terminate@@YAXXZ          00538540 f   LIBCMTD:hooks.obj
 0001:001375d0       ?unexpected@@YAXXZ         005385d0 f   LIBCMTD:hooks.obj
 0001:001375f0       ?_inconsistency@@YAXXZ     005385f0 f   LIBCMTD:hooks.obj
 0001:00137680       __dosmaperr                00538680 f   LIBCMTD:dosmap.obj
 0001:00137720       __errno                    00538720 f   LIBCMTD:dosmap.obj
 0001:00137730       ___doserrno                00538730 f   LIBCMTD:dosmap.obj
 0001:00137740       __XcptFilter               00538740 f   LIBCMTD:winxfltr.obj
 0001:00137960       __free_base                00538960 f   LIBCMTD:free.obj
 0001:00137ab0       _abort                     00538ab0 f   LIBCMTD:abort.obj
 0001:00137ad0       _signal                    00538ad0 f   LIBCMTD:winsig.obj
 0001:00137da0       _raise                     00538da0 f   LIBCMTD:winsig.obj
 0001:00138040       ___fpecode                 00539040 f   LIBCMTD:winsig.obj
 0001:00138050       ___pxcptinfoptrs           00539050 f   LIBCMTD:winsig.obj
 0001:00138060       ___crtMessageBoxA          00539060 f   LIBCMTD:crtmbox.obj
 0001:00138120       __itoa                     00539120 f   LIBCMTD:xtoa.obj
 0001:00138120       _itoa                      00539120 f   LIBCMTD:xtoa.obj
 0001:00138240       __ltoa                     00539240 f   LIBCMTD:xtoa.obj
 0001:00138280       __ultoa                    00539280 f   LIBCMTD:xtoa.obj
 0001:001382a0       __i64toa                   005392a0 f   LIBCMTD:xtoa.obj
 0001:001383f0       __ui64toa                  005393f0 f   LIBCMTD:xtoa.obj
